

Microchip MPLAB XC8 Assembler V2.40 build 20220703182018 
                                                                                               Sat Dec 03 14:19:12 2022

Microchip MPLAB XC8 C Compiler v2.40 (Free license) build 20220703182018 Og1 
     1                           	processor	18LF4550
     2                           	fnconf	rparam,??,?,0
     3                           	pagewidth 120
     4                           	opt	flic
     5                           	psect	mediumconst,global,reloc=2,class=MEDIUMCONST,delta=1,noexec
     6                           	psect	cinit,global,reloc=2,class=CODE,delta=1
     7                           	psect	bssCOMRAM,global,class=COMRAM,space=1,delta=1,lowdata,noexec
     8                           	psect	bssBANK0,global,class=BANK0,space=1,delta=1,lowdata,noexec
     9                           	psect	bssBANK1,global,class=BANK1,space=1,delta=1,lowdata,noexec
    10                           	psect	bssBANK2,global,class=BANK2,space=1,delta=1,lowdata,noexec
    11                           	psect	bssBIGRAM_1,global,class=BIGRAM,space=1,delta=1,noexec
    12                           	psect	cstackBANK1,global,class=BANK1,space=1,delta=1,lowdata,noexec
    13                           	psect	cstackBANK0,global,class=BANK0,space=1,delta=1,lowdata,noexec
    14                           	psect	cstackCOMRAM,global,class=COMRAM,space=1,delta=1,lowdata,noexec
    15                           	psect	text0,global,reloc=2,class=CODE,delta=1
    16                           	psect	text1,global,reloc=2,class=CODE,delta=1
    17                           	psect	text2,global,reloc=2,class=CODE,delta=1
    18                           	psect	text3,global,reloc=2,class=CODE,delta=1
    19                           	psect	text4,global,reloc=2,class=CODE,delta=1,group=3
    20                           	psect	text5,global,reloc=2,class=CODE,delta=1,group=1
    21                           	psect	text6,global,reloc=2,class=CODE,delta=1,group=1
    22                           	psect	text7,global,reloc=2,class=CODE,delta=1,group=1
    23                           	psect	text8,global,reloc=2,class=CODE,delta=1,group=1
    24                           	psect	text9,global,reloc=2,class=CODE,delta=1,group=3
    25                           	psect	text10,global,reloc=2,class=CODE,delta=1,group=3
    26                           	psect	text11,global,reloc=2,class=CODE,delta=1,group=3
    27                           	psect	text12,global,reloc=2,class=CODE,delta=1,group=2
    28                           	psect	text13,global,reloc=2,class=CODE,delta=1,group=2
    29                           	psect	text14,global,reloc=2,class=CODE,delta=1
    30                           	psect	text15,global,reloc=2,class=CODE,delta=1
    31                           	psect	text16,global,reloc=2,class=CODE,delta=1
    32                           	psect	text17,global,reloc=2,class=CODE,delta=1
    33                           	psect	text18,global,reloc=2,class=CODE,delta=1
    34                           	psect	text19,global,reloc=2,class=CODE,delta=1
    35                           	psect	text20,global,reloc=2,class=CODE,delta=1,group=2
    36                           	psect	text21,global,reloc=2,class=CODE,delta=1
    37                           	psect	text22,global,reloc=2,class=CODE,delta=1
    38                           	psect	text23,global,reloc=2,class=CODE,delta=1
    39                           	psect	text24,global,reloc=2,class=CODE,delta=1
    40                           	psect	text25,global,reloc=2,class=CODE,delta=1,group=3
    41                           	psect	text26,global,reloc=2,class=CODE,delta=1
    42                           	psect	intcodelo,global,reloc=2,class=CODE,delta=1
    43                           	psect	intcode,global,reloc=2,class=CODE,delta=1
    44                           	psect	intcode_body,global,reloc=2,class=CODE,delta=1
    45                           	psect	text29,global,reloc=2,class=CODE,delta=1
    46                           	psect	text30,global,reloc=2,class=CODE,delta=1
    47                           	psect	text31,global,reloc=2,class=CODE,delta=1
    48                           	psect	text32,global,reloc=2,class=CODE,delta=1
    49                           	psect	text33,global,reloc=2,class=CODE,delta=1
    50                           	psect	text34,global,reloc=2,class=CODE,delta=1
    51                           	psect	text35,global,reloc=2,class=CODE,delta=1
    52                           	psect	text36,global,reloc=2,class=CODE,delta=1,group=3
    53                           	psect	text37,global,reloc=2,class=CODE,delta=1
    54                           	psect	text38,global,reloc=2,class=CODE,delta=1
    55                           	psect	text39,global,reloc=2,class=CODE,delta=1
    56                           	psect	text40,global,reloc=2,class=CODE,delta=1
    57                           	psect	text41,global,reloc=2,class=CODE,delta=1
    58                           	psect	text42,global,reloc=2,class=CODE,delta=1
    59                           	psect	text43,global,reloc=2,class=CODE,delta=1
    60                           	psect	text44,global,reloc=2,class=CODE,delta=1
    61                           	psect	text45,global,reloc=2,class=CODE,delta=1
    62                           	psect	text46,global,reloc=2,class=CODE,delta=1
    63                           	psect	text47,global,reloc=2,class=CODE,delta=1
    64                           	psect	text48,global,reloc=2,class=CODE,delta=1
    65                           	psect	text49,global,reloc=2,class=CODE,delta=1
    66                           	psect	text50,global,reloc=2,class=CODE,delta=1
    67                           	psect	text51,global,reloc=2,class=CODE,delta=1
    68                           	psect	text52,global,reloc=2,class=CODE,delta=1
    69                           	psect	text53,global,reloc=2,class=CODE,delta=1
    70                           	psect	text54,global,reloc=2,class=CODE,delta=1
    71                           	psect	text55,global,reloc=2,class=CODE,delta=1
    72                           	psect	text56,global,reloc=2,class=CODE,delta=1
    73                           	psect	text57,global,reloc=2,class=CODE,delta=1
    74                           	psect	text58,global,reloc=2,class=CODE,delta=1
    75                           	psect	text59,global,reloc=2,class=CODE,delta=1
    76                           	psect	text60,global,reloc=2,class=CODE,delta=1
    77                           	psect	text61,global,reloc=2,class=CODE,delta=1
    78                           	psect	text62,global,reloc=2,class=CODE,delta=1
    79                           	psect	text63,global,reloc=2,class=CODE,delta=1
    80                           	psect	text64,global,reloc=2,class=CODE,delta=1
    81                           	psect	intsave_regs,global,class=BIGRAM,space=1,delta=1,noexec
    82                           	psect	rparam,global,class=COMRAM,space=1,delta=1,noexec
    83                           	psect	temp,global,ovrld,common,class=COMRAM,space=1,delta=1
    84                           	psect	idloc,global,abs,ovrld,class=IDLOC,space=5,delta=1,noexec
    85                           	psect	config,global,abs,ovrld,class=CONFIG,space=4,delta=1,noexec
    86                           	dabs	1,0x400,32,_BDT
    87                           	dabs	1,0x428,8,_CtrlTrfData
    88                           	dabs	1,0x420,8,_SetupPkt
    89   000000                     
    90                           ; Version 2.40
    91                           ; Generated 17/11/2021 GMT
    92                           ; 
    93                           ; Copyright © 2021, Microchip Technology Inc. and its subsidiaries ("Microchip")
    94                           ; All rights reserved.
    95                           ; 
    96                           ; This software is developed by Microchip Technology Inc. and its subsidiaries ("Microch
      +                          ip").
    97                           ; 
    98                           ; Redistribution and use in source and binary forms, with or without modification, are
    99                           ; permitted provided that the following conditions are met:
   100                           ; 
   101                           ;     1. Redistributions of source code must retain the above copyright notice, this lis
      +                          t of
   102                           ;        conditions and the following disclaimer.
   103                           ; 
   104                           ;     2. Redistributions in binary form must reproduce the above copyright notice, this 
      +                          list
   105                           ;        of conditions and the following disclaimer in the documentation and/or other
   106                           ;        materials provided with the distribution. Publication is not required when
   107                           ;        this file is used in an embedded application.
   108                           ; 
   109                           ;     3. Microchip's name may not be used to endorse or promote products derived from th
      +                          is
   110                           ;        software without specific prior written permission.
   111                           ; 
   112                           ; THIS SOFTWARE IS PROVIDED BY MICROCHIP "AS IS" AND ANY EXPRESS OR IMPLIED WARRANTIES,
   113                           ; INCLUDING, BUT NOT LIMITED TO, THE IMPLIED WARRANTIES OF MERCHANTABILITY AND FITNESS F
      +                          OR
   114                           ; PURPOSE ARE DISCLAIMED.  IN NO EVENT SHALL MICROCHIP BE LIABLE FOR ANY DIRECT, INDIREC
      +                          T,
   115                           ; INCIDENTAL, SPECIAL, EXEMPLARY, OR CONSEQUENTIAL DAMAGES (INCLUDING BUT NOT LIMITED TO
   116                           ; PROCUREMENT OF SUBSTITUTE GOODS OR SERVICES; LOSS OF USE, DATA OR PROFITS; OR BUSINESS
   117                           ; INTERRUPTION) HOWSOEVER CAUSED AND ON ANY THEORY OF LIABILITY, WHETHER IN CONTRACT, ST
      +                          RICT
   118                           ; LIABILITY, OR TORT (INCLUDING NEGLIGENCE OR OTHERWISE) ARISING IN ANY WAY OUT OF THE U
      +                          SE OF
   119                           ; THIS SOFTWARE, EVEN IF ADVISED OF THE POSSIBILITY OF SUCH DAMAGE.
   120                           ; 
   121                           ; 
   122                           ; Code-generator required, PIC18LF4550 Definitions
   123                           ; 
   124                           ; SFR Addresses
   125   000000                     
   126                           	psect	mediumconst
   127   007B5C                     __pmediumconst:
   128                           	callstack 0
   129   007B5C  00                 	db	0
   130   007B5D                     _USB_SD_Ptr:
   131                           	callstack 0
   132   007B5D  1F                 	db	low _sd000
   133   007B5E  7C                 	db	high _sd000
   134   007B5F  65                 	db	low _sd001
   135   007B60  7B                 	db	high _sd001
   136   007B61  99                 	db	low _sd002
   137   007B62  7B                 	db	high _sd002
   138   007B63                     __end_of_USB_SD_Ptr:
   139                           	callstack 0
   140   007B63                     _USB_CD_Ptr:
   141                           	callstack 0
   142   007B63  C7                 	db	low _configDescriptor1
   143   007B64  7B                 	db	high _configDescriptor1
   144   007B65                     __end_of_USB_CD_Ptr:
   145                           	callstack 0
   146   007B65                     _sd001:
   147                           	callstack 0
   148   007B65  34                 	db	52
   149   007B66  03                 	db	3
   150   007B67  004D               	dw	77
   151   007B69  0069               	dw	105
   152   007B6B  0063               	dw	99
   153   007B6D  0072               	dw	114
   154   007B6F  006F               	dw	111
   155   007B71  0063               	dw	99
   156   007B73  0068               	dw	104
   157   007B75  0069               	dw	105
   158   007B77  0070               	dw	112
   159   007B79  0020               	dw	32
   160   007B7B  0054               	dw	84
   161   007B7D  0065               	dw	101
   162   007B7F  0063               	dw	99
   163   007B81  0068               	dw	104
   164   007B83  006E               	dw	110
   165   007B85  006F               	dw	111
   166   007B87  006C               	dw	108
   167   007B89  006F               	dw	111
   168   007B8B  0067               	dw	103
   169   007B8D  0079               	dw	121
   170   007B8F  0020               	dw	32
   171   007B91  0049               	dw	73
   172   007B93  006E               	dw	110
   173   007B95  0063               	dw	99
   174   007B97  002E               	dw	46
   175   007B99                     __end_of_sd001:
   176                           	callstack 0
   177   007B99                     _sd002:
   178                           	callstack 0
   179   007B99  2E                 	db	46
   180   007B9A  03                 	db	3
   181   007B9B  0053               	dw	83
   182   007B9D  0069               	dw	105
   183   007B9F  006D               	dw	109
   184   007BA1  0070               	dw	112
   185   007BA3  006C               	dw	108
   186   007BA5  0065               	dw	101
   187   007BA7  0020               	dw	32
   188   007BA9  0048               	dw	72
   189   007BAB  0049               	dw	73
   190   007BAD  0044               	dw	68
   191   007BAF  0020               	dw	32
   192   007BB1  0044               	dw	68
   193   007BB3  0065               	dw	101
   194   007BB5  0076               	dw	118
   195   007BB7  0069               	dw	105
   196   007BB9  0063               	dw	99
   197   007BBB  0065               	dw	101
   198   007BBD  0020               	dw	32
   199   007BBF  0044               	dw	68
   200   007BC1  0065               	dw	101
   201   007BC3  006D               	dw	109
   202   007BC5  006F               	dw	111
   203   007BC7                     __end_of_sd002:
   204                           	callstack 0
   205   007BC7                     _configDescriptor1:
   206                           	callstack 0
   207   007BC7  09                 	db	9
   208   007BC8  02                 	db	2
   209   007BC9  29                 	db	41
   210   007BCA  00                 	db	0
   211   007BCB  01                 	db	1
   212   007BCC  01                 	db	1
   213   007BCD  00                 	db	0
   214   007BCE  C0                 	db	192
   215   007BCF  96                 	db	150
   216   007BD0  09                 	db	9
   217   007BD1  04                 	db	4
   218   007BD2  00                 	db	0
   219   007BD3  00                 	db	0
   220   007BD4  02                 	db	2
   221   007BD5  03                 	db	3
   222   007BD6  00                 	db	0
   223   007BD7  00                 	db	0
   224   007BD8  00                 	db	0
   225   007BD9  09                 	db	9
   226   007BDA  21                 	db	33
   227   007BDB  11                 	db	17
   228   007BDC  01                 	db	1
   229   007BDD  00                 	db	0
   230   007BDE  01                 	db	1
   231   007BDF  22                 	db	34
   232   007BE0  1D                 	db	29
   233   007BE1  00                 	db	0
   234   007BE2  07                 	db	7
   235   007BE3  05                 	db	5
   236   007BE4  81                 	db	129
   237   007BE5  03                 	db	3
   238   007BE6  40                 	db	64
   239   007BE7  00                 	db	0
   240   007BE8  01                 	db	1
   241   007BE9  07                 	db	7
   242   007BEA  05                 	db	5
   243   007BEB  01                 	db	1
   244   007BEC  03                 	db	3
   245   007BED  40                 	db	64
   246   007BEE  00                 	db	0
   247   007BEF  01                 	db	1
   248   007BF0                     __end_of_configDescriptor1:
   249                           	callstack 0
   250   007BF0                     _hid_rpt01:
   251                           	callstack 0
   252   007BF0  06                 	db	6
   253   007BF1  00                 	db	0
   254   007BF2  FF                 	db	255
   255   007BF3  09                 	db	9
   256   007BF4  01                 	db	1
   257   007BF5  A1                 	db	161
   258   007BF6  01                 	db	1
   259   007BF7  19                 	db	25
   260   007BF8  01                 	db	1
   261   007BF9  29                 	db	41
   262   007BFA  40                 	db	64
   263   007BFB  15                 	db	21
   264   007BFC  00                 	db	0
   265   007BFD  26                 	db	38
   266   007BFE  FF                 	db	255
   267   007BFF  00                 	db	0
   268   007C00  75                 	db	117
   269   007C01  08                 	db	8
   270   007C02  95                 	db	149
   271   007C03  40                 	db	64
   272   007C04  81                 	db	129
   273   007C05  02                 	db	2
   274   007C06  19                 	db	25
   275   007C07  01                 	db	1
   276   007C08  29                 	db	41
   277   007C09  40                 	db	64
   278   007C0A  91                 	db	145
   279   007C0B  02                 	db	2
   280   007C0C  C0                 	db	192
   281   007C0D                     __end_of_hid_rpt01:
   282                           	callstack 0
   283   007C0D                     _device_dsc:
   284                           	callstack 0
   285   007C0D  12                 	db	18
   286   007C0E  01                 	db	1
   287   007C0F  0200               	dw	512
   288   007C11  00                 	db	0
   289   007C12  00                 	db	0
   290   007C13  00                 	db	0
   291   007C14  08                 	db	8
   292   007C15  04D8               	dw	1240
   293   007C17  005E               	dw	94
   294   007C19  0002               	dw	2
   295   007C1B  01                 	db	1
   296   007C1C  02                 	db	2
   297   007C1D  00                 	db	0
   298   007C1E  01                 	db	1
   299   007C1F                     __end_of_device_dsc:
   300                           	callstack 0
   301   007C1F                     _sd000:
   302                           	callstack 0
   303   007C1F  04                 	db	4
   304   007C20  03                 	db	3
   305   007C21  0409               	dw	1033
   306   007C23                     __end_of_sd000:
   307                           	callstack 0
   308   000000                     _TXREG	set	4013
   309   000000                     _RCREG	set	4014
   310   000000                     _SPBRG	set	4015
   311   000000                     _BAUDCON	set	4024
   312   000000                     _USTAT	set	3948
   313   000000                     _UADDR	set	3950
   314   000000                     _UIE	set	3945
   315   000000                     _UEIE	set	3947
   316   000000                     _UCFG	set	3951
   317   000000                     _T0CON	set	4053
   318   000000                     _TMR0L	set	4054
   319   000000                     _TMR0H	set	4055
   320   000000                     _UEP0	set	3952
   321   000000                     _UEP0bits	set	3952
   322   000000                     _UIEbits	set	3945
   323   000000                     _UCON	set	3949
   324   000000                     _UIRbits	set	3944
   325   000000                     _RCSTAbits	set	4011
   326   000000                     _BAUDCONbits	set	4024
   327   000000                     _TXSTAbits	set	4012
   328   000000                     _T0CONbits	set	4053
   329   000000                     _UIR	set	3944
   330   000000                     _UEIR	set	3946
   331   000000                     _UCONbits	set	3949
   332   000000                     _LATAbits	set	3977
   333   000000                     _LATEbits	set	3981
   334   000000                     _RCSTA	set	4011
   335   000000                     _TXSTA	set	4012
   336   000000                     _PIR2bits	set	4001
   337   000000                     _PIE2bits	set	4000
   338   000000                     _IPR1bits	set	3999
   339   000000                     _ADCON1	set	4033
   340   000000                     _ADCON0bits	set	4034
   341   000000                     _TMR1L	set	4046
   342   000000                     _TMR1H	set	4047
   343   000000                     _PIR1bits	set	3998
   344   000000                     _PIE1bits	set	3997
   345   000000                     _INTCON2bits	set	4081
   346   000000                     _INTCONbits	set	4082
   347   000000                     _RCONbits	set	4048
   348   000000                     _TRISAbits	set	3986
   349   000000                     _ADRES	set	4035
   350   000000                     _T1CON	set	4045
   351   000000                     _TRISEbits	set	3990
   352   000000                     _UEP1	set	3953
   353   000000                     _SPBRGH	set	4016
   354   007C23                     STR_3:
   355   007C23  6D                 	db	109	;'m'
   356   007C24  54                 	db	84	;'T'
   357   007C25  6F                 	db	111	;'o'
   358   007C26  75                 	db	117	;'u'
   359   007C27  63                 	db	99	;'c'
   360   007C28  68                 	db	104	;'h'
   361   007C29  20                 	db	32
   362   007C2A  63                 	db	99	;'c'
   363   007C2B  61                 	db	97	;'a'
   364   007C2C  6C                 	db	108	;'l'
   365   007C2D  6C                 	db	108	;'l'
   366   007C2E  69                 	db	105	;'i'
   367   007C2F  62                 	db	98	;'b'
   368   007C30  72                 	db	114	;'r'
   369   007C31  61                 	db	97	;'a'
   370   007C32  74                 	db	116	;'t'
   371   007C33  69                 	db	105	;'i'
   372   007C34  6F                 	db	111	;'o'
   373   007C35  6E                 	db	110	;'n'
   374   007C36  20                 	db	32
   375   007C37  63                 	db	99	;'c'
   376   007C38  6F                 	db	111	;'o'
   377   007C39  6D                 	db	109	;'m'
   378   007C3A  6D                 	db	109	;'m'
   379   007C3B  61                 	db	97	;'a'
   380   007C3C  6E                 	db	110	;'n'
   381   007C3D  64                 	db	100	;'d'
   382   007C3E  00                 	db	0
   383   007C3F                     STR_5:
   384   007C3F  52                 	db	82	;'R'
   385   007C40  65                 	db	101	;'e'
   386   007C41  61                 	db	97	;'a'
   387   007C42  64                 	db	100	;'d'
   388   007C43  20                 	db	32
   389   007C44  42                 	db	66	;'B'
   390   007C45  75                 	db	117	;'u'
   391   007C46  74                 	db	116	;'t'
   392   007C47  74                 	db	116	;'t'
   393   007C48  6F                 	db	111	;'o'
   394   007C49  6E                 	db	110	;'n'
   395   007C4A  20                 	db	32
   396   007C4B  42                 	db	66	;'B'
   397   007C4C  72                 	db	114	;'r'
   398   007C4D  6F                 	db	111	;'o'
   399   007C4E  74                 	db	116	;'t'
   400   007C4F  68                 	db	104	;'h'
   401   007C50  65                 	db	101	;'e'
   402   007C51  72                 	db	114	;'r'
   403   007C52  20                 	db	32
   404   007C53  31                 	db	49	;'1'
   405   007C54  2E                 	db	46
   406   007C55  2E                 	db	46
   407   007C56  2E                 	db	46
   408   007C57  2E                 	db	46
   409   007C58  00                 	db	0
   410   007C59                     STR_6:
   411   007C59  52                 	db	82	;'R'
   412   007C5A  65                 	db	101	;'e'
   413   007C5B  61                 	db	97	;'a'
   414   007C5C  64                 	db	100	;'d'
   415   007C5D  20                 	db	32
   416   007C5E  42                 	db	66	;'B'
   417   007C5F  75                 	db	117	;'u'
   418   007C60  74                 	db	116	;'t'
   419   007C61  74                 	db	116	;'t'
   420   007C62  6F                 	db	111	;'o'
   421   007C63  6E                 	db	110	;'n'
   422   007C64  20                 	db	32
   423   007C65  42                 	db	66	;'B'
   424   007C66  72                 	db	114	;'r'
   425   007C67  6F                 	db	111	;'o'
   426   007C68  74                 	db	116	;'t'
   427   007C69  68                 	db	104	;'h'
   428   007C6A  65                 	db	101	;'e'
   429   007C6B  72                 	db	114	;'r'
   430   007C6C  20                 	db	32
   431   007C6D  32                 	db	50	;'2'
   432   007C6E  2E                 	db	46
   433   007C6F  2E                 	db	46
   434   007C70  2E                 	db	46
   435   007C71  2E                 	db	46
   436   007C72  00                 	db	0
   437   007C73                     STR_7:
   438   007C73  52                 	db	82	;'R'
   439   007C74  65                 	db	101	;'e'
   440   007C75  61                 	db	97	;'a'
   441   007C76  64                 	db	100	;'d'
   442   007C77  20                 	db	32
   443   007C78  42                 	db	66	;'B'
   444   007C79  75                 	db	117	;'u'
   445   007C7A  74                 	db	116	;'t'
   446   007C7B  74                 	db	116	;'t'
   447   007C7C  6F                 	db	111	;'o'
   448   007C7D  6E                 	db	110	;'n'
   449   007C7E  20                 	db	32
   450   007C7F  42                 	db	66	;'B'
   451   007C80  72                 	db	114	;'r'
   452   007C81  6F                 	db	111	;'o'
   453   007C82  74                 	db	116	;'t'
   454   007C83  68                 	db	104	;'h'
   455   007C84  65                 	db	101	;'e'
   456   007C85  72                 	db	114	;'r'
   457   007C86  20                 	db	32
   458   007C87  33                 	db	51	;'3'
   459   007C88  2E                 	db	46
   460   007C89  2E                 	db	46
   461   007C8A  2E                 	db	46
   462   007C8B  2E                 	db	46
   463   007C8C  00                 	db	0
   464   007C8D                     STR_8:
   465   007C8D  52                 	db	82	;'R'
   466   007C8E  65                 	db	101	;'e'
   467   007C8F  61                 	db	97	;'a'
   468   007C90  64                 	db	100	;'d'
   469   007C91  20                 	db	32
   470   007C92  42                 	db	66	;'B'
   471   007C93  75                 	db	117	;'u'
   472   007C94  74                 	db	116	;'t'
   473   007C95  74                 	db	116	;'t'
   474   007C96  6F                 	db	111	;'o'
   475   007C97  6E                 	db	110	;'n'
   476   007C98  20                 	db	32
   477   007C99  42                 	db	66	;'B'
   478   007C9A  72                 	db	114	;'r'
   479   007C9B  6F                 	db	111	;'o'
   480   007C9C  74                 	db	116	;'t'
   481   007C9D  68                 	db	104	;'h'
   482   007C9E  65                 	db	101	;'e'
   483   007C9F  72                 	db	114	;'r'
   484   007CA0  20                 	db	32
   485   007CA1  34                 	db	52	;'4'
   486   007CA2  2E                 	db	46
   487   007CA3  2E                 	db	46
   488   007CA4  2E                 	db	46
   489   007CA5  2E                 	db	46
   490   007CA6  00                 	db	0
   491   007CA7                     STR_12:
   492   007CA7  42                 	db	66	;'B'
   493   007CA8  4D                 	db	77	;'M'
   494   007CA9  41                 	db	65	;'A'
   495   007CAA  31                 	db	49	;'1'
   496   007CAB  35                 	db	53	;'5'
   497   007CAC  30                 	db	48	;'0'
   498   007CAD  5F                 	db	95	;'_'
   499   007CAE  52                 	db	82	;'R'
   500   007CAF  45                 	db	69	;'E'
   501   007CB0  47                 	db	71	;'G'
   502   007CB1  20                 	db	32
   503   007CB2  72                 	db	114	;'r'
   504   007CB3  65                 	db	101	;'e'
   505   007CB4  67                 	db	103	;'g'
   506   007CB5  54                 	db	84	;'T'
   507   007CB6  5F                 	db	95	;'_'
   508   007CB7  4D                 	db	77	;'M'
   509   007CB8  53                 	db	83	;'S'
   510   007CB9  42                 	db	66	;'B'
   511   007CBA  2E                 	db	46
   512   007CBB  2E                 	db	46
   513   007CBC  2E                 	db	46
   514   007CBD  00                 	db	0
   515   007CBE                     STR_9:
   516   007CBE  42                 	db	66	;'B'
   517   007CBF  4D                 	db	77	;'M'
   518   007CC0  41                 	db	65	;'A'
   519   007CC1  31                 	db	49	;'1'
   520   007CC2  35                 	db	53	;'5'
   521   007CC3  30                 	db	48	;'0'
   522   007CC4  5F                 	db	95	;'_'
   523   007CC5  52                 	db	82	;'R'
   524   007CC6  45                 	db	69	;'E'
   525   007CC7  47                 	db	71	;'G'
   526   007CC8  20                 	db	32
   527   007CC9  72                 	db	114	;'r'
   528   007CCA  65                 	db	101	;'e'
   529   007CCB  67                 	db	103	;'g'
   530   007CCC  58                 	db	88	;'X'
   531   007CCD  5F                 	db	95	;'_'
   532   007CCE  4D                 	db	77	;'M'
   533   007CCF  53                 	db	83	;'S'
   534   007CD0  42                 	db	66	;'B'
   535   007CD1  2E                 	db	46
   536   007CD2  2E                 	db	46
   537   007CD3  2E                 	db	46
   538   007CD4  00                 	db	0
   539   007CD5                     STR_10:
   540   007CD5  42                 	db	66	;'B'
   541   007CD6  4D                 	db	77	;'M'
   542   007CD7  41                 	db	65	;'A'
   543   007CD8  31                 	db	49	;'1'
   544   007CD9  35                 	db	53	;'5'
   545   007CDA  30                 	db	48	;'0'
   546   007CDB  5F                 	db	95	;'_'
   547   007CDC  52                 	db	82	;'R'
   548   007CDD  45                 	db	69	;'E'
   549   007CDE  47                 	db	71	;'G'
   550   007CDF  20                 	db	32
   551   007CE0  72                 	db	114	;'r'
   552   007CE1  65                 	db	101	;'e'
   553   007CE2  67                 	db	103	;'g'
   554   007CE3  59                 	db	89	;'Y'
   555   007CE4  5F                 	db	95	;'_'
   556   007CE5  4D                 	db	77	;'M'
   557   007CE6  53                 	db	83	;'S'
   558   007CE7  42                 	db	66	;'B'
   559   007CE8  2E                 	db	46
   560   007CE9  2E                 	db	46
   561   007CEA  2E                 	db	46
   562   007CEB  00                 	db	0
   563   007CEC                     STR_11:
   564   007CEC  42                 	db	66	;'B'
   565   007CED  4D                 	db	77	;'M'
   566   007CEE  41                 	db	65	;'A'
   567   007CEF  31                 	db	49	;'1'
   568   007CF0  35                 	db	53	;'5'
   569   007CF1  30                 	db	48	;'0'
   570   007CF2  5F                 	db	95	;'_'
   571   007CF3  52                 	db	82	;'R'
   572   007CF4  45                 	db	69	;'E'
   573   007CF5  47                 	db	71	;'G'
   574   007CF6  20                 	db	32
   575   007CF7  72                 	db	114	;'r'
   576   007CF8  65                 	db	101	;'e'
   577   007CF9  67                 	db	103	;'g'
   578   007CFA  5A                 	db	90	;'Z'
   579   007CFB  5F                 	db	95	;'_'
   580   007CFC  4D                 	db	77	;'M'
   581   007CFD  53                 	db	83	;'S'
   582   007CFE  42                 	db	66	;'B'
   583   007CFF  2E                 	db	46
   584   007D00  2E                 	db	46
   585   007D01  2E                 	db	46
   586   007D02  00                 	db	0
   587   007D03                     STR_4:
   588   007D03  52                 	db	82	;'R'
   589   007D04  65                 	db	101	;'e'
   590   007D05  61                 	db	97	;'a'
   591   007D06  64                 	db	100	;'d'
   592   007D07  20                 	db	32
   593   007D08  41                 	db	65	;'A'
   594   007D09  44                 	db	68	;'D'
   595   007D0A  43                 	db	67	;'C'
   596   007D0B  20                 	db	32
   597   007D0C  56                 	db	86	;'V'
   598   007D0D  6F                 	db	111	;'o'
   599   007D0E  6C                 	db	108	;'l'
   600   007D0F  74                 	db	116	;'t'
   601   007D10  61                 	db	97	;'a'
   602   007D11  67                 	db	103	;'g'
   603   007D12  65                 	db	101	;'e'
   604   007D13  00                 	db	0
   605   007D14                     STR_14:
   606   007D14  63                 	db	99	;'c'
   607   007D15  6E                 	db	110	;'n'
   608   007D16  74                 	db	116	;'t'
   609   007D17  20                 	db	32
   610   007D18  25                 	db	37
   611   007D19  75                 	db	117	;'u'
   612   007D1A  20                 	db	32
   613   007D1B  69                 	db	105	;'i'
   614   007D1C  73                 	db	115	;'s'
   615   007D1D  20                 	db	32
   616   007D1E  25                 	db	37
   617   007D1F  75                 	db	117	;'u'
   618   007D20  0D                 	db	13
   619   007D21  0A                 	db	10
   620   007D22  00                 	db	0
   621   007D23                     STR_1:
   622   007D23  48                 	db	72	;'H'
   623   007D24  65                 	db	101	;'e'
   624   007D25  6C                 	db	108	;'l'
   625   007D26  6C                 	db	108	;'l'
   626   007D27  6F                 	db	111	;'o'
   627   007D28  20                 	db	32
   628   007D29  57                 	db	87	;'W'
   629   007D2A  6F                 	db	111	;'o'
   630   007D2B  72                 	db	114	;'r'
   631   007D2C  6C                 	db	108	;'l'
   632   007D2D  64                 	db	100	;'d'
   633   007D2E  0D                 	db	13
   634   007D2F  0A                 	db	10
   635   007D30  00                 	db	0
   636   007D31                     STR_13:
   637   007D31  49                 	db	73	;'I'
   638   007D32  6E                 	db	110	;'n'
   639   007D33  76                 	db	118	;'v'
   640   007D34  61                 	db	97	;'a'
   641   007D35  6C                 	db	108	;'l'
   642   007D36  69                 	db	105	;'i'
   643   007D37  64                 	db	100	;'d'
   644   007D38  2E                 	db	46
   645   007D39  2E                 	db	46
   646   007D3A  2E                 	db	46
   647   007D3B  0D                 	db	13
   648   007D3C  0A                 	db	10
   649   007D3D  00                 	db	0
   650   007D3E  00                 	db	0	; dummy byte at the end
   651   000000                     
   652                           ; #config settings
   653                           
   654                           	psect	cinit
   655   002D62                     __pcinit:
   656                           	callstack 0
   657   002D62                     start_initialization:
   658                           	callstack 0
   659   002D62                     __initialization:
   660                           	callstack 0
   661                           
   662                           ; Clear objects allocated to BIGRAM_1 (512 bytes)
   663   002D62  EE04  F030         	lfsr	0,__pbssBIGRAM_1
   664   002D66  EE12 F000          	lfsr	1,512
   665   002D6A                     clear_0:
   666   002D6A  6AEE               	clrf	postinc0,c
   667   002D6C  50E5               	movf	postdec1,w,c
   668   002D6E  50E1               	movf	fsr1l,w,c
   669   002D70  E1FC               	bnz	clear_0
   670   002D72  50E2               	movf	fsr1h,w,c
   671   002D74  E1FA               	bnz	clear_0
   672                           
   673                           ; Clear objects allocated to BANK2 (128 bytes)
   674   002D76  EE02  F000         	lfsr	0,__pbssBANK2
   675   002D7A  0E80               	movlw	128
   676   002D7C                     clear_1:
   677   002D7C  6AEE               	clrf	postinc0,c
   678   002D7E  06E8               	decf	wreg,f,c
   679   002D80  E1FD               	bnz	clear_1
   680                           
   681                           ; Clear objects allocated to BANK1 (102 bytes)
   682   002D82  EE01  F06F         	lfsr	0,__pbssBANK1
   683   002D86  0E66               	movlw	102
   684   002D88                     clear_2:
   685   002D88  6AEE               	clrf	postinc0,c
   686   002D8A  06E8               	decf	wreg,f,c
   687   002D8C  E1FD               	bnz	clear_2
   688                           
   689                           ; Clear objects allocated to BANK0 (37 bytes)
   690   002D8E  EE00  F0D1         	lfsr	0,__pbssBANK0
   691   002D92  0E25               	movlw	37
   692   002D94                     clear_3:
   693   002D94  6AEE               	clrf	postinc0,c
   694   002D96  06E8               	decf	wreg,f,c
   695   002D98  E1FD               	bnz	clear_3
   696                           
   697                           ; Clear objects allocated to COMRAM (29 bytes)
   698   002D9A  EE00  F02E         	lfsr	0,__pbssCOMRAM
   699   002D9E  0E1D               	movlw	29
   700   002DA0                     clear_4:
   701   002DA0  6AEE               	clrf	postinc0,c
   702   002DA2  06E8               	decf	wreg,f,c
   703   002DA4  E1FD               	bnz	clear_4
   704   002DA6                     end_of_initialization:
   705                           	callstack 0
   706   002DA6                     __end_of__initialization:
   707                           	callstack 0
   708   002DA6  904B               	bcf	int$flags,0,c	;clear compiler interrupt flag (level 1)
   709   002DA8  924B               	bcf	int$flags,1,c	;clear compiler interrupt flag (level 2)
   710   002DAA  0E00               	movlw	low (__Lmediumconst shr (0+16))
   711   002DAC  6EF8               	movwf	tblptru,c
   712   002DAE  0100               	movlb	0
   713   002DB0  EF34  F000         	goto	_main	;jump to C main() function
   714                           
   715                           	psect	bssCOMRAM
   716   00002E                     __pbssCOMRAM:
   717                           	callstack 0
   718   00002E                     __rx_buffer_tail:
   719                           	callstack 0
   720   00002E                     	ds	2
   721   000030                     __rx_buffer_head:
   722                           	callstack 0
   723   000030                     	ds	2
   724   000032                     _pDst:
   725                           	callstack 0
   726   000032                     	ds	2
   727   000034                     _pBDTEntryEP0OutNext:
   728                           	callstack 0
   729   000034                     	ds	2
   730   000036                     _pBDTEntryEP0OutCurrent:
   731                           	callstack 0
   732   000036                     	ds	2
   733   000038                     __tx_buffer_tail:
   734                           	callstack 0
   735   000038                     	ds	1
   736   000039                     __tx_buffer_head:
   737                           	callstack 0
   738   000039                     	ds	1
   739   00003A                     _USBDeferOUTDataStagePackets:
   740                           	callstack 0
   741   00003A                     	ds	1
   742   00003B                     _USBDeferINDataStagePackets:
   743                           	callstack 0
   744   00003B                     	ds	1
   745   00003C                     _USBStatusStageEnabledFlag2:
   746                           	callstack 0
   747   00003C                     	ds	1
   748   00003D                     _USBStatusStageEnabledFlag1:
   749                           	callstack 0
   750   00003D                     	ds	1
   751   00003E                     _USBDeferStatusStagePacket:
   752                           	callstack 0
   753   00003E                     	ds	1
   754   00003F                     _USBStatusStageTimeoutCounter:
   755                           	callstack 0
   756   00003F                     	ds	1
   757   000040                     _BothEP0OutUOWNsSet:
   758                           	callstack 0
   759   000040                     	ds	1
   760   000041                     _endpoint_number:
   761                           	callstack 0
   762   000041                     	ds	1
   763   000042                     _RemoteWakeup:
   764                           	callstack 0
   765   000042                     	ds	1
   766   000043                     _controlTransferState:
   767                           	callstack 0
   768   000043                     	ds	1
   769   000044                     _shortPacketStatus:
   770                           	callstack 0
   771   000044                     	ds	1
   772   000045                     _usbTimerState:
   773                           	callstack 0
   774   000045                     	ds	1
   775   000046                     _active_protocol:
   776                           	callstack 0
   777   000046                     	ds	1
   778   000047                     _idle_rate:
   779                           	callstack 0
   780   000047                     	ds	1
   781   000048                     _USTATcopy:
   782                           	callstack 0
   783   000048                     	ds	1
   784   000049                     _USBAlternateInterface:
   785                           	callstack 0
   786   000049                     	ds	1
   787   00004A                     _USBActiveConfiguration:
   788                           	callstack 0
   789   00004A                     	ds	1
   790                           
   791                           	psect	bssBANK0
   792   0000D1                     __pbssBANK0:
   793                           	callstack 0
   794   0000D1                     _outPipes:
   795                           	callstack 0
   796   0000D1                     	ds	8
   797   0000D9                     _inPipes:
   798                           	callstack 0
   799   0000D9                     	ds	6
   800   0000DF                     _USB1msTickCount:
   801                           	callstack 0
   802   0000DF                     	ds	4
   803   0000E3                     _pBDTEntryIn:
   804                           	callstack 0
   805   0000E3                     	ds	4
   806   0000E7                     _pBDTEntryOut:
   807                           	callstack 0
   808   0000E7                     	ds	4
   809   0000EB                     _width:
   810                           	callstack 0
   811   0000EB                     	ds	2
   812   0000ED                     _prec:
   813                           	callstack 0
   814   0000ED                     	ds	2
   815   0000EF                     _ep_data_out:
   816                           	callstack 0
   817   0000EF                     	ds	2
   818   0000F1                     _ep_data_in:
   819                           	callstack 0
   820   0000F1                     	ds	2
   821   0000F3                     _flags:
   822                           	callstack 0
   823   0000F3                     	ds	1
   824   0000F4                     _USBTicksSinceSuspendEnd:
   825                           	callstack 0
   826   0000F4                     	ds	1
   827   0000F5                     _USBBusIsSuspended:
   828                           	callstack 0
   829   0000F5                     	ds	1
   830                           
   831                           	psect	bssBANK1
   832   00016F                     __pbssBANK1:
   833                           	callstack 0
   834   00016F                     _USBInHandle:
   835                           	callstack 0
   836   00016F                     	ds	2
   837   000171                     _USBOutHandle:
   838                           	callstack 0
   839   000171                     	ds	2
   840   000173                     _runFlag:
   841                           	callstack 0
   842   000173                     	ds	1
   843   000174                     _USBDeviceState:
   844                           	callstack 0
   845   000174                     	ds	1
   846   000175                     _ToSendDataBuffer:
   847                           	callstack 0
   848   000175                     	ds	64
   849   0001B5                     _dbuf:
   850                           	callstack 0
   851   0001B5                     	ds	32
   852                           
   853                           	psect	bssBANK2
   854   000200                     __pbssBANK2:
   855                           	callstack 0
   856   000200                     __tx_buffer:
   857                           	callstack 0
   858   000200                     	ds	64
   859   000240                     _ReceivedDataBuffer:
   860                           	callstack 0
   861   000240                     	ds	64
   862                           
   863                           	psect	bssBIGRAM_1
   864   000430                     __pbssBIGRAM_1:
   865                           	callstack 0
   866   000430                     __rx_buffer:
   867                           	callstack 0
   868   000430                     	ds	512
   869                           
   870                           	psect	cstackBANK1
   871   000100                     __pcstackBANK1:
   872                           	callstack 0
   873   000100                     main@temp:
   874                           	callstack 0
   875                           
   876                           ; 100 bytes @ 0x0
   877   000100                     	ds	100
   878   000164                     main@w:
   879                           	callstack 0
   880                           
   881                           ; 2 bytes @ 0x64
   882   000164                     	ds	2
   883   000166                     main@w_788:
   884                           	callstack 0
   885                           
   886                           ; 2 bytes @ 0x66
   887   000166                     	ds	2
   888   000168                     main@w_790:
   889                           	callstack 0
   890                           
   891                           ; 2 bytes @ 0x68
   892   000168                     	ds	2
   893   00016A                     main@w_792:
   894                           	callstack 0
   895                           
   896                           ; 2 bytes @ 0x6A
   897   00016A                     	ds	2
   898   00016C                     main@potVoltage:
   899                           	callstack 0
   900                           
   901                           ; 2 bytes @ 0x6C
   902   00016C                     	ds	2
   903   00016E                     main@cnt:
   904                           	callstack 0
   905                           
   906                           ; 1 bytes @ 0x6E
   907   00016E                     	ds	1
   908                           
   909                           	psect	cstackBANK0
   910   000060                     __pcstackBANK0:
   911                           	callstack 0
   912   000060                     ??_myISR_low:
   913                           
   914                           ; 1 bytes @ 0x0
   915   000060                     	ds	3
   916   000063                     ?_USBTransferOnePacket:
   917                           	callstack 0
   918   000063                     ?___lldiv:
   919                           	callstack 0
   920   000063                     ?___lodiv:
   921                           	callstack 0
   922   000063                     ?___lomod:
   923                           	callstack 0
   924   000063                     USBTransferOnePacket@dir:
   925                           	callstack 0
   926   000063                     UART_write@data:
   927                           	callstack 0
   928   000063                     memset@dest:
   929                           	callstack 0
   930   000063                     fputc@c:
   931                           	callstack 0
   932   000063                     ___lldiv@dividend:
   933                           	callstack 0
   934   000063                     ___lodiv@dividend:
   935                           	callstack 0
   936   000063                     ___lomod@dividend:
   937                           	callstack 0
   938                           
   939                           ; 8 bytes @ 0x3
   940   000063                     	ds	1
   941   000064                     UART_write@i:
   942                           	callstack 0
   943   000064                     USBTransferOnePacket@data:
   944                           	callstack 0
   945                           
   946                           ; 2 bytes @ 0x4
   947   000064                     	ds	1
   948   000065                     UART_putrs@ptr:
   949                           	callstack 0
   950   000065                     UART_puts@ptr:
   951                           	callstack 0
   952   000065                     memset@c:
   953                           	callstack 0
   954   000065                     fputc@fp:
   955                           	callstack 0
   956                           
   957                           ; 2 bytes @ 0x5
   958   000065                     	ds	1
   959   000066                     USBTransferOnePacket@len:
   960                           	callstack 0
   961                           
   962                           ; 1 bytes @ 0x6
   963   000066                     	ds	1
   964   000067                     ??_USBTransferOnePacket:
   965   000067                     ??_fputc:
   966   000067                     memset@n:
   967                           	callstack 0
   968   000067                     ___lldiv@divisor:
   969                           	callstack 0
   970                           
   971                           ; 4 bytes @ 0x7
   972   000067                     	ds	2
   973   000069                     ??_memset:
   974                           
   975                           ; 1 bytes @ 0x9
   976   000069                     	ds	2
   977   00006B                     USBTransferOnePacket@ep:
   978                           	callstack 0
   979   00006B                     memset@k:
   980                           	callstack 0
   981   00006B                     ___lldiv@quotient:
   982                           	callstack 0
   983   00006B                     ___lodiv@divisor:
   984                           	callstack 0
   985   00006B                     ___lomod@divisor:
   986                           	callstack 0
   987                           
   988                           ; 8 bytes @ 0xB
   989   00006B                     	ds	1
   990   00006C                     USBTransferOnePacket@handle:
   991                           	callstack 0
   992   00006C                     fputs@s:
   993                           	callstack 0
   994                           
   995                           ; 2 bytes @ 0xC
   996   00006C                     	ds	1
   997   00006D                     memset@s:
   998                           	callstack 0
   999                           
  1000                           ; 2 bytes @ 0xD
  1001   00006D                     	ds	1
  1002   00006E                     fputs@fp:
  1003                           	callstack 0
  1004                           
  1005                           ; 2 bytes @ 0xE
  1006   00006E                     	ds	1
  1007   00006F                     USBDeviceInit@i:
  1008                           	callstack 0
  1009   00006F                     ___lldiv@counter:
  1010                           	callstack 0
  1011                           
  1012                           ; 1 bytes @ 0xF
  1013   00006F                     	ds	1
  1014   000070                     fputs@c:
  1015                           	callstack 0
  1016   000070                     UART_Init@baudRate:
  1017                           	callstack 0
  1018                           
  1019                           ; 3 bytes @ 0x10
  1020   000070                     	ds	1
  1021   000071                     fputs@i:
  1022                           	callstack 0
  1023                           
  1024                           ; 2 bytes @ 0x11
  1025   000071                     	ds	2
  1026   000073                     ??_UART_Init:
  1027   000073                     ___lomod@counter:
  1028                           	callstack 0
  1029   000073                     pad@fp:
  1030                           	callstack 0
  1031   000073                     ___lodiv@quotient:
  1032                           	callstack 0
  1033                           
  1034                           ; 8 bytes @ 0x13
  1035   000073                     	ds	2
  1036   000075                     pad@buf:
  1037                           	callstack 0
  1038                           
  1039                           ; 2 bytes @ 0x15
  1040   000075                     	ds	2
  1041   000077                     UART_Init@temp:
  1042                           	callstack 0
  1043   000077                     pad@p:
  1044                           	callstack 0
  1045                           
  1046                           ; 2 bytes @ 0x17
  1047   000077                     	ds	2
  1048   000079                     ??_pad:
  1049                           
  1050                           ; 1 bytes @ 0x19
  1051   000079                     	ds	1
  1052   00007A                     pad@i:
  1053                           	callstack 0
  1054                           
  1055                           ; 2 bytes @ 0x1A
  1056   00007A                     	ds	1
  1057   00007B                     ___lodiv@counter:
  1058                           	callstack 0
  1059                           
  1060                           ; 1 bytes @ 0x1B
  1061   00007B                     	ds	1
  1062   00007C                     pad@w:
  1063                           	callstack 0
  1064                           
  1065                           ; 2 bytes @ 0x1C
  1066   00007C                     	ds	2
  1067   00007E                     utoa@fp:
  1068                           	callstack 0
  1069                           
  1070                           ; 2 bytes @ 0x1E
  1071   00007E                     	ds	2
  1072   000080                     utoa@d:
  1073                           	callstack 0
  1074                           
  1075                           ; 8 bytes @ 0x20
  1076   000080                     	ds	8
  1077   000088                     ??_utoa:
  1078                           
  1079                           ; 1 bytes @ 0x28
  1080   000088                     	ds	8
  1081   000090                     utoa@w:
  1082                           	callstack 0
  1083                           
  1084                           ; 2 bytes @ 0x30
  1085   000090                     	ds	2
  1086   000092                     utoa@p:
  1087                           	callstack 0
  1088                           
  1089                           ; 2 bytes @ 0x32
  1090   000092                     	ds	2
  1091   000094                     utoa@n:
  1092                           	callstack 0
  1093                           
  1094                           ; 8 bytes @ 0x34
  1095   000094                     	ds	8
  1096   00009C                     utoa@i:
  1097                           	callstack 0
  1098                           
  1099                           ; 2 bytes @ 0x3C
  1100   00009C                     	ds	2
  1101   00009E                     vfpfcnvrt@fp:
  1102                           	callstack 0
  1103                           
  1104                           ; 2 bytes @ 0x3E
  1105   00009E                     	ds	2
  1106   0000A0                     vfpfcnvrt@fmt:
  1107                           	callstack 0
  1108                           
  1109                           ; 2 bytes @ 0x40
  1110   0000A0                     	ds	2
  1111   0000A2                     vfpfcnvrt@ap:
  1112                           	callstack 0
  1113                           
  1114                           ; 2 bytes @ 0x42
  1115   0000A2                     	ds	2
  1116   0000A4                     ??_vfpfcnvrt:
  1117                           
  1118                           ; 1 bytes @ 0x44
  1119   0000A4                     	ds	4
  1120   0000A8                     vfpfcnvrt@convarg:
  1121                           	callstack 0
  1122                           
  1123                           ; 8 bytes @ 0x48
  1124   0000A8                     	ds	8
  1125   0000B0                     vfpfcnvrt@cp:
  1126                           	callstack 0
  1127                           
  1128                           ; 2 bytes @ 0x50
  1129   0000B0                     	ds	2
  1130   0000B2                     ?_vfprintf:
  1131                           	callstack 0
  1132   0000B2                     vfprintf@fp:
  1133                           	callstack 0
  1134                           
  1135                           ; 2 bytes @ 0x52
  1136   0000B2                     	ds	2
  1137   0000B4                     vfprintf@fmt:
  1138                           	callstack 0
  1139                           
  1140                           ; 2 bytes @ 0x54
  1141   0000B4                     	ds	2
  1142   0000B6                     vfprintf@ap:
  1143                           	callstack 0
  1144                           
  1145                           ; 2 bytes @ 0x56
  1146   0000B6                     	ds	2
  1147   0000B8                     vfprintf@cfmt:
  1148                           	callstack 0
  1149                           
  1150                           ; 2 bytes @ 0x58
  1151   0000B8                     	ds	2
  1152   0000BA                     ?_sprintf:
  1153                           	callstack 0
  1154   0000BA                     sprintf@s:
  1155                           	callstack 0
  1156                           
  1157                           ; 2 bytes @ 0x5A
  1158   0000BA                     	ds	2
  1159   0000BC                     sprintf@fmt:
  1160                           	callstack 0
  1161                           
  1162                           ; 2 bytes @ 0x5C
  1163   0000BC                     	ds	6
  1164   0000C2                     sprintf@ap:
  1165                           	callstack 0
  1166                           
  1167                           ; 2 bytes @ 0x62
  1168   0000C2                     	ds	2
  1169   0000C4                     sprintf@f:
  1170                           	callstack 0
  1171                           
  1172                           ; 11 bytes @ 0x64
  1173   0000C4                     	ds	11
  1174   0000CF                     ??_main:
  1175                           
  1176                           ; 1 bytes @ 0x6F
  1177   0000CF                     	ds	2
  1178                           
  1179                           	psect	cstackCOMRAM
  1180   000001                     __pcstackCOMRAM:
  1181                           	callstack 0
  1182   000001                     ??_UART_rx_complete_irq:
  1183   000001                     ??_USBCheckHIDRequest:
  1184   000001                     ??_USBStdGetDscHandler:
  1185   000001                     ??_USBStdGetStatusHandler:
  1186   000001                     ?i2_USBTransferOnePacket:
  1187                           	callstack 0
  1188   000001                     USBConfigureEndpoint@direction:
  1189                           	callstack 0
  1190   000001                     USBCtrlTrfTxService@byteToSend:
  1191                           	callstack 0
  1192   000001                     USBCtrlTrfRxService@i:
  1193                           	callstack 0
  1194   000001                     UART_tx_udr_empty_irq@c:
  1195                           	callstack 0
  1196   000001                     i2USBTransferOnePacket@dir:
  1197                           	callstack 0
  1198   000001                     memcpy@d1:
  1199                           	callstack 0
  1200   000001                     i2memset@dest:
  1201                           	callstack 0
  1202                           
  1203                           ; 2 bytes @ 0x0
  1204   000001                     	ds	1
  1205   000002                     ??_USBConfigureEndpoint:
  1206   000002                     USBCtrlTrfRxService@byteToRead:
  1207                           	callstack 0
  1208   000002                     USBCtrlTrfInHandler@lastDTS:
  1209                           	callstack 0
  1210   000002                     i2USBTransferOnePacket@data:
  1211                           	callstack 0
  1212                           
  1213                           ; 2 bytes @ 0x1
  1214   000002                     	ds	1
  1215   000003                     UART_rx_complete_irq@c:
  1216                           	callstack 0
  1217   000003                     USBStdGetStatusHandler@p:
  1218                           	callstack 0
  1219   000003                     memcpy@s1:
  1220                           	callstack 0
  1221   000003                     i2memset@c:
  1222                           	callstack 0
  1223                           
  1224                           ; 2 bytes @ 0x2
  1225   000003                     	ds	1
  1226   000004                     i2USBTransferOnePacket@len:
  1227                           	callstack 0
  1228   000004                     UART_rx_complete_irq@i:
  1229                           	callstack 0
  1230                           
  1231                           ; 2 bytes @ 0x3
  1232   000004                     	ds	1
  1233   000005                     ??i2_USBTransferOnePacket:
  1234   000005                     memcpy@n:
  1235                           	callstack 0
  1236   000005                     i2memset@n:
  1237                           	callstack 0
  1238                           
  1239                           ; 2 bytes @ 0x4
  1240   000005                     	ds	2
  1241   000007                     ??i2_memset:
  1242   000007                     memcpy@d:
  1243                           	callstack 0
  1244                           
  1245                           ; 2 bytes @ 0x6
  1246   000007                     	ds	1
  1247   000008                     USBConfigureEndpoint@EPNum:
  1248                           	callstack 0
  1249                           
  1250                           ; 1 bytes @ 0x7
  1251   000008                     	ds	1
  1252   000009                     i2USBTransferOnePacket@ep:
  1253                           	callstack 0
  1254   000009                     USBConfigureEndpoint@handle:
  1255                           	callstack 0
  1256   000009                     memcpy@s:
  1257                           	callstack 0
  1258   000009                     i2memset@k:
  1259                           	callstack 0
  1260                           
  1261                           ; 2 bytes @ 0x8
  1262   000009                     	ds	1
  1263   00000A                     i2USBTransferOnePacket@handle:
  1264                           	callstack 0
  1265                           
  1266                           ; 2 bytes @ 0x9
  1267   00000A                     	ds	1
  1268   00000B                     USBEnableEndpoint@options:
  1269                           	callstack 0
  1270   00000B                     memcpy@tmp:
  1271                           	callstack 0
  1272   00000B                     i2memset@s:
  1273                           	callstack 0
  1274                           
  1275                           ; 2 bytes @ 0xA
  1276   00000B                     	ds	1
  1277   00000C                     USBEnableEndpoint@p:
  1278                           	callstack 0
  1279                           
  1280                           ; 2 bytes @ 0xB
  1281   00000C                     	ds	1
  1282   00000D                     i2USBDeviceInit@i:
  1283                           	callstack 0
  1284                           
  1285                           ; 1 bytes @ 0xC
  1286   00000D                     	ds	1
  1287   00000E                     USBEnableEndpoint@ep:
  1288                           	callstack 0
  1289                           
  1290                           ; 1 bytes @ 0xD
  1291   00000E                     	ds	1
  1292   00000F                     USER_USB_CALLBACK_EVENT_HANDLER@event:
  1293                           	callstack 0
  1294                           
  1295                           ; 2 bytes @ 0xE
  1296   00000F                     	ds	2
  1297   000011                     USER_USB_CALLBACK_EVENT_HANDLER@pdata:
  1298                           	callstack 0
  1299                           
  1300                           ; 2 bytes @ 0x10
  1301   000011                     	ds	2
  1302   000013                     USER_USB_CALLBACK_EVENT_HANDLER@size:
  1303                           	callstack 0
  1304                           
  1305                           ; 2 bytes @ 0x12
  1306   000013                     	ds	2
  1307   000015                     ??_USER_USB_CALLBACK_EVENT_HANDLER:
  1308                           
  1309                           ; 1 bytes @ 0x14
  1310   000015                     	ds	2
  1311   000017                     ??_USBStdFeatureReqHandler:
  1312   000017                     USBStdSetCfgHandler@i:
  1313                           	callstack 0
  1314                           
  1315                           ; 1 bytes @ 0x16
  1316   000017                     	ds	2
  1317   000019                     USBStdFeatureReqHandler@pUEP:
  1318                           	callstack 0
  1319                           
  1320                           ; 2 bytes @ 0x18
  1321   000019                     	ds	2
  1322   00001B                     USBStdFeatureReqHandler@current_ep_data:
  1323                           	callstack 0
  1324                           
  1325                           ; 1 bytes @ 0x1A
  1326   00001B                     	ds	1
  1327   00001C                     USBStdFeatureReqHandler@p:
  1328                           	callstack 0
  1329                           
  1330                           ; 2 bytes @ 0x1B
  1331   00001C                     	ds	2
  1332   00001E                     ??_USBCheckStdRequest:
  1333                           
  1334                           ; 1 bytes @ 0x1D
  1335   00001E                     	ds	2
  1336   000020                     ??_USBCtrlEPService:
  1337   000020                     
  1338                           ; 1 bytes @ 0x1F
  1339   000020                     	ds	1
  1340   000021                     USBDeviceTasks@i:
  1341                           	callstack 0
  1342                           
  1343                           ; 1 bytes @ 0x20
  1344   000021                     	ds	1
  1345   000022                     ??_myISR_high:
  1346                           
  1347                           ; 1 bytes @ 0x21
  1348   000022                     	ds	12
  1349                           
  1350 ;;
  1351 ;;Main: autosize = 0, tempsize = 2, incstack = 0, save=0
  1352 ;;
  1353 ;; *************** function _main *****************
  1354 ;; Defined at:
  1355 ;;		line 127 in file "main.c"
  1356 ;; Parameters:    Size  Location     Type
  1357 ;;		None
  1358 ;; Auto vars:     Size  Location     Type
  1359 ;;  temp          100    0[BANK1 ] unsigned char [100]
  1360 ;;  cnt             1  110[BANK1 ] unsigned char 
  1361 ;;  w               2  106[BANK1 ] unsigned short 
  1362 ;;  w               2  104[BANK1 ] unsigned short 
  1363 ;;  w               2  102[BANK1 ] unsigned short 
  1364 ;;  w               2  100[BANK1 ] unsigned short 
  1365 ;;  potVoltage      2  108[BANK1 ] unsigned short 
  1366 ;; Return value:  Size  Location     Type
  1367 ;;                  1    wreg      void 
  1368 ;; Registers used:
  1369 ;;		wreg, fsr1l, fsr1h, fsr2l, fsr2h, status,2, status,0, tblptrl, tblptrh, tblptru, prodl, prodh, cstack
  1370 ;; Tracked objects:
  1371 ;;		On entry : 0/0
  1372 ;;		On exit  : 0/0
  1373 ;;		Unchanged: 0/0
  1374 ;; Data sizes:     COMRAM   BANK0   BANK1   BANK2   BANK3   BANK4   BANK5   BANK6   BANK7
  1375 ;;      Params:         0       0       0       0       0       0       0       0       0
  1376 ;;      Locals:         0       0     111       0       0       0       0       0       0
  1377 ;;      Temps:          0       2       0       0       0       0       0       0       0
  1378 ;;      Totals:         0       2     111       0       0       0       0       0       0
  1379 ;;Total ram usage:      113 bytes
  1380 ;; Hardware stack levels required when called: 19
  1381 ;; This function calls:
  1382 ;;		_Enable_Interrupt
  1383 ;;		_InitializeSystem
  1384 ;;		_Interrupt_Init
  1385 ;;		_UART_Init
  1386 ;;		_UART_putrs
  1387 ;;		_UART_puts
  1388 ;;		_USBTransferOnePacket
  1389 ;;		_gpioInitialize
  1390 ;;		_sprintf
  1391 ;;		_timer1_Init
  1392 ;;		_timerStart
  1393 ;;		_timerZero_Init
  1394 ;; This function is called by:
  1395 ;;		Startup code after reset
  1396 ;; This function uses a non-reentrant model
  1397 ;;
  1398                           
  1399                           	psect	text0
  1400   000068                     __ptext0:
  1401                           	callstack 0
  1402   000068                     _main:
  1403                           	callstack 12
  1404   000068                     
  1405                           ;main.c: 129: 
  1406   000068  EC8B  F018         	call	_gpioInitialize	;wreg free
  1407   00006C                     
  1408                           ;main.c: 131:                         }
  1409   00006C  EC6D  F018         	call	_timerZero_Init	;wreg free
  1410   000070                     
  1411                           ;main.c: 133:                         break;
  1412   000070  EC92  F018         	call	_Interrupt_Init	;wreg free
  1413   000074                     
  1414                           ;main.c: 135:                     case 0x30:
  1415   000074  EC9E  F018         	call	_timerStart	;wreg free
  1416   000078                     
  1417                           ;main.c: 137:                         uint16_t w;
  1418   000078  EC77  F018         	call	_timer1_Init	;wreg free
  1419   00007C                     
  1420                           ;main.c: 139:                         if (!((USBInHandle != 0x0000) && ((*(volatile uint
      +                          8_t*)USBInHandle & 0x80) != 0x00))) {
  1421   00007C  ECA2  F018         	call	_Enable_Interrupt	;wreg free
  1422   000080                     
  1423                           ;main.c: 143:                             ToSendDataBuffer[1] = (BYTE) w;
  1424   000080  EC99  F018         	call	_InitializeSystem	;wreg free
  1425   000084                     
  1426                           ;main.c: 144:                             ToSendDataBuffer[2] = (BYTE) (w >> 8);
  1427   000084  9EF2               	bcf	242,7,c	;volatile
  1428   000086                     
  1429                           ;main.c: 145: 
  1430   000086  0E01               	movlw	1
  1431   000088  6E45               	movwf	_usbTimerState^0,c
  1432   00008A                     
  1433                           ;main.c: 146:                             USBInHandle = USBTransferOnePacket(1,1,(BYTE*)
      +                           & ToSendDataBuffer[0],64);
  1434   00008A  8EF2               	bsf	242,7,c	;volatile
  1435   00008C                     
  1436                           ;main.c: 149:                         break;
  1437   00008C  0E00               	movlw	0
  1438   00008E  0100               	movlb	0	; () banked
  1439   000090  6F70               	movwf	UART_Init@baudRate& (0+255),b
  1440   000092  0EC2               	movlw	194
  1441   000094  6F71               	movwf	(UART_Init@baudRate+1)& (0+255),b
  1442   000096  0E01               	movlw	1
  1443   000098  6F72               	movwf	(UART_Init@baudRate+2)& (0+255),b
  1444   00009A  ECAA  F006         	call	_UART_Init	;wreg free
  1445   00009E                     
  1446                           ;main.c: 151:                     case 0x31:
  1447   00009E  0E23               	movlw	low STR_1
  1448   0000A0  0100               	movlb	0	; () banked
  1449   0000A2  6F65               	movwf	UART_putrs@ptr& (0+255),b
  1450   0000A4  0E7D               	movlw	high STR_1
  1451   0000A6  6F66               	movwf	(UART_putrs@ptr+1)& (0+255),b
  1452   0000A8  ECBF  F017         	call	_UART_putrs	;wreg free
  1453   0000AC                     l131:
  1454   0000AC  0004               	clrwdt		;# 
  1455   0000AE                     
  1456                           ;main.c: 155:                         if (!((USBInHandle != 0x0000) && ((*(volatile uint
      +                          8_t*)USBInHandle & 0x80) != 0x00))) {
  1457   0000AE  0101               	movlb	1	; () banked
  1458   0000B0  0573               	decf	_runFlag& (0+255),w,b	;volatile
  1459   0000B2  A4D8               	btfss	status,2,c
  1460   0000B4  EF5E  F000         	goto	u4621
  1461   0000B8  EF60  F000         	goto	u4620
  1462   0000BC                     u4621:
  1463   0000BC  EF69  F000         	goto	l5807
  1464   0000C0                     u4620:
  1465   0000C0                     
  1466                           ; BSR set to: 1
  1467                           ;main.c: 156: 
  1468   0000C0  0E00               	movlw	0
  1469   0000C2  6F73               	movwf	_runFlag& (0+255),b	;volatile
  1470   0000C4                     
  1471                           ; BSR set to: 1
  1472                           ;main.c: 157: 
  1473   0000C4  0E23               	movlw	low STR_1
  1474   0000C6  0100               	movlb	0	; () banked
  1475   0000C8  6F65               	movwf	UART_putrs@ptr& (0+255),b
  1476   0000CA  0E7D               	movlw	high STR_1
  1477   0000CC  6F66               	movwf	(UART_putrs@ptr+1)& (0+255),b
  1478   0000CE  ECBF  F017         	call	_UART_putrs	;wreg free
  1479   0000D2                     l5807:
  1480                           
  1481                           ;main.c: 160:                             ToSendDataBuffer[2] = (BYTE) (w >> 8);
  1482   0000D2  0E1F               	movlw	31
  1483   0000D4  0101               	movlb	1	; () banked
  1484   0000D6  6574               	cpfsgt	_USBDeviceState& (0+255),b
  1485   0000D8  EF70  F000         	goto	u4631
  1486   0000DC  EF72  F000         	goto	u4630
  1487   0000E0                     u4631:
  1488   0000E0  EF56  F000         	goto	l131
  1489   0000E4                     u4630:
  1490   0000E4                     
  1491                           ; BSR set to: 1
  1492   0000E4  A26D               	btfss	109,1,c	;volatile
  1493   0000E6  EF77  F000         	goto	u4641
  1494   0000EA  EF79  F000         	goto	u4640
  1495   0000EE                     u4641:
  1496   0000EE  EF7B  F000         	goto	l5811
  1497   0000F2                     u4640:
  1498   0000F2  EF56  F000         	goto	l131
  1499   0000F6                     l5811:
  1500                           
  1501                           ; BSR set to: 1
  1502                           ;main.c: 164:                     }
  1503   0000F6  5171               	movf	_USBOutHandle& (0+255),w,b
  1504   0000F8  1172               	iorwf	(_USBOutHandle+1)& (0+255),w,b
  1505   0000FA  B4D8               	btfsc	status,2,c
  1506   0000FC  EF82  F000         	goto	u4651
  1507   000100  EF84  F000         	goto	u4650
  1508   000104                     u4651:
  1509   000104  EF8F  F000         	goto	l5815
  1510   000108                     u4650:
  1511   000108                     
  1512                           ; BSR set to: 1
  1513   000108  C171  FFD9         	movff	_USBOutHandle,fsr2l
  1514   00010C  C172  FFDA         	movff	_USBOutHandle+1,fsr2h
  1515   000110  BEDF               	btfsc	indf2,7,c
  1516   000112  EF8D  F000         	goto	u4661
  1517   000116  EF8F  F000         	goto	u4660
  1518   00011A                     u4661:
  1519   00011A  EF56  F000         	goto	l131
  1520   00011E                     u4660:
  1521   00011E                     l5815:
  1522                           
  1523                           ; BSR set to: 1
  1524                           ;main.c: 165:                         break;;main.c: 167:                     case 0x32:
  1525   00011E  0E00               	movlw	0
  1526   000120  0100               	movlb	0	; () banked
  1527   000122  6F63               	movwf	USBTransferOnePacket@dir& (0+255),b
  1528   000124  0E40               	movlw	low _ReceivedDataBuffer
  1529   000126  6F64               	movwf	USBTransferOnePacket@data& (0+255),b
  1530   000128  0E02               	movlw	high _ReceivedDataBuffer
  1531   00012A  6F65               	movwf	(USBTransferOnePacket@data+1)& (0+255),b
  1532   00012C  0E40               	movlw	64
  1533   00012E  6F66               	movwf	USBTransferOnePacket@len& (0+255),b
  1534   000130  0E01               	movlw	1
  1535   000132  EC08  F00D         	call	_USBTransferOnePacket
  1536   000136  C063  F171         	movff	?_USBTransferOnePacket,_USBOutHandle
  1537   00013A  C064  F172         	movff	?_USBTransferOnePacket+1,_USBOutHandle+1
  1538                           
  1539                           ;main.c: 168:                     {
  1540   00013E  EFBB  F002         	goto	l5943
  1541   000142                     l5817:
  1542                           
  1543                           ; BSR set to: 0
  1544                           ;main.c: 171:                         if (!((USBInHandle != 0x0000) && ((*(volatile uint
      +                          8_t*)USBInHandle & 0x80) != 0x00))) {;main.c: 172: 
  1545   000142  0E23               	movlw	low STR_3
  1546   000144  6F65               	movwf	UART_putrs@ptr& (0+255),b
  1547   000146  0E7C               	movlw	high STR_3
  1548   000148  6F66               	movwf	(UART_putrs@ptr+1)& (0+255),b
  1549   00014A  ECBF  F017         	call	_UART_putrs	;wreg free
  1550                           
  1551                           ;main.c: 173: ;main.c: 174:                             ToSendDataBuffer[0] = 0x32;
  1552   00014E  EF56  F000         	goto	l131
  1553   000152                     l5819:
  1554                           
  1555                           ; BSR set to: 0
  1556                           ;main.c: 177: ;main.c: 178:                             USBInHandle = USBTransferOnePack
      +                          et(1,1,(BYTE*) & ToSendDataBuffer[0],64);;main.c: 179:                         }
  1557   000152  0E03               	movlw	low STR_4
  1558   000154  6F65               	movwf	UART_putrs@ptr& (0+255),b
  1559   000156  0E7D               	movlw	high STR_4
  1560   000158  6F66               	movwf	(UART_putrs@ptr+1)& (0+255),b
  1561   00015A  ECBF  F017         	call	_UART_putrs	;wreg free
  1562   00015E                     
  1563                           ;main.c: 180:                     }
  1564   00015E  0101               	movlb	1	; () banked
  1565   000160  516F               	movf	_USBInHandle& (0+255),w,b
  1566   000162  1170               	iorwf	(_USBInHandle+1)& (0+255),w,b
  1567   000164  B4D8               	btfsc	status,2,c
  1568   000166  EFB7  F000         	goto	u4671
  1569   00016A  EFB9  F000         	goto	u4670
  1570   00016E                     u4671:
  1571   00016E  EFC4  F000         	goto	l5825
  1572   000172                     u4670:
  1573   000172                     
  1574                           ; BSR set to: 1
  1575   000172  C16F  FFD9         	movff	_USBInHandle,fsr2l
  1576   000176  C170  FFDA         	movff	_USBInHandle+1,fsr2h
  1577   00017A  BEDF               	btfsc	indf2,7,c
  1578   00017C  EFC2  F000         	goto	u4681
  1579   000180  EFC4  F000         	goto	u4680
  1580   000184                     u4681:
  1581   000184  EF56  F000         	goto	l131
  1582   000188                     u4680:
  1583   000188                     l5825:
  1584                           
  1585                           ; BSR set to: 1
  1586                           ;main.c: 182: 
  1587   000188  50C2               	movf	194,w,c	;volatile
  1588   00018A  0BC3               	andlw	-61
  1589   00018C  0910               	iorlw	16
  1590   00018E  6EC2               	movwf	194,c	;volatile
  1591   000190                     
  1592                           ; BSR set to: 1
  1593                           ;main.c: 185:                         uint16_t w;
  1594   000190  9C9E               	bcf	158,6,c	;volatile
  1595   000192                     
  1596                           ; BSR set to: 1
  1597                           ;main.c: 188: 
  1598   000192  82C2               	bsf	194,1,c	;volatile
  1599   000194                     l147:
  1600   000194  AC9E               	btfss	158,6,c	;volatile
  1601   000196  EFCF  F000         	goto	u4691
  1602   00019A  EFD1  F000         	goto	u4690
  1603   00019E                     u4691:
  1604   00019E  EFCA  F000         	goto	l147
  1605   0001A2                     u4690:
  1606   0001A2                     
  1607                           ;main.c: 193: 
  1608   0001A2  CFC3 F16C          	movff	4035,main@potVoltage	;volatile
  1609   0001A6  CFC4 F16D          	movff	4036,main@potVoltage+1	;volatile
  1610   0001AA                     
  1611                           ;main.c: 195:                         }
  1612   0001AA  0E20               	movlw	32
  1613   0001AC  0101               	movlb	1	; () banked
  1614   0001AE  6F75               	movwf	_ToSendDataBuffer& (0+255),b
  1615   0001B0                     
  1616                           ; BSR set to: 1
  1617                           ;main.c: 196:                     }
  1618   0001B0  C16C  F176         	movff	main@potVoltage,_ToSendDataBuffer+1
  1619                           
  1620                           ;main.c: 197:                         break;
  1621   0001B4  516D               	movf	(main@potVoltage+1)& (0+255),w,b
  1622   0001B6  6F77               	movwf	(_ToSendDataBuffer+2)& (0+255),b
  1623   0001B8                     
  1624                           ; BSR set to: 1
  1625                           ;main.c: 199:                     case 0x40:
  1626   0001B8  0E01               	movlw	1
  1627   0001BA  0100               	movlb	0	; () banked
  1628   0001BC  6F63               	movwf	USBTransferOnePacket@dir& (0+255),b
  1629   0001BE  0E75               	movlw	low _ToSendDataBuffer
  1630   0001C0  6F64               	movwf	USBTransferOnePacket@data& (0+255),b
  1631   0001C2  0E01               	movlw	high _ToSendDataBuffer
  1632   0001C4  6F65               	movwf	(USBTransferOnePacket@data+1)& (0+255),b
  1633   0001C6  0E40               	movlw	64
  1634   0001C8  6F66               	movwf	USBTransferOnePacket@len& (0+255),b
  1635   0001CA  0E01               	movlw	1
  1636   0001CC  EC08  F00D         	call	_USBTransferOnePacket
  1637   0001D0  C063  F16F         	movff	?_USBTransferOnePacket,_USBInHandle
  1638   0001D4  C064  F170         	movff	?_USBTransferOnePacket+1,_USBInHandle+1
  1639   0001D8  EF56  F000         	goto	l131
  1640   0001DC                     l5837:
  1641                           
  1642                           ; BSR set to: 0
  1643                           ;main.c: 205: ;main.c: 206:                             ToSendDataBuffer[0] = 0x40;;main
      +                          .c: 207:                             ToSendDataBuffer[1] = (BYTE) 0;
  1644   0001DC  0E3F               	movlw	low STR_5
  1645   0001DE  6F65               	movwf	UART_putrs@ptr& (0+255),b
  1646   0001E0  0E7C               	movlw	high STR_5
  1647   0001E2  6F66               	movwf	(UART_putrs@ptr+1)& (0+255),b
  1648   0001E4  ECBF  F017         	call	_UART_putrs	;wreg free
  1649   0001E8                     
  1650                           ;main.c: 208:                             ToSendDataBuffer[2] = (BYTE) 1;
  1651   0001E8  0101               	movlb	1	; () banked
  1652   0001EA  516F               	movf	_USBInHandle& (0+255),w,b
  1653   0001EC  1170               	iorwf	(_USBInHandle+1)& (0+255),w,b
  1654   0001EE  B4D8               	btfsc	status,2,c
  1655   0001F0  EFFC  F000         	goto	u4701
  1656   0001F4  EFFE  F000         	goto	u4700
  1657   0001F8                     u4701:
  1658   0001F8  EF09  F001         	goto	l5843
  1659   0001FC                     u4700:
  1660   0001FC                     
  1661                           ; BSR set to: 1
  1662   0001FC  C16F  FFD9         	movff	_USBInHandle,fsr2l
  1663   000200  C170  FFDA         	movff	_USBInHandle+1,fsr2h
  1664   000204  BEDF               	btfsc	indf2,7,c
  1665   000206  EF07  F001         	goto	u4711
  1666   00020A  EF09  F001         	goto	u4710
  1667   00020E                     u4711:
  1668   00020E  EF56  F000         	goto	l131
  1669   000212                     u4710:
  1670   000212                     l5843:
  1671                           
  1672                           ; BSR set to: 1
  1673                           ;main.c: 211:                         }
  1674   000212  0E30               	movlw	48
  1675   000214  6F75               	movwf	_ToSendDataBuffer& (0+255),b
  1676   000216                     
  1677                           ; BSR set to: 1
  1678                           ;main.c: 212:                     }
  1679   000216  C164  F176         	movff	main@w,_ToSendDataBuffer+1
  1680                           
  1681                           ;main.c: 213:                         break;
  1682   00021A  5165               	movf	(main@w+1)& (0+255),w,b
  1683   00021C  6F77               	movwf	(_ToSendDataBuffer+2)& (0+255),b
  1684   00021E                     
  1685                           ; BSR set to: 1
  1686                           ;main.c: 215:                     case 0x41:
  1687   00021E  0E01               	movlw	1
  1688   000220  0100               	movlb	0	; () banked
  1689   000222  6F63               	movwf	USBTransferOnePacket@dir& (0+255),b
  1690   000224  0E75               	movlw	low _ToSendDataBuffer
  1691   000226  6F64               	movwf	USBTransferOnePacket@data& (0+255),b
  1692   000228  0E01               	movlw	high _ToSendDataBuffer
  1693   00022A  6F65               	movwf	(USBTransferOnePacket@data+1)& (0+255),b
  1694   00022C  0E40               	movlw	64
  1695   00022E  6F66               	movwf	USBTransferOnePacket@len& (0+255),b
  1696   000230  0E01               	movlw	1
  1697   000232  EC08  F00D         	call	_USBTransferOnePacket
  1698   000236  C063  F16F         	movff	?_USBTransferOnePacket,_USBInHandle
  1699   00023A  C064  F170         	movff	?_USBTransferOnePacket+1,_USBInHandle+1
  1700   00023E  EF56  F000         	goto	l131
  1701   000242                     l5849:
  1702                           
  1703                           ; BSR set to: 0
  1704                           ;main.c: 221: ;main.c: 222: ;main.c: 223: 
  1705   000242  0E59               	movlw	low STR_6
  1706   000244  6F65               	movwf	UART_putrs@ptr& (0+255),b
  1707   000246  0E7C               	movlw	high STR_6
  1708   000248  6F66               	movwf	(UART_putrs@ptr+1)& (0+255),b
  1709   00024A  ECBF  F017         	call	_UART_putrs	;wreg free
  1710   00024E                     
  1711                           ;main.c: 224:                             ToSendDataBuffer[0] = 0x41;
  1712   00024E  0101               	movlb	1	; () banked
  1713   000250  516F               	movf	_USBInHandle& (0+255),w,b
  1714   000252  1170               	iorwf	(_USBInHandle+1)& (0+255),w,b
  1715   000254  B4D8               	btfsc	status,2,c
  1716   000256  EF2F  F001         	goto	u4721
  1717   00025A  EF31  F001         	goto	u4720
  1718   00025E                     u4721:
  1719   00025E  EF3C  F001         	goto	l5855
  1720   000262                     u4720:
  1721   000262                     
  1722                           ; BSR set to: 1
  1723   000262  C16F  FFD9         	movff	_USBInHandle,fsr2l
  1724   000266  C170  FFDA         	movff	_USBInHandle+1,fsr2h
  1725   00026A  BEDF               	btfsc	indf2,7,c
  1726   00026C  EF3A  F001         	goto	u4731
  1727   000270  EF3C  F001         	goto	u4730
  1728   000274                     u4731:
  1729   000274  EF56  F000         	goto	l131
  1730   000278                     u4730:
  1731   000278                     l5855:
  1732                           
  1733                           ; BSR set to: 1
  1734                           ;main.c: 227: 
  1735   000278  0E31               	movlw	49
  1736   00027A  6F75               	movwf	_ToSendDataBuffer& (0+255),b
  1737   00027C                     
  1738                           ; BSR set to: 1
  1739                           ;main.c: 228:                             USBInHandle = USBTransferOnePacket(1,1,(BYTE*)
      +                           & ToSendDataBuffer[0],64);
  1740   00027C  C166  F176         	movff	main@w_788,_ToSendDataBuffer+1
  1741                           
  1742                           ;main.c: 229:                         }
  1743   000280  5167               	movf	(main@w_788+1)& (0+255),w,b
  1744   000282  6F77               	movwf	(_ToSendDataBuffer+2)& (0+255),b
  1745   000284                     
  1746                           ; BSR set to: 1
  1747                           ;main.c: 231:                         break;
  1748   000284  0E01               	movlw	1
  1749   000286  0100               	movlb	0	; () banked
  1750   000288  6F63               	movwf	USBTransferOnePacket@dir& (0+255),b
  1751   00028A  0E75               	movlw	low _ToSendDataBuffer
  1752   00028C  6F64               	movwf	USBTransferOnePacket@data& (0+255),b
  1753   00028E  0E01               	movlw	high _ToSendDataBuffer
  1754   000290  6F65               	movwf	(USBTransferOnePacket@data+1)& (0+255),b
  1755   000292  0E40               	movlw	64
  1756   000294  6F66               	movwf	USBTransferOnePacket@len& (0+255),b
  1757   000296  0E01               	movlw	1
  1758   000298  EC08  F00D         	call	_USBTransferOnePacket
  1759   00029C  C063  F16F         	movff	?_USBTransferOnePacket,_USBInHandle
  1760   0002A0  C064  F170         	movff	?_USBTransferOnePacket+1,_USBInHandle+1
  1761   0002A4  EF56  F000         	goto	l131
  1762   0002A8                     l5861:
  1763                           
  1764                           ; BSR set to: 0
  1765                           ;main.c: 237:                         UART_putrs("BMA150_REG regZ_MSB...");;main.c: 238:
      +                                                   if (!((USBInHandle != 0x0000) && ((*(volatile uint8_t*)USBInHan
      +                          dle & 0x80) != 0x00))) {;main.c: 239: 
  1766   0002A8  0E73               	movlw	low STR_7
  1767   0002AA  6F65               	movwf	UART_putrs@ptr& (0+255),b
  1768   0002AC  0E7C               	movlw	high STR_7
  1769   0002AE  6F66               	movwf	(UART_putrs@ptr+1)& (0+255),b
  1770   0002B0  ECBF  F017         	call	_UART_putrs	;wreg free
  1771   0002B4                     
  1772                           ;main.c: 240: 
  1773   0002B4  0101               	movlb	1	; () banked
  1774   0002B6  516F               	movf	_USBInHandle& (0+255),w,b
  1775   0002B8  1170               	iorwf	(_USBInHandle+1)& (0+255),w,b
  1776   0002BA  B4D8               	btfsc	status,2,c
  1777   0002BC  EF62  F001         	goto	u4741
  1778   0002C0  EF64  F001         	goto	u4740
  1779   0002C4                     u4741:
  1780   0002C4  EF6F  F001         	goto	l5867
  1781   0002C8                     u4740:
  1782   0002C8                     
  1783                           ; BSR set to: 1
  1784   0002C8  C16F  FFD9         	movff	_USBInHandle,fsr2l
  1785   0002CC  C170  FFDA         	movff	_USBInHandle+1,fsr2h
  1786   0002D0  BEDF               	btfsc	indf2,7,c
  1787   0002D2  EF6D  F001         	goto	u4751
  1788   0002D6  EF6F  F001         	goto	u4750
  1789   0002DA                     u4751:
  1790   0002DA  EF56  F000         	goto	l131
  1791   0002DE                     u4750:
  1792   0002DE                     l5867:
  1793                           
  1794                           ; BSR set to: 1
  1795                           ;main.c: 243:                             ToSendDataBuffer[1] = (BYTE) 6;
  1796   0002DE  0E32               	movlw	50
  1797   0002E0  6F75               	movwf	_ToSendDataBuffer& (0+255),b
  1798   0002E2                     
  1799                           ; BSR set to: 1
  1800                           ;main.c: 244:                             ToSendDataBuffer[2] = (BYTE) 8;
  1801   0002E2  C168  F176         	movff	main@w_790,_ToSendDataBuffer+1
  1802                           
  1803                           ;main.c: 245: 
  1804   0002E6  5169               	movf	(main@w_790+1)& (0+255),w,b
  1805   0002E8  6F77               	movwf	(_ToSendDataBuffer+2)& (0+255),b
  1806   0002EA                     
  1807                           ; BSR set to: 1
  1808                           ;main.c: 247:                         }
  1809   0002EA  0E01               	movlw	1
  1810   0002EC  0100               	movlb	0	; () banked
  1811   0002EE  6F63               	movwf	USBTransferOnePacket@dir& (0+255),b
  1812   0002F0  0E75               	movlw	low _ToSendDataBuffer
  1813   0002F2  6F64               	movwf	USBTransferOnePacket@data& (0+255),b
  1814   0002F4  0E01               	movlw	high _ToSendDataBuffer
  1815   0002F6  6F65               	movwf	(USBTransferOnePacket@data+1)& (0+255),b
  1816   0002F8  0E40               	movlw	64
  1817   0002FA  6F66               	movwf	USBTransferOnePacket@len& (0+255),b
  1818   0002FC  0E01               	movlw	1
  1819   0002FE  EC08  F00D         	call	_USBTransferOnePacket
  1820   000302  C063  F16F         	movff	?_USBTransferOnePacket,_USBInHandle
  1821   000306  C064  F170         	movff	?_USBTransferOnePacket+1,_USBInHandle+1
  1822   00030A  EF56  F000         	goto	l131
  1823   00030E                     l5873:
  1824                           
  1825                           ; BSR set to: 0
  1826                           ;main.c: 253: ;main.c: 254:                         UART_putrs("BMA150_REG regT_MSB...")
      +                          ;;main.c: 255:                         if (!((USBInHandle != 0x0000) && ((*(volatile uin
      +                          t8_t*)USBInHandle & 0x80) != 0x00))) {
  1827   00030E  0E8D               	movlw	low STR_8
  1828   000310  6F65               	movwf	UART_putrs@ptr& (0+255),b
  1829   000312  0E7C               	movlw	high STR_8
  1830   000314  6F66               	movwf	(UART_putrs@ptr+1)& (0+255),b
  1831   000316  ECBF  F017         	call	_UART_putrs	;wreg free
  1832   00031A                     
  1833                           ;main.c: 256: 
  1834   00031A  0101               	movlb	1	; () banked
  1835   00031C  516F               	movf	_USBInHandle& (0+255),w,b
  1836   00031E  1170               	iorwf	(_USBInHandle+1)& (0+255),w,b
  1837   000320  B4D8               	btfsc	status,2,c
  1838   000322  EF95  F001         	goto	u4761
  1839   000326  EF97  F001         	goto	u4760
  1840   00032A                     u4761:
  1841   00032A  EFA2  F001         	goto	l5879
  1842   00032E                     u4760:
  1843   00032E                     
  1844                           ; BSR set to: 1
  1845   00032E  C16F  FFD9         	movff	_USBInHandle,fsr2l
  1846   000332  C170  FFDA         	movff	_USBInHandle+1,fsr2h
  1847   000336  BEDF               	btfsc	indf2,7,c
  1848   000338  EFA0  F001         	goto	u4771
  1849   00033C  EFA2  F001         	goto	u4770
  1850   000340                     u4771:
  1851   000340  EF56  F000         	goto	l131
  1852   000344                     u4770:
  1853   000344                     l5879:
  1854                           
  1855                           ; BSR set to: 1
  1856                           ;main.c: 259:                             ToSendDataBuffer[1] = (BYTE) 5;
  1857   000344  0E33               	movlw	51
  1858   000346  6F75               	movwf	_ToSendDataBuffer& (0+255),b
  1859   000348                     
  1860                           ; BSR set to: 1
  1861                           ;main.c: 260:                             USBInHandle = USBTransferOnePacket(1,1,(BYTE*)
      +                           & ToSendDataBuffer[0],64);
  1862   000348  C16A  F176         	movff	main@w_792,_ToSendDataBuffer+1
  1863                           
  1864                           ;main.c: 261:                         }
  1865   00034C  516B               	movf	(main@w_792+1)& (0+255),w,b
  1866   00034E  6F77               	movwf	(_ToSendDataBuffer+2)& (0+255),b
  1867   000350                     
  1868                           ; BSR set to: 1
  1869                           ;main.c: 263:                         break;
  1870   000350  0E01               	movlw	1
  1871   000352  0100               	movlb	0	; () banked
  1872   000354  6F63               	movwf	USBTransferOnePacket@dir& (0+255),b
  1873   000356  0E75               	movlw	low _ToSendDataBuffer
  1874   000358  6F64               	movwf	USBTransferOnePacket@data& (0+255),b
  1875   00035A  0E01               	movlw	high _ToSendDataBuffer
  1876   00035C  6F65               	movwf	(USBTransferOnePacket@data+1)& (0+255),b
  1877   00035E  0E40               	movlw	64
  1878   000360  6F66               	movwf	USBTransferOnePacket@len& (0+255),b
  1879   000362  0E01               	movlw	1
  1880   000364  EC08  F00D         	call	_USBTransferOnePacket
  1881   000368  C063  F16F         	movff	?_USBTransferOnePacket,_USBInHandle
  1882   00036C  C064  F170         	movff	?_USBTransferOnePacket+1,_USBInHandle+1
  1883   000370  EF56  F000         	goto	l131
  1884   000374                     l5885:
  1885                           
  1886                           ; BSR set to: 0
  1887                           ;main.c: 269:                         uint8_t cnt;;main.c: 272:                         
      +                              sprintf(temp, "cnt %u is %u\r\n", cnt, ReceivedDataBuffer[cnt]);
  1888   000374  0EBE               	movlw	low STR_9
  1889   000376  6F65               	movwf	UART_putrs@ptr& (0+255),b
  1890   000378  0E7C               	movlw	high STR_9
  1891   00037A  6F66               	movwf	(UART_putrs@ptr+1)& (0+255),b
  1892   00037C  ECBF  F017         	call	_UART_putrs	;wreg free
  1893   000380                     
  1894                           ;main.c: 273:                             UART_puts(temp);
  1895   000380  0101               	movlb	1	; () banked
  1896   000382  516F               	movf	_USBInHandle& (0+255),w,b
  1897   000384  1170               	iorwf	(_USBInHandle+1)& (0+255),w,b
  1898   000386  B4D8               	btfsc	status,2,c
  1899   000388  EFC8  F001         	goto	u4781
  1900   00038C  EFCA  F001         	goto	u4780
  1901   000390                     u4781:
  1902   000390  EFD5  F001         	goto	l5891
  1903   000394                     u4780:
  1904   000394                     
  1905                           ; BSR set to: 1
  1906   000394  C16F  FFD9         	movff	_USBInHandle,fsr2l
  1907   000398  C170  FFDA         	movff	_USBInHandle+1,fsr2h
  1908   00039C  BEDF               	btfsc	indf2,7,c
  1909   00039E  EFD3  F001         	goto	u4791
  1910   0003A2  EFD5  F001         	goto	u4790
  1911   0003A6                     u4791:
  1912   0003A6  EF56  F000         	goto	l131
  1913   0003AA                     u4790:
  1914   0003AA                     l5891:
  1915                           
  1916                           ; BSR set to: 1
  1917                           ;main.c: 275: 
  1918   0003AA  0E40               	movlw	64
  1919   0003AC  6F75               	movwf	_ToSendDataBuffer& (0+255),b
  1920                           
  1921                           ;main.c: 276:                     }
  1922   0003AE  0E00               	movlw	0
  1923   0003B0  6F76               	movwf	(_ToSendDataBuffer+1)& (0+255),b
  1924                           
  1925                           ;main.c: 277:                     break;
  1926   0003B2  0E01               	movlw	1
  1927   0003B4  6F77               	movwf	(_ToSendDataBuffer+2)& (0+255),b
  1928   0003B6                     
  1929                           ; BSR set to: 1
  1930                           ;main.c: 279:                 }
  1931   0003B6  0E01               	movlw	1
  1932   0003B8  0100               	movlb	0	; () banked
  1933   0003BA  6F63               	movwf	USBTransferOnePacket@dir& (0+255),b
  1934   0003BC  0E75               	movlw	low _ToSendDataBuffer
  1935   0003BE  6F64               	movwf	USBTransferOnePacket@data& (0+255),b
  1936   0003C0  0E01               	movlw	high _ToSendDataBuffer
  1937   0003C2  6F65               	movwf	(USBTransferOnePacket@data+1)& (0+255),b
  1938   0003C4  0E40               	movlw	64
  1939   0003C6  6F66               	movwf	USBTransferOnePacket@len& (0+255),b
  1940   0003C8  0E01               	movlw	1
  1941   0003CA  EC08  F00D         	call	_USBTransferOnePacket
  1942   0003CE  C063  F16F         	movff	?_USBTransferOnePacket,_USBInHandle
  1943   0003D2  C064  F170         	movff	?_USBTransferOnePacket+1,_USBInHandle+1
  1944   0003D6  EF56  F000         	goto	l131
  1945   0003DA                     l5895:
  1946                           
  1947                           ; BSR set to: 0
  1948                           ;main.c: 285: ;main.c: 288:     return;
  1949   0003DA  0ED5               	movlw	low STR_10
  1950   0003DC  6F65               	movwf	UART_putrs@ptr& (0+255),b
  1951   0003DE  0E7C               	movlw	high STR_10
  1952   0003E0  6F66               	movwf	(UART_putrs@ptr+1)& (0+255),b
  1953   0003E2  ECBF  F017         	call	_UART_putrs	;wreg free
  1954   0003E6                     
  1955                           ;main.c: 289: }
  1956   0003E6  0101               	movlb	1	; () banked
  1957   0003E8  516F               	movf	_USBInHandle& (0+255),w,b
  1958   0003EA  1170               	iorwf	(_USBInHandle+1)& (0+255),w,b
  1959   0003EC  B4D8               	btfsc	status,2,c
  1960   0003EE  EFFB  F001         	goto	u4801
  1961   0003F2  EFFD  F001         	goto	u4800
  1962   0003F6                     u4801:
  1963   0003F6  EF08  F002         	goto	l5901
  1964   0003FA                     u4800:
  1965   0003FA                     
  1966                           ; BSR set to: 1
  1967   0003FA  C16F  FFD9         	movff	_USBInHandle,fsr2l
  1968   0003FE  C170  FFDA         	movff	_USBInHandle+1,fsr2h
  1969   000402  BEDF               	btfsc	indf2,7,c
  1970   000404  EF06  F002         	goto	u4811
  1971   000408  EF08  F002         	goto	u4810
  1972   00040C                     u4811:
  1973   00040C  EF56  F000         	goto	l131
  1974   000410                     u4810:
  1975   000410                     l5901:
  1976                           
  1977                           ; BSR set to: 1
  1978                           ;main.c: 293:     TRISAbits.RA1 = 0;
  1979   000410  0E41               	movlw	65
  1980   000412  6F75               	movwf	_ToSendDataBuffer& (0+255),b
  1981                           
  1982                           ;main.c: 294:     LATAbits.LA1 = 0;
  1983   000414  0E00               	movlw	0
  1984   000416  6F76               	movwf	(_ToSendDataBuffer+1)& (0+255),b
  1985                           
  1986                           ;main.c: 295:     TRISAbits.RA4 = 1;
  1987   000418  0E01               	movlw	1
  1988   00041A  6F77               	movwf	(_ToSendDataBuffer+2)& (0+255),b
  1989   00041C                     
  1990                           ; BSR set to: 1
  1991                           ;main.c: 297:     TRISEbits.TRISE2 = 0;
  1992   00041C  0E01               	movlw	1
  1993   00041E  0100               	movlb	0	; () banked
  1994   000420  6F63               	movwf	USBTransferOnePacket@dir& (0+255),b
  1995   000422  0E75               	movlw	low _ToSendDataBuffer
  1996   000424  6F64               	movwf	USBTransferOnePacket@data& (0+255),b
  1997   000426  0E01               	movlw	high _ToSendDataBuffer
  1998   000428  6F65               	movwf	(USBTransferOnePacket@data+1)& (0+255),b
  1999   00042A  0E40               	movlw	64
  2000   00042C  6F66               	movwf	USBTransferOnePacket@len& (0+255),b
  2001   00042E  0E01               	movlw	1
  2002   000430  EC08  F00D         	call	_USBTransferOnePacket
  2003   000434  C063  F16F         	movff	?_USBTransferOnePacket,_USBInHandle
  2004   000438  C064  F170         	movff	?_USBTransferOnePacket+1,_USBInHandle+1
  2005   00043C  EF56  F000         	goto	l131
  2006   000440                     l5905:
  2007                           
  2008                           ; BSR set to: 0
  2009                           ;main.c: 303:     INTCONbits.GIEH = 1;;main.c: 306:     INTCONbits.PEIE_GIEL = 1;
  2010   000440  0EEC               	movlw	low STR_11
  2011   000442  6F65               	movwf	UART_putrs@ptr& (0+255),b
  2012   000444  0E7C               	movlw	high STR_11
  2013   000446  6F66               	movwf	(UART_putrs@ptr+1)& (0+255),b
  2014   000448  ECBF  F017         	call	_UART_putrs	;wreg free
  2015   00044C                     
  2016                           ;main.c: 307:     RCONbits.IPEN = 1;
  2017   00044C  0101               	movlb	1	; () banked
  2018   00044E  516F               	movf	_USBInHandle& (0+255),w,b
  2019   000450  1170               	iorwf	(_USBInHandle+1)& (0+255),w,b
  2020   000452  B4D8               	btfsc	status,2,c
  2021   000454  EF2E  F002         	goto	u4821
  2022   000458  EF30  F002         	goto	u4820
  2023   00045C                     u4821:
  2024   00045C  EF3B  F002         	goto	l5911
  2025   000460                     u4820:
  2026   000460                     
  2027                           ; BSR set to: 1
  2028   000460  C16F  FFD9         	movff	_USBInHandle,fsr2l
  2029   000464  C170  FFDA         	movff	_USBInHandle+1,fsr2h
  2030   000468  BEDF               	btfsc	indf2,7,c
  2031   00046A  EF39  F002         	goto	u4831
  2032   00046E  EF3B  F002         	goto	u4830
  2033   000472                     u4831:
  2034   000472  EF56  F000         	goto	l131
  2035   000476                     u4830:
  2036   000476                     l5911:
  2037                           
  2038                           ; BSR set to: 1
  2039                           ;main.c: 311:     TMR0H = 0xC2;
  2040   000476  0E42               	movlw	66
  2041   000478  6F75               	movwf	_ToSendDataBuffer& (0+255),b
  2042                           
  2043                           ;main.c: 312:     TMR0L = 0xF7;
  2044   00047A  0E06               	movlw	6
  2045   00047C  6F76               	movwf	(_ToSendDataBuffer+1)& (0+255),b
  2046                           
  2047                           ;main.c: 313:     T0CON = 0b10000111;
  2048   00047E  0E08               	movlw	8
  2049   000480  6F77               	movwf	(_ToSendDataBuffer+2)& (0+255),b
  2050   000482                     
  2051                           ; BSR set to: 1
  2052                           ;main.c: 315:     INTCONbits.TMR0IF = 0;
  2053   000482  0E01               	movlw	1
  2054   000484  0100               	movlb	0	; () banked
  2055   000486  6F63               	movwf	USBTransferOnePacket@dir& (0+255),b
  2056   000488  0E75               	movlw	low _ToSendDataBuffer
  2057   00048A  6F64               	movwf	USBTransferOnePacket@data& (0+255),b
  2058   00048C  0E01               	movlw	high _ToSendDataBuffer
  2059   00048E  6F65               	movwf	(USBTransferOnePacket@data+1)& (0+255),b
  2060   000490  0E40               	movlw	64
  2061   000492  6F66               	movwf	USBTransferOnePacket@len& (0+255),b
  2062   000494  0E01               	movlw	1
  2063   000496  EC08  F00D         	call	_USBTransferOnePacket
  2064   00049A  C063  F16F         	movff	?_USBTransferOnePacket,_USBInHandle
  2065   00049E  C064  F170         	movff	?_USBTransferOnePacket+1,_USBInHandle+1
  2066   0004A2  EF56  F000         	goto	l131
  2067   0004A6                     l5915:
  2068                           
  2069                           ; BSR set to: 0
  2070                           ;main.c: 321:     TMR1L = (64037u & 0xFF);;main.c: 323: 
  2071   0004A6  0EA7               	movlw	low STR_12
  2072   0004A8  6F65               	movwf	UART_putrs@ptr& (0+255),b
  2073   0004AA  0E7C               	movlw	high STR_12
  2074   0004AC  6F66               	movwf	(UART_putrs@ptr+1)& (0+255),b
  2075   0004AE  ECBF  F017         	call	_UART_putrs	;wreg free
  2076   0004B2                     
  2077                           ;main.c: 324:     IPR1bits.TMR1IP = 1;
  2078   0004B2  0101               	movlb	1	; () banked
  2079   0004B4  516F               	movf	_USBInHandle& (0+255),w,b
  2080   0004B6  1170               	iorwf	(_USBInHandle+1)& (0+255),w,b
  2081   0004B8  B4D8               	btfsc	status,2,c
  2082   0004BA  EF61  F002         	goto	u4841
  2083   0004BE  EF63  F002         	goto	u4840
  2084   0004C2                     u4841:
  2085   0004C2  EF6E  F002         	goto	l5921
  2086   0004C6                     u4840:
  2087   0004C6                     
  2088                           ; BSR set to: 1
  2089   0004C6  C16F  FFD9         	movff	_USBInHandle,fsr2l
  2090   0004CA  C170  FFDA         	movff	_USBInHandle+1,fsr2h
  2091   0004CE  BEDF               	btfsc	indf2,7,c
  2092   0004D0  EF6C  F002         	goto	u4851
  2093   0004D4  EF6E  F002         	goto	u4850
  2094   0004D8                     u4851:
  2095   0004D8  EF56  F000         	goto	l131
  2096   0004DC                     u4850:
  2097   0004DC                     l5921:
  2098                           
  2099                           ; BSR set to: 1
  2100                           ;main.c: 327: }
  2101   0004DC  0E43               	movlw	67
  2102   0004DE  6F75               	movwf	_ToSendDataBuffer& (0+255),b
  2103                           
  2104                           ;main.c: 328: 
  2105   0004E0  0E05               	movlw	5
  2106   0004E2  6F76               	movwf	(_ToSendDataBuffer+1)& (0+255),b
  2107   0004E4                     
  2108                           ; BSR set to: 1
  2109                           ;main.c: 329: static void Enable_Interrupt(void) {
  2110   0004E4  0E01               	movlw	1
  2111   0004E6  0100               	movlb	0	; () banked
  2112   0004E8  6F63               	movwf	USBTransferOnePacket@dir& (0+255),b
  2113   0004EA  0E75               	movlw	low _ToSendDataBuffer
  2114   0004EC  6F64               	movwf	USBTransferOnePacket@data& (0+255),b
  2115   0004EE  0E01               	movlw	high _ToSendDataBuffer
  2116   0004F0  6F65               	movwf	(USBTransferOnePacket@data+1)& (0+255),b
  2117   0004F2  0E40               	movlw	64
  2118   0004F4  6F66               	movwf	USBTransferOnePacket@len& (0+255),b
  2119   0004F6  0E01               	movlw	1
  2120   0004F8  EC08  F00D         	call	_USBTransferOnePacket
  2121   0004FC  C063  F16F         	movff	?_USBTransferOnePacket,_USBInHandle
  2122   000500  C064  F170         	movff	?_USBTransferOnePacket+1,_USBInHandle+1
  2123   000504  EF56  F000         	goto	l131
  2124   000508                     l5925:
  2125                           
  2126                           ; BSR set to: 0
  2127                           ;main.c: 335:     INTCONbits.TMR0IF = 0;;main.c: 336:     T0CONbits.TMR0ON = 1;
  2128   000508  0E31               	movlw	low STR_13
  2129   00050A  6F65               	movwf	UART_putrs@ptr& (0+255),b
  2130   00050C  0E7D               	movlw	high STR_13
  2131   00050E  6F66               	movwf	(UART_putrs@ptr+1)& (0+255),b
  2132   000510  ECBF  F017         	call	_UART_putrs	;wreg free
  2133   000514                     
  2134                           ;main.c: 337:     INTCONbits.TMR0IE = 1;;main.c: 338: };main.c: 339: 
  2135   000514  0E00               	movlw	0
  2136   000516  0101               	movlb	1	; () banked
  2137   000518  6F6E               	movwf	main@cnt& (0+255),b
  2138   00051A                     l5933:
  2139                           
  2140                           ; BSR set to: 1
  2141                           ;main.c: 341:     T0CONbits.TMR0ON = 0;
  2142   00051A  0E00               	movlw	low main@temp
  2143   00051C  0100               	movlb	0	; () banked
  2144   00051E  6FBA               	movwf	sprintf@s& (0+255),b
  2145   000520  0E01               	movlw	high main@temp
  2146   000522  6FBB               	movwf	(sprintf@s+1)& (0+255),b
  2147   000524  0E14               	movlw	low STR_14
  2148   000526  6FBC               	movwf	sprintf@fmt& (0+255),b
  2149   000528  0E7D               	movlw	high STR_14
  2150   00052A  6FBD               	movwf	(sprintf@fmt+1)& (0+255),b
  2151   00052C  C16E  F0BE         	movff	main@cnt,?_sprintf+4
  2152   000530  6BBF               	clrf	(?_sprintf+5)& (0+255),b
  2153   000532  0E40               	movlw	low _ReceivedDataBuffer
  2154   000534  0101               	movlb	1	; () banked
  2155   000536  256E               	addwf	main@cnt& (0+255),w,b
  2156   000538  6ED9               	movwf	fsr2l,c
  2157   00053A  6ADA               	clrf	fsr2h,c
  2158   00053C  0E02               	movlw	high _ReceivedDataBuffer
  2159   00053E  22DA               	addwfc	fsr2h,f,c
  2160   000540  50DF               	movf	indf2,w,c
  2161   000542  0100               	movlb	0	; () banked
  2162   000544  6FCF               	movwf	??_main& (0+255),b
  2163   000546  51CF               	movf	??_main& (0+255),w,b
  2164   000548  6FC0               	movwf	(?_sprintf+6)& (0+255),b
  2165   00054A  6BC1               	clrf	(?_sprintf+7)& (0+255),b
  2166   00054C  ECDA  F016         	call	_sprintf	;wreg free
  2167   000550                     
  2168                           ;main.c: 342:     INTCONbits.TMR0IF = 0;
  2169   000550  0E00               	movlw	low main@temp
  2170   000552  0100               	movlb	0	; () banked
  2171   000554  6F65               	movwf	UART_puts@ptr& (0+255),b
  2172   000556  0E01               	movlw	high main@temp
  2173   000558  6F66               	movwf	(UART_puts@ptr+1)& (0+255),b
  2174   00055A  EC10  F018         	call	_UART_puts	;wreg free
  2175   00055E                     
  2176                           ;main.c: 343:     INTCONbits.TMR0IE = 0;
  2177   00055E  0101               	movlb	1	; () banked
  2178   000560  2B6E               	incf	main@cnt& (0+255),f,b
  2179   000562                     
  2180                           ; BSR set to: 1
  2181   000562  0E3F               	movlw	63
  2182   000564  656E               	cpfsgt	main@cnt& (0+255),b
  2183   000566  EFB7  F002         	goto	u4861
  2184   00056A  EFB9  F002         	goto	u4860
  2185   00056E                     u4861:
  2186   00056E  EF8D  F002         	goto	l5933
  2187   000572                     u4860:
  2188   000572  EF56  F000         	goto	l131
  2189   000576                     l5943:
  2190   000576  0102               	movlb	2	; () banked
  2191   000578  5141               	movf	(_ReceivedDataBuffer+1)& (0+255),w,b
  2192   00057A  0100               	movlb	0	; () banked
  2193   00057C  6FCF               	movwf	??_main& (0+255),b
  2194   00057E  6BD0               	clrf	(??_main+1)& (0+255),b
  2195                           
  2196                           ; Switch on 2 bytes has been partitioned into a top level switch of size 1, and 1 sub-sw
      +                          itches
  2197                           ; Switch size 1, requested type "simple"
  2198                           ; Number of cases is 1, Range of values is 0 to 0
  2199                           ; switch strategies available:
  2200                           ; Name         Instructions Cycles
  2201                           ; simple_byte            4     3 (average)
  2202                           ;	Chosen strategy is simple_byte
  2203   000580  51D0               	movf	(??_main+1)& (0+255),w,b
  2204   000582  0A00               	xorlw	0	; case 0
  2205   000584  B4D8               	btfsc	status,2,c
  2206   000586  EFC7  F002         	goto	l6179
  2207   00058A  EF84  F002         	goto	l5925
  2208   00058E                     l6179:
  2209                           
  2210                           ; BSR set to: 0
  2211                           ; Switch size 1, requested type "simple"
  2212                           ; Number of cases is 10, Range of values is 32 to 128
  2213                           ; switch strategies available:
  2214                           ; Name         Instructions Cycles
  2215                           ; simple_byte           31    16 (average)
  2216                           ;	Chosen strategy is simple_byte
  2217   00058E  51CF               	movf	??_main& (0+255),w,b
  2218   000590  0A20               	xorlw	32	; case 32
  2219   000592  B4D8               	btfsc	status,2,c
  2220   000594  EFA9  F000         	goto	l5819
  2221   000598  0A10               	xorlw	16	; case 48
  2222   00059A  B4D8               	btfsc	status,2,c
  2223   00059C  EFEE  F000         	goto	l5837
  2224   0005A0  0A01               	xorlw	1	; case 49
  2225   0005A2  B4D8               	btfsc	status,2,c
  2226   0005A4  EF21  F001         	goto	l5849
  2227   0005A8  0A03               	xorlw	3	; case 50
  2228   0005AA  B4D8               	btfsc	status,2,c
  2229   0005AC  EF54  F001         	goto	l5861
  2230   0005B0  0A01               	xorlw	1	; case 51
  2231   0005B2  B4D8               	btfsc	status,2,c
  2232   0005B4  EF87  F001         	goto	l5873
  2233   0005B8  0A73               	xorlw	115	; case 64
  2234   0005BA  B4D8               	btfsc	status,2,c
  2235   0005BC  EFBA  F001         	goto	l5885
  2236   0005C0  0A01               	xorlw	1	; case 65
  2237   0005C2  B4D8               	btfsc	status,2,c
  2238   0005C4  EFED  F001         	goto	l5895
  2239   0005C8  0A03               	xorlw	3	; case 66
  2240   0005CA  B4D8               	btfsc	status,2,c
  2241   0005CC  EF20  F002         	goto	l5905
  2242   0005D0  0A01               	xorlw	1	; case 67
  2243   0005D2  B4D8               	btfsc	status,2,c
  2244   0005D4  EF53  F002         	goto	l5915
  2245   0005D8  0AC3               	xorlw	195	; case 128
  2246   0005DA  B4D8               	btfsc	status,2,c
  2247   0005DC  EFA1  F000         	goto	l5817
  2248   0005E0  EF84  F002         	goto	l5925
  2249   0005E4  EF32  F000         	goto	start
  2250   0005E8                     __end_of_main:
  2251                           	callstack 0
  2252                           
  2253 ;; *************** function _timerZero_Init *****************
  2254 ;; Defined at:
  2255 ;;		line 379 in file "main.c"
  2256 ;; Parameters:    Size  Location     Type
  2257 ;;		None
  2258 ;; Auto vars:     Size  Location     Type
  2259 ;;		None
  2260 ;; Return value:  Size  Location     Type
  2261 ;;                  1    wreg      void 
  2262 ;; Registers used:
  2263 ;;		wreg, status,2
  2264 ;; Tracked objects:
  2265 ;;		On entry : 0/0
  2266 ;;		On exit  : 0/0
  2267 ;;		Unchanged: 0/0
  2268 ;; Data sizes:     COMRAM   BANK0   BANK1   BANK2   BANK3   BANK4   BANK5   BANK6   BANK7
  2269 ;;      Params:         0       0       0       0       0       0       0       0       0
  2270 ;;      Locals:         0       0       0       0       0       0       0       0       0
  2271 ;;      Temps:          0       0       0       0       0       0       0       0       0
  2272 ;;      Totals:         0       0       0       0       0       0       0       0       0
  2273 ;;Total ram usage:        0 bytes
  2274 ;; Hardware stack levels used: 1
  2275 ;; Hardware stack levels required when called: 11
  2276 ;; This function calls:
  2277 ;;		Nothing
  2278 ;; This function is called by:
  2279 ;;		_main
  2280 ;; This function uses a non-reentrant model
  2281 ;;
  2282                           
  2283                           	psect	text1
  2284   0030DA                     __ptext1:
  2285                           	callstack 0
  2286   0030DA                     _timerZero_Init:
  2287                           	callstack 19
  2288   0030DA                     
  2289                           ;main.c: 380:             USBCB_SOF_Handler();
  2290   0030DA  0EC2               	movlw	194
  2291   0030DC  6ED7               	movwf	215,c	;volatile
  2292                           
  2293                           ;main.c: 381:             break;
  2294   0030DE  0EF7               	movlw	247
  2295   0030E0  6ED6               	movwf	214,c	;volatile
  2296                           
  2297                           ;main.c: 382:         case EVENT_SUSPEND:
  2298   0030E2  0E87               	movlw	135
  2299   0030E4  6ED5               	movwf	213,c	;volatile
  2300   0030E6                     
  2301                           ;main.c: 383:             USBCBSuspend();
  2302   0030E6  94F1               	bcf	241,2,c	;volatile
  2303   0030E8                     
  2304                           ;main.c: 384:             break;
  2305   0030E8  94F2               	bcf	242,2,c	;volatile
  2306   0030EA                     
  2307                           ;main.c: 385:         case EVENT_RESUME:
  2308   0030EA  8AF2               	bsf	242,5,c	;volatile
  2309   0030EC  0012               	return		;funcret
  2310   0030EE                     __end_of_timerZero_Init:
  2311                           	callstack 0
  2312                           
  2313 ;; *************** function _timerStart *****************
  2314 ;; Defined at:
  2315 ;;		line 403 in file "main.c"
  2316 ;; Parameters:    Size  Location     Type
  2317 ;;		None
  2318 ;; Auto vars:     Size  Location     Type
  2319 ;;		None
  2320 ;; Return value:  Size  Location     Type
  2321 ;;                  1    wreg      void 
  2322 ;; Registers used:
  2323 ;;		None
  2324 ;; Tracked objects:
  2325 ;;		On entry : 0/0
  2326 ;;		On exit  : 0/0
  2327 ;;		Unchanged: 0/0
  2328 ;; Data sizes:     COMRAM   BANK0   BANK1   BANK2   BANK3   BANK4   BANK5   BANK6   BANK7
  2329 ;;      Params:         0       0       0       0       0       0       0       0       0
  2330 ;;      Locals:         0       0       0       0       0       0       0       0       0
  2331 ;;      Temps:          0       0       0       0       0       0       0       0       0
  2332 ;;      Totals:         0       0       0       0       0       0       0       0       0
  2333 ;;Total ram usage:        0 bytes
  2334 ;; Hardware stack levels used: 1
  2335 ;; Hardware stack levels required when called: 11
  2336 ;; This function calls:
  2337 ;;		Nothing
  2338 ;; This function is called by:
  2339 ;;		_main
  2340 ;; This function uses a non-reentrant model
  2341 ;;
  2342                           
  2343                           	psect	text2
  2344   00313C                     __ptext2:
  2345                           	callstack 0
  2346   00313C                     _timerStart:
  2347                           	callstack 19
  2348   00313C                     
  2349                           ;main.c: 404: 
  2350   00313C  94F2               	bcf	242,2,c	;volatile
  2351                           
  2352                           ;main.c: 405: void USBCBCheckOtherReq(void) {
  2353   00313E  8ED5               	bsf	213,7,c	;volatile
  2354                           
  2355                           ;main.c: 406:     USBCheckHIDRequest();
  2356   003140  8AF2               	bsf	242,5,c	;volatile
  2357   003142  0012               	return		;funcret
  2358   003144                     __end_of_timerStart:
  2359                           	callstack 0
  2360                           
  2361 ;; *************** function _timer1_Init *****************
  2362 ;; Defined at:
  2363 ;;		line 388 in file "main.c"
  2364 ;; Parameters:    Size  Location     Type
  2365 ;;		None
  2366 ;; Auto vars:     Size  Location     Type
  2367 ;;		None
  2368 ;; Return value:  Size  Location     Type
  2369 ;;                  1    wreg      void 
  2370 ;; Registers used:
  2371 ;;		wreg, status,2
  2372 ;; Tracked objects:
  2373 ;;		On entry : 0/0
  2374 ;;		On exit  : 0/0
  2375 ;;		Unchanged: 0/0
  2376 ;; Data sizes:     COMRAM   BANK0   BANK1   BANK2   BANK3   BANK4   BANK5   BANK6   BANK7
  2377 ;;      Params:         0       0       0       0       0       0       0       0       0
  2378 ;;      Locals:         0       0       0       0       0       0       0       0       0
  2379 ;;      Temps:          0       0       0       0       0       0       0       0       0
  2380 ;;      Totals:         0       0       0       0       0       0       0       0       0
  2381 ;;Total ram usage:        0 bytes
  2382 ;; Hardware stack levels used: 1
  2383 ;; Hardware stack levels required when called: 11
  2384 ;; This function calls:
  2385 ;;		Nothing
  2386 ;; This function is called by:
  2387 ;;		_main
  2388 ;; This function uses a non-reentrant model
  2389 ;;
  2390                           
  2391                           	psect	text3
  2392   0030EE                     __ptext3:
  2393                           	callstack 0
  2394   0030EE                     _timer1_Init:
  2395                           	callstack 19
  2396   0030EE                     
  2397                           ;main.c: 389:             USBCBErrorHandler();
  2398   0030EE  0EFA               	movlw	250
  2399   0030F0  6ECF               	movwf	207,c	;volatile
  2400                           
  2401                           ;main.c: 390:             break;
  2402   0030F2  0E25               	movlw	37
  2403   0030F4  6ECE               	movwf	206,c	;volatile
  2404                           
  2405                           ;main.c: 391:         case EVENT_TRANSFER:
  2406   0030F6  0EB1               	movlw	177
  2407   0030F8  6ECD               	movwf	205,c	;volatile
  2408   0030FA                     
  2409                           ;main.c: 393: 
  2410   0030FA  809F               	bsf	159,0,c	;volatile
  2411   0030FC                     
  2412                           ;main.c: 394:             break;
  2413   0030FC  909E               	bcf	158,0,c	;volatile
  2414   0030FE                     
  2415                           ;main.c: 395:         default:
  2416   0030FE  809D               	bsf	157,0,c	;volatile
  2417   003100  0012               	return		;funcret
  2418   003102                     __end_of_timer1_Init:
  2419                           	callstack 0
  2420                           
  2421 ;; *************** function _sprintf *****************
  2422 ;; Defined at:
  2423 ;;		line 9 in file "C:\Program Files\Microchip\xc8\v2.40\pic\sources\c99\common\nf_sprintf.c"
  2424 ;; Parameters:    Size  Location     Type
  2425 ;;  s               2   90[BANK0 ] PTR unsigned char 
  2426 ;;		 -> main@temp(100), 
  2427 ;;  fmt             2   92[BANK0 ] PTR const unsigned char 
  2428 ;;		 -> STR_14(15), 
  2429 ;; Auto vars:     Size  Location     Type
  2430 ;;  f              11  100[BANK0 ] struct _IO_FILE
  2431 ;;  ap              2   98[BANK0 ] PTR void [1]
  2432 ;;		 -> ?_sprintf(2), 
  2433 ;;  ret             2    0        int 
  2434 ;; Return value:  Size  Location     Type
  2435 ;;                  2   90[BANK0 ] int 
  2436 ;; Registers used:
  2437 ;;		wreg, fsr1l, fsr1h, fsr2l, fsr2h, status,2, status,0, tblptrl, tblptrh, tblptru, cstack
  2438 ;; Tracked objects:
  2439 ;;		On entry : 0/0
  2440 ;;		On exit  : 0/0
  2441 ;;		Unchanged: 0/0
  2442 ;; Data sizes:     COMRAM   BANK0   BANK1   BANK2   BANK3   BANK4   BANK5   BANK6   BANK7
  2443 ;;      Params:         0       8       0       0       0       0       0       0       0
  2444 ;;      Locals:         0      13       0       0       0       0       0       0       0
  2445 ;;      Temps:          0       0       0       0       0       0       0       0       0
  2446 ;;      Totals:         0      21       0       0       0       0       0       0       0
  2447 ;;Total ram usage:       21 bytes
  2448 ;; Hardware stack levels used: 1
  2449 ;; Hardware stack levels required when called: 18
  2450 ;; This function calls:
  2451 ;;		_vfprintf
  2452 ;; This function is called by:
  2453 ;;		_main
  2454 ;; This function uses a non-reentrant model
  2455 ;;
  2456                           
  2457                           	psect	text4
  2458   002DB4                     __ptext4:
  2459                           	callstack 0
  2460   002DB4                     _sprintf:
  2461                           	callstack 12
  2462   002DB4  0EBE               	movlw	low (?_sprintf+4)
  2463   002DB6  0100               	movlb	0	; () banked
  2464   002DB8  6FC2               	movwf	sprintf@ap& (0+255),b
  2465   002DBA  0E00               	movlw	high (?_sprintf+4)
  2466   002DBC  6FC3               	movwf	(sprintf@ap+1)& (0+255),b
  2467   002DBE  C0BA  F0C4         	movff	sprintf@s,sprintf@f
  2468   002DC2  C0BB  F0C5         	movff	sprintf@s+1,sprintf@f+1
  2469   002DC6                     
  2470                           ; BSR set to: 0
  2471   002DC6  0E00               	movlw	0
  2472   002DC8  6FC8               	movwf	(sprintf@f+4)& (0+255),b
  2473   002DCA  0E00               	movlw	0
  2474   002DCC  6FC7               	movwf	(sprintf@f+3)& (0+255),b
  2475   002DCE                     
  2476                           ; BSR set to: 0
  2477   002DCE  0E00               	movlw	0
  2478   002DD0  6FCE               	movwf	(sprintf@f+10)& (0+255),b
  2479   002DD2  0E00               	movlw	0
  2480   002DD4  6FCD               	movwf	(sprintf@f+9)& (0+255),b
  2481   002DD6                     
  2482                           ; BSR set to: 0
  2483   002DD6  0EC4               	movlw	low sprintf@f
  2484   002DD8  6FB2               	movwf	vfprintf@fp& (0+255),b
  2485   002DDA  0E00               	movlw	high sprintf@f
  2486   002DDC  6FB3               	movwf	(vfprintf@fp+1)& (0+255),b
  2487   002DDE  C0BC  F0B4         	movff	sprintf@fmt,vfprintf@fmt
  2488   002DE2  C0BD  F0B5         	movff	sprintf@fmt+1,vfprintf@fmt+1
  2489   002DE6  0EC2               	movlw	low sprintf@ap
  2490   002DE8  6FB6               	movwf	vfprintf@ap& (0+255),b
  2491   002DEA  0E00               	movlw	high sprintf@ap
  2492   002DEC  6FB7               	movwf	(vfprintf@ap+1)& (0+255),b
  2493   002DEE  EC03  F017         	call	_vfprintf	;wreg free
  2494   002DF2  0100               	movlb	0	; () banked
  2495   002DF4  51C7               	movf	(sprintf@f+3)& (0+255),w,b
  2496   002DF6  25BA               	addwf	sprintf@s& (0+255),w,b
  2497   002DF8  6ED9               	movwf	fsr2l,c
  2498   002DFA  51C8               	movf	(sprintf@f+4)& (0+255),w,b
  2499   002DFC  21BB               	addwfc	(sprintf@s+1)& (0+255),w,b
  2500   002DFE  6EDA               	movwf	fsr2h,c
  2501   002E00  0E00               	movlw	0
  2502   002E02  6EDF               	movwf	indf2,c
  2503   002E04                     
  2504                           ; BSR set to: 0
  2505   002E04  0012               	return		;funcret
  2506   002E06                     __end_of_sprintf:
  2507                           	callstack 0
  2508                           
  2509 ;; *************** function _vfprintf *****************
  2510 ;; Defined at:
  2511 ;;		line 1520 in file "C:\Program Files\Microchip\xc8\v2.40\pic\sources\c99\common\doprnt.c"
  2512 ;; Parameters:    Size  Location     Type
  2513 ;;  fp              2   82[BANK0 ] PTR struct _IO_FILE
  2514 ;;		 -> sprintf@f(11), 
  2515 ;;  fmt             2   84[BANK0 ] PTR const unsigned char 
  2516 ;;		 -> STR_14(15), 
  2517 ;;  ap              2   86[BANK0 ] PTR PTR void 
  2518 ;;		 -> sprintf@ap(2), 
  2519 ;; Auto vars:     Size  Location     Type
  2520 ;;  cfmt            2   88[BANK0 ] PTR unsigned char 
  2521 ;;		 -> STR_14(15), 
  2522 ;; Return value:  Size  Location     Type
  2523 ;;                  2   82[BANK0 ] int 
  2524 ;; Registers used:
  2525 ;;		wreg, fsr1l, fsr1h, fsr2l, fsr2h, status,2, status,0, tblptrl, tblptrh, tblptru, cstack
  2526 ;; Tracked objects:
  2527 ;;		On entry : 0/0
  2528 ;;		On exit  : 0/0
  2529 ;;		Unchanged: 0/0
  2530 ;; Data sizes:     COMRAM   BANK0   BANK1   BANK2   BANK3   BANK4   BANK5   BANK6   BANK7
  2531 ;;      Params:         0       6       0       0       0       0       0       0       0
  2532 ;;      Locals:         0       2       0       0       0       0       0       0       0
  2533 ;;      Temps:          0       0       0       0       0       0       0       0       0
  2534 ;;      Totals:         0       8       0       0       0       0       0       0       0
  2535 ;;Total ram usage:        8 bytes
  2536 ;; Hardware stack levels used: 1
  2537 ;; Hardware stack levels required when called: 17
  2538 ;; This function calls:
  2539 ;;		_vfpfcnvrt
  2540 ;; This function is called by:
  2541 ;;		_sprintf
  2542 ;; This function uses a non-reentrant model
  2543 ;;
  2544                           
  2545                           	psect	text5
  2546   002E06                     __ptext5:
  2547                           	callstack 0
  2548   002E06                     _vfprintf:
  2549                           	callstack 12
  2550   002E06                     
  2551                           ;C:\Program Files\Microchip\xc8\v2.40\pic\sources\c99\common\doprnt.c: 1520: int vfprint
      +                          f(FILE *fp, const char *fmt, va_list ap);C:\Program Files\Microchip\xc8\v2.40\pic\source
      +                          s\c99\common\doprnt.c: 1521: {;C:\Program Files\Microchip\xc8\v2.40\pic\sources\c99\comm
      +                          on\doprnt.c: 1523:     char *cfmt;;C:\Program Files\Microchip\xc8\v2.40\pic\sources\c99\
      +                          common\doprnt.c: 1525:     cfmt = (char *)fmt;
  2552   002E06  C0B4  F0B8         	movff	vfprintf@fmt,vfprintf@cfmt
  2553   002E0A  C0B5  F0B9         	movff	vfprintf@fmt+1,vfprintf@cfmt+1
  2554                           
  2555                           ;C:\Program Files\Microchip\xc8\v2.40\pic\sources\c99\common\doprnt.c: 1529:     while (
      +                          *cfmt) {
  2556   002E0E  EF18  F017         	goto	l5669
  2557   002E12                     l5667:
  2558                           
  2559                           ;C:\Program Files\Microchip\xc8\v2.40\pic\sources\c99\common\doprnt.c: 1533:    vfpfcnvr
      +                          t(fp, &cfmt, ap);
  2560   002E12  C0B2  F09E         	movff	vfprintf@fp,vfpfcnvrt@fp
  2561   002E16  C0B3  F09F         	movff	vfprintf@fp+1,vfpfcnvrt@fp+1
  2562   002E1A  0EB8               	movlw	low vfprintf@cfmt
  2563   002E1C  0100               	movlb	0	; () banked
  2564   002E1E  6FA0               	movwf	vfpfcnvrt@fmt& (0+255),b
  2565   002E20  0E00               	movlw	high vfprintf@cfmt
  2566   002E22  6FA1               	movwf	(vfpfcnvrt@fmt+1)& (0+255),b
  2567   002E24  C0B6  F0A2         	movff	vfprintf@ap,vfpfcnvrt@ap
  2568   002E28  C0B7  F0A3         	movff	vfprintf@ap+1,vfpfcnvrt@ap+1
  2569   002E2C  ECB5  F009         	call	_vfpfcnvrt	;wreg free
  2570   002E30                     l5669:
  2571                           
  2572                           ;C:\Program Files\Microchip\xc8\v2.40\pic\sources\c99\common\doprnt.c: 1529:     while (
      +                          *cfmt) {
  2573   002E30  C0B8  FFF6         	movff	vfprintf@cfmt,tblptrl
  2574   002E34  C0B9  FFF7         	movff	vfprintf@cfmt+1,tblptrh
  2575   002E38                     	if	0	;tblptru may be non-zero
  2576   002E38                     	endif
  2577   002E38                     	if	0	;tblptru may be non-zero
  2578   002E38                     	endif
  2579   002E38  0008               	tblrd		*
  2580   002E3A  50F5               	movf	tablat,w,c
  2581   002E3C  0900               	iorlw	0
  2582   002E3E  A4D8               	btfss	status,2,c
  2583   002E40  EF24  F017         	goto	u4471
  2584   002E44  EF26  F017         	goto	u4470
  2585   002E48                     u4471:
  2586   002E48  EF09  F017         	goto	l5667
  2587   002E4C                     u4470:
  2588   002E4C                     
  2589                           ;C:\Program Files\Microchip\xc8\v2.40\pic\sources\c99\common\doprnt.c: 1538:  return 0;
  2590   002E4C  0E00               	movlw	0
  2591   002E4E  0100               	movlb	0	; () banked
  2592   002E50  6FB3               	movwf	(?_vfprintf+1)& (0+255),b
  2593   002E52  0E00               	movlw	0
  2594   002E54  6FB2               	movwf	?_vfprintf& (0+255),b
  2595   002E56                     
  2596                           ; BSR set to: 0
  2597   002E56  0012               	return		;funcret
  2598   002E58                     __end_of_vfprintf:
  2599                           	callstack 0
  2600                           
  2601 ;; *************** function _vfpfcnvrt *****************
  2602 ;; Defined at:
  2603 ;;		line 1007 in file "C:\Program Files\Microchip\xc8\v2.40\pic\sources\c99\common\doprnt.c"
  2604 ;; Parameters:    Size  Location     Type
  2605 ;;  fp              2   62[BANK0 ] PTR struct _IO_FILE
  2606 ;;		 -> sprintf@f(11), 
  2607 ;;  fmt             2   64[BANK0 ] PTR PTR unsigned char 
  2608 ;;		 -> vfprintf@cfmt(2), 
  2609 ;;  ap              2   66[BANK0 ] PTR PTR void 
  2610 ;;		 -> sprintf@ap(2), 
  2611 ;; Auto vars:     Size  Location     Type
  2612 ;;  convarg         8   72[BANK0 ] struct .
  2613 ;;  cp              2   80[BANK0 ] PTR unsigned char 
  2614 ;;		 -> STR_14(15), 
  2615 ;;  i               2    0        int 
  2616 ;;  done            2    0        int 
  2617 ;;  c               1    0        unsigned char 
  2618 ;; Return value:  Size  Location     Type
  2619 ;;                  1    wreg      void 
  2620 ;; Registers used:
  2621 ;;		wreg, fsr1l, fsr1h, fsr2l, fsr2h, status,2, status,0, tblptrl, tblptrh, tblptru, cstack
  2622 ;; Tracked objects:
  2623 ;;		On entry : 0/0
  2624 ;;		On exit  : 0/0
  2625 ;;		Unchanged: 0/0
  2626 ;; Data sizes:     COMRAM   BANK0   BANK1   BANK2   BANK3   BANK4   BANK5   BANK6   BANK7
  2627 ;;      Params:         0       6       0       0       0       0       0       0       0
  2628 ;;      Locals:         0      10       0       0       0       0       0       0       0
  2629 ;;      Temps:          0       4       0       0       0       0       0       0       0
  2630 ;;      Totals:         0      20       0       0       0       0       0       0       0
  2631 ;;Total ram usage:       20 bytes
  2632 ;; Hardware stack levels used: 1
  2633 ;; Hardware stack levels required when called: 16
  2634 ;; This function calls:
  2635 ;;		_fputc
  2636 ;;		_utoa
  2637 ;; This function is called by:
  2638 ;;		_vfprintf
  2639 ;; This function uses a non-reentrant model
  2640 ;;
  2641                           
  2642                           	psect	text6
  2643   00136A                     __ptext6:
  2644                           	callstack 0
  2645   00136A                     _vfpfcnvrt:
  2646                           	callstack 12
  2647   00136A                     
  2648                           ;C:\Program Files\Microchip\xc8\v2.40\pic\sources\c99\common\doprnt.c: 1007: vfpfcnvrt(F
      +                          ILE *fp, char *fmt[], va_list ap);C:\Program Files\Microchip\xc8\v2.40\pic\sources\c99\c
      +                          ommon\doprnt.c: 1008: {;C:\Program Files\Microchip\xc8\v2.40\pic\sources\c99\common\dopr
      +                          nt.c: 1009:     char c, *cp;;C:\Program Files\Microchip\xc8\v2.40\pic\sources\c99\common
      +                          \doprnt.c: 1010:     int done, i;;C:\Program Files\Microchip\xc8\v2.40\pic\sources\c99\c
      +                          ommon\doprnt.c: 1016:  } convarg;;C:\Program Files\Microchip\xc8\v2.40\pic\sources\c99\c
      +                          ommon\doprnt.c: 1019:     if ((*fmt)[0] == '%') {
  2649   00136A  C0A0  FFD9         	movff	vfpfcnvrt@fmt,fsr2l
  2650   00136E  C0A1  FFDA         	movff	vfpfcnvrt@fmt+1,fsr2h
  2651   001372  CFDE FFF6          	movff	postinc2,tblptrl
  2652   001376  CFDD FFF7          	movff	postdec2,tblptrh
  2653   00137A                     	if	0	;tblptru may be non-zero
  2654   00137A                     	endif
  2655   00137A                     	if	0	;tblptru may be non-zero
  2656   00137A                     	endif
  2657   00137A  0008               	tblrd		*
  2658   00137C  50F5               	movf	tablat,w,c
  2659   00137E  0A25               	xorlw	37
  2660   001380  A4D8               	btfss	status,2,c
  2661   001382  EFC5  F009         	goto	u4381
  2662   001386  EFC7  F009         	goto	u4380
  2663   00138A                     u4381:
  2664   00138A  EF52  F00A         	goto	l5543
  2665   00138E                     u4380:
  2666   00138E                     
  2667                           ;C:\Program Files\Microchip\xc8\v2.40\pic\sources\c99\common\doprnt.c: 1020:         ++*
      +                          fmt;
  2668   00138E  C0A0  FFD9         	movff	vfpfcnvrt@fmt,fsr2l
  2669   001392  C0A1  FFDA         	movff	vfpfcnvrt@fmt+1,fsr2h
  2670   001396  2ADE               	incf	postinc2,f,c
  2671   001398  0E00               	movlw	0
  2672   00139A  22DD               	addwfc	postdec2,f,c
  2673   00139C                     
  2674                           ;C:\Program Files\Microchip\xc8\v2.40\pic\sources\c99\common\doprnt.c: 1022:         fla
      +                          gs = width = 0;
  2675   00139C  0E00               	movlw	0
  2676   00139E  0100               	movlb	0	; () banked
  2677   0013A0  6FEC               	movwf	(_width+1)& (0+255),b
  2678   0013A2  0E00               	movlw	0
  2679   0013A4  6FEB               	movwf	_width& (0+255),b
  2680   0013A6  C0EB  F0F3         	movff	_width,_flags
  2681   0013AA                     
  2682                           ; BSR set to: 0
  2683                           ;C:\Program Files\Microchip\xc8\v2.40\pic\sources\c99\common\doprnt.c: 1023:         pre
      +                          c = -1;
  2684   0013AA  69ED               	setf	_prec& (0+255),b
  2685   0013AC  69EE               	setf	(_prec+1)& (0+255),b
  2686   0013AE                     
  2687                           ; BSR set to: 0
  2688                           ;C:\Program Files\Microchip\xc8\v2.40\pic\sources\c99\common\doprnt.c: 1239:   if (0
  2689   0013AE  C0A0  FFD9         	movff	vfpfcnvrt@fmt,fsr2l
  2690   0013B2  C0A1  FFDA         	movff	vfpfcnvrt@fmt+1,fsr2h
  2691   0013B6  CFDE F0B0          	movff	postinc2,vfpfcnvrt@cp
  2692   0013BA  CFDD F0B1          	movff	postdec2,vfpfcnvrt@cp+1
  2693   0013BE                     
  2694                           ; BSR set to: 0
  2695   0013BE  C0B0  FFF6         	movff	vfpfcnvrt@cp,tblptrl
  2696   0013C2  C0B1  FFF7         	movff	vfpfcnvrt@cp+1,tblptrh
  2697   0013C6                     	if	0	;tblptru may be non-zero
  2698   0013C6                     	endif
  2699   0013C6                     	if	0	;tblptru may be non-zero
  2700   0013C6                     	endif
  2701   0013C6  0008               	tblrd		*
  2702   0013C8  50F5               	movf	tablat,w,c
  2703   0013CA  0A75               	xorlw	117
  2704   0013CC  A4D8               	btfss	status,2,c
  2705   0013CE  EFEB  F009         	goto	u4391
  2706   0013D2  EFED  F009         	goto	u4390
  2707   0013D6                     u4391:
  2708   0013D6  EF49  F00A         	goto	l5539
  2709   0013DA                     u4390:
  2710   0013DA                     
  2711                           ; BSR set to: 0
  2712                           ;C:\Program Files\Microchip\xc8\v2.40\pic\sources\c99\common\doprnt.c: 1252:     ) {;C:\
      +                          Program Files\Microchip\xc8\v2.40\pic\sources\c99\common\doprnt.c: 1295:    convarg.llu 
      +                          = (unsigned long long)(unsigned int)(*(unsigned int *)__va_arg(*(unsigned int **)ap, (un
      +                          signed int)0));
  2713   0013DA  C0A2  FFD9         	movff	vfpfcnvrt@ap,fsr2l
  2714   0013DE  C0A3  FFDA         	movff	vfpfcnvrt@ap+1,fsr2h
  2715   0013E2  CFDF F0A4          	movff	indf2,??_vfpfcnvrt
  2716   0013E6  0E02               	movlw	2
  2717   0013E8  26DE               	addwf	postinc2,f,c
  2718   0013EA  CFDF F0A5          	movff	indf2,??_vfpfcnvrt+1
  2719   0013EE  0E00               	movlw	0
  2720   0013F0  22DD               	addwfc	postdec2,f,c
  2721   0013F2  C0A4  FFD9         	movff	??_vfpfcnvrt,fsr2l
  2722   0013F6  C0A5  FFDA         	movff	??_vfpfcnvrt+1,fsr2h
  2723   0013FA  CFDE F0A6          	movff	postinc2,??_vfpfcnvrt+2
  2724   0013FE  CFDD F0A7          	movff	postdec2,??_vfpfcnvrt+3
  2725   001402  C0A6  F0A8         	movff	??_vfpfcnvrt+2,vfpfcnvrt@convarg
  2726   001406  C0A7  F0A9         	movff	??_vfpfcnvrt+3,vfpfcnvrt@convarg+1
  2727   00140A  6BAA               	clrf	(vfpfcnvrt@convarg+2)& (0+255),b
  2728   00140C  6BAB               	clrf	(vfpfcnvrt@convarg+3)& (0+255),b
  2729   00140E  6BAC               	clrf	(vfpfcnvrt@convarg+4)& (0+255),b
  2730   001410  6BAD               	clrf	(vfpfcnvrt@convarg+5)& (0+255),b
  2731   001412  6BAE               	clrf	(vfpfcnvrt@convarg+6)& (0+255),b
  2732   001414  6BAF               	clrf	(vfpfcnvrt@convarg+7)& (0+255),b
  2733                           
  2734                           ;C:\Program Files\Microchip\xc8\v2.40\pic\sources\c99\common\doprnt.c: 1297:    *fmt = c
      +                          p+1;
  2735   001416  0E01               	movlw	1
  2736   001418  25B0               	addwf	vfpfcnvrt@cp& (0+255),w,b
  2737   00141A  6FA4               	movwf	??_vfpfcnvrt& (0+255),b
  2738   00141C  0E00               	movlw	0
  2739   00141E  21B1               	addwfc	(vfpfcnvrt@cp+1)& (0+255),w,b
  2740   001420  6FA5               	movwf	(??_vfpfcnvrt+1)& (0+255),b
  2741   001422  C0A0  FFD9         	movff	vfpfcnvrt@fmt,fsr2l
  2742   001426  C0A1  FFDA         	movff	vfpfcnvrt@fmt+1,fsr2h
  2743   00142A  C0A4  FFDE         	movff	??_vfpfcnvrt,postinc2
  2744   00142E  C0A5  FFDD         	movff	??_vfpfcnvrt+1,postdec2
  2745                           
  2746                           ;C:\Program Files\Microchip\xc8\v2.40\pic\sources\c99\common\doprnt.c: 1298:    switch (
      +                          *cp) {
  2747   001432  EF33  F00A         	goto	l5537
  2748   001436                     l5531:
  2749                           
  2750                           ; BSR set to: 0
  2751                           ;C:\Program Files\Microchip\xc8\v2.40\pic\sources\c99\common\doprnt.c: 1305:      return
      +                           (void) utoa(fp, convarg.llu);;	Return value of _vfpfcnvrt is never used
  2752   001436  C09E  F07E         	movff	vfpfcnvrt@fp,utoa@fp
  2753   00143A  C09F  F07F         	movff	vfpfcnvrt@fp+1,utoa@fp+1
  2754   00143E  C0A8  F080         	movff	vfpfcnvrt@convarg,utoa@d
  2755   001442  C0A9  F081         	movff	vfpfcnvrt@convarg+1,utoa@d+1
  2756   001446  C0AA  F082         	movff	vfpfcnvrt@convarg+2,utoa@d+2
  2757   00144A  C0AB  F083         	movff	vfpfcnvrt@convarg+3,utoa@d+3
  2758   00144E  C0AC  F084         	movff	vfpfcnvrt@convarg+4,utoa@d+4
  2759   001452  C0AD  F085         	movff	vfpfcnvrt@convarg+5,utoa@d+5
  2760   001456  C0AE  F086         	movff	vfpfcnvrt@convarg+6,utoa@d+6
  2761   00145A  C0AF  F087         	movff	vfpfcnvrt@convarg+7,utoa@d+7
  2762   00145E  ECC7  F005         	call	_utoa	;wreg free
  2763   001462  EF67  F00A         	goto	l1521
  2764   001466                     l5537:
  2765                           
  2766                           ; BSR set to: 0
  2767   001466  C0B0  FFF6         	movff	vfpfcnvrt@cp,tblptrl
  2768   00146A  C0B1  FFF7         	movff	vfpfcnvrt@cp+1,tblptrh
  2769   00146E                     	if	0	;tblptru may be non-zero
  2770   00146E                     	endif
  2771   00146E                     	if	0	;tblptru may be non-zero
  2772   00146E                     	endif
  2773   00146E  0008               	tblrd		*
  2774   001470  50F5               	movf	tablat,w,c
  2775   001472  6FA4               	movwf	??_vfpfcnvrt& (0+255),b
  2776   001474  6BA5               	clrf	(??_vfpfcnvrt+1)& (0+255),b
  2777                           
  2778                           ; Switch on 2 bytes has been partitioned into a top level switch of size 1, and 1 sub-sw
      +                          itches
  2779                           ; Switch size 1, requested type "simple"
  2780                           ; Number of cases is 1, Range of values is 0 to 0
  2781                           ; switch strategies available:
  2782                           ; Name         Instructions Cycles
  2783                           ; simple_byte            4     3 (average)
  2784                           ;	Chosen strategy is simple_byte
  2785   001476  51A5               	movf	(??_vfpfcnvrt+1)& (0+255),w,b
  2786   001478  0A00               	xorlw	0	; case 0
  2787   00147A  B4D8               	btfsc	status,2,c
  2788   00147C  EF42  F00A         	goto	l6181
  2789   001480  EF49  F00A         	goto	l5539
  2790   001484                     l6181:
  2791                           
  2792                           ; BSR set to: 0
  2793                           ; Switch size 1, requested type "simple"
  2794                           ; Number of cases is 1, Range of values is 117 to 117
  2795                           ; switch strategies available:
  2796                           ; Name         Instructions Cycles
  2797                           ; simple_byte            4     3 (average)
  2798                           ;	Chosen strategy is simple_byte
  2799   001484  51A4               	movf	??_vfpfcnvrt& (0+255),w,b
  2800   001486  0A75               	xorlw	117	; case 117
  2801   001488  B4D8               	btfsc	status,2,c
  2802   00148A  EF1B  F00A         	goto	l5531
  2803   00148E  EF49  F00A         	goto	l5539
  2804   001492                     l5539:
  2805                           
  2806                           ;C:\Program Files\Microchip\xc8\v2.40\pic\sources\c99\common\doprnt.c: 1509:         ++*
      +                          fmt;
  2807   001492  C0A0  FFD9         	movff	vfpfcnvrt@fmt,fsr2l
  2808   001496  C0A1  FFDA         	movff	vfpfcnvrt@fmt+1,fsr2h
  2809   00149A  2ADE               	incf	postinc2,f,c
  2810   00149C  0E00               	movlw	0
  2811   00149E  22DD               	addwfc	postdec2,f,c
  2812   0014A0  EF67  F00A         	goto	l1521
  2813   0014A4                     l5543:
  2814                           
  2815                           ;C:\Program Files\Microchip\xc8\v2.40\pic\sources\c99\common\doprnt.c: 1514:     fputc((
      +                          int)(*fmt)[0], fp);
  2816   0014A4  C0A0  FFD9         	movff	vfpfcnvrt@fmt,fsr2l
  2817   0014A8  C0A1  FFDA         	movff	vfpfcnvrt@fmt+1,fsr2h
  2818   0014AC  CFDE FFF6          	movff	postinc2,tblptrl
  2819   0014B0  CFDD FFF7          	movff	postdec2,tblptrh
  2820   0014B4                     	if	0	;tblptru may be non-zero
  2821   0014B4                     	endif
  2822   0014B4                     	if	0	;tblptru may be non-zero
  2823   0014B4                     	endif
  2824   0014B4  0008               	tblrd		*
  2825   0014B6  50F5               	movf	tablat,w,c
  2826   0014B8  0100               	movlb	0	; () banked
  2827   0014BA  6F63               	movwf	fputc@c& (0+255),b
  2828   0014BC  6B64               	clrf	(fputc@c+1)& (0+255),b
  2829   0014BE  C09E  F065         	movff	vfpfcnvrt@fp,fputc@fp
  2830   0014C2  C09F  F066         	movff	vfpfcnvrt@fp+1,fputc@fp+1
  2831   0014C6  EC69  F013         	call	_fputc	;wreg free
  2832   0014CA  EF49  F00A         	goto	l5539
  2833   0014CE                     l1521:
  2834   0014CE  0012               	return		;funcret
  2835   0014D0                     __end_of_vfpfcnvrt:
  2836                           	callstack 0
  2837                           
  2838 ;; *************** function _utoa *****************
  2839 ;; Defined at:
  2840 ;;		line 894 in file "C:\Program Files\Microchip\xc8\v2.40\pic\sources\c99\common\doprnt.c"
  2841 ;; Parameters:    Size  Location     Type
  2842 ;;  fp              2   30[BANK0 ] PTR struct _IO_FILE
  2843 ;;		 -> sprintf@f(11), 
  2844 ;;  d               8   32[BANK0 ] unsigned long long 
  2845 ;; Auto vars:     Size  Location     Type
  2846 ;;  n               8   52[BANK0 ] unsigned long long 
  2847 ;;  i               2   60[BANK0 ] int 
  2848 ;;  p               2   50[BANK0 ] int 
  2849 ;;  w               2   48[BANK0 ] int 
  2850 ;; Return value:  Size  Location     Type
  2851 ;;                  1    wreg      void 
  2852 ;; Registers used:
  2853 ;;		wreg, fsr1l, fsr1h, fsr2l, fsr2h, status,2, status,0, cstack
  2854 ;; Tracked objects:
  2855 ;;		On entry : 0/0
  2856 ;;		On exit  : 0/0
  2857 ;;		Unchanged: 0/0
  2858 ;; Data sizes:     COMRAM   BANK0   BANK1   BANK2   BANK3   BANK4   BANK5   BANK6   BANK7
  2859 ;;      Params:         0      10       0       0       0       0       0       0       0
  2860 ;;      Locals:         0      14       0       0       0       0       0       0       0
  2861 ;;      Temps:          0       8       0       0       0       0       0       0       0
  2862 ;;      Totals:         0      32       0       0       0       0       0       0       0
  2863 ;;Total ram usage:       32 bytes
  2864 ;; Hardware stack levels used: 1
  2865 ;; Hardware stack levels required when called: 15
  2866 ;; This function calls:
  2867 ;;		___lodiv
  2868 ;;		___lomod
  2869 ;;		_pad
  2870 ;; This function is called by:
  2871 ;;		_vfpfcnvrt
  2872 ;; This function uses a non-reentrant model
  2873 ;;
  2874                           
  2875                           	psect	text7
  2876   000B8E                     __ptext7:
  2877                           	callstack 0
  2878   000B8E                     _utoa:
  2879                           	callstack 12
  2880   000B8E                     
  2881                           ;C:\Program Files\Microchip\xc8\v2.40\pic\sources\c99\common\doprnt.c: 894: static void 
      +                          utoa(FILE *fp, unsigned long long d);C:\Program Files\Microchip\xc8\v2.40\pic\sources\c9
      +                          9\common\doprnt.c: 895: {;C:\Program Files\Microchip\xc8\v2.40\pic\sources\c99\common\do
      +                          prnt.c: 896:     int i, p, w;;C:\Program Files\Microchip\xc8\v2.40\pic\sources\c99\commo
      +                          n\doprnt.c: 897:     unsigned long long n;;C:\Program Files\Microchip\xc8\v2.40\pic\sour
      +                          ces\c99\common\doprnt.c: 905:     p = (0 < prec) ? prec : 1;
  2882   000B8E  0100               	movlb	0	; () banked
  2883   000B90  BFEE               	btfsc	(_prec+1)& (0+255),7,b
  2884   000B92  EFD5  F005         	goto	u4290
  2885   000B96  51EE               	movf	(_prec+1)& (0+255),w,b
  2886   000B98  E106               	bnz	u4291
  2887   000B9A  05ED               	decf	_prec& (0+255),w,b
  2888   000B9C  B0D8               	btfsc	status,0,c
  2889   000B9E  EFD3  F005         	goto	u4291
  2890   000BA2  EFD5  F005         	goto	u4290
  2891   000BA6                     u4291:
  2892   000BA6  EFDB  F005         	goto	l1504
  2893   000BAA                     u4290:
  2894   000BAA                     
  2895                           ; BSR set to: 0
  2896   000BAA  0E00               	movlw	0
  2897   000BAC  6F93               	movwf	(utoa@p+1)& (0+255),b
  2898   000BAE  0E01               	movlw	1
  2899   000BB0  6F92               	movwf	utoa@p& (0+255),b
  2900   000BB2  EFDF  F005         	goto	l1506
  2901   000BB6                     l1504:
  2902                           
  2903                           ; BSR set to: 0
  2904   000BB6  C0ED  F092         	movff	_prec,utoa@p
  2905   000BBA  C0EE  F093         	movff	_prec+1,utoa@p+1
  2906   000BBE                     l1506:
  2907                           
  2908                           ; BSR set to: 0
  2909                           ;C:\Program Files\Microchip\xc8\v2.40\pic\sources\c99\common\doprnt.c: 906:     w = widt
      +                          h;
  2910   000BBE  C0EB  F090         	movff	_width,utoa@w
  2911   000BC2  C0EC  F091         	movff	_width+1,utoa@w+1
  2912                           
  2913                           ;C:\Program Files\Microchip\xc8\v2.40\pic\sources\c99\common\doprnt.c: 909:     n = d;
  2914   000BC6  C080  F094         	movff	utoa@d,utoa@n
  2915   000BCA  C081  F095         	movff	utoa@d+1,utoa@n+1
  2916   000BCE  C082  F096         	movff	utoa@d+2,utoa@n+2
  2917   000BD2  C083  F097         	movff	utoa@d+3,utoa@n+3
  2918   000BD6  C084  F098         	movff	utoa@d+4,utoa@n+4
  2919   000BDA  C085  F099         	movff	utoa@d+5,utoa@n+5
  2920   000BDE  C086  F09A         	movff	utoa@d+6,utoa@n+6
  2921   000BE2  C087  F09B         	movff	utoa@d+7,utoa@n+7
  2922   000BE6                     
  2923                           ; BSR set to: 0
  2924                           ;C:\Program Files\Microchip\xc8\v2.40\pic\sources\c99\common\doprnt.c: 910:     i = size
      +                          of(dbuf) - 1;
  2925   000BE6  0E00               	movlw	0
  2926   000BE8  6F9D               	movwf	(utoa@i+1)& (0+255),b
  2927   000BEA  0E1F               	movlw	31
  2928   000BEC  6F9C               	movwf	utoa@i& (0+255),b
  2929   000BEE                     
  2930                           ; BSR set to: 0
  2931                           ;C:\Program Files\Microchip\xc8\v2.40\pic\sources\c99\common\doprnt.c: 911:     dbuf[i] 
      +                          = '\0';
  2932   000BEE  0E00               	movlw	0
  2933   000BF0  0101               	movlb	1	; () banked
  2934   000BF2  6FD4               	movwf	(_dbuf+31)& (0+255),b
  2935                           
  2936                           ;C:\Program Files\Microchip\xc8\v2.40\pic\sources\c99\common\doprnt.c: 912:     while (i
      +                           && (n || (0 < p)
  2937   000BF4  EF73  F006         	goto	l5475
  2938   000BF8                     l5465:
  2939                           
  2940                           ; BSR set to: 0
  2941                           ;C:\Program Files\Microchip\xc8\v2.40\pic\sources\c99\common\doprnt.c: 916:     )) {;C:\
      +                          Program Files\Microchip\xc8\v2.40\pic\sources\c99\common\doprnt.c: 917:         --i;
  2942   000BF8  079C               	decf	utoa@i& (0+255),f,b
  2943   000BFA  A0D8               	btfss	status,0,c
  2944   000BFC  079D               	decf	(utoa@i+1)& (0+255),f,b
  2945   000BFE                     
  2946                           ; BSR set to: 0
  2947                           ;C:\Program Files\Microchip\xc8\v2.40\pic\sources\c99\common\doprnt.c: 918:         dbuf
      +                          [i] = '0' + (n % 10);
  2948   000BFE  0EB5               	movlw	low _dbuf
  2949   000C00  259C               	addwf	utoa@i& (0+255),w,b
  2950   000C02  6ED9               	movwf	fsr2l,c
  2951   000C04  0E01               	movlw	high _dbuf
  2952   000C06  219D               	addwfc	(utoa@i+1)& (0+255),w,b
  2953   000C08  6EDA               	movwf	fsr2h,c
  2954   000C0A  C094  F063         	movff	utoa@n,___lomod@dividend
  2955   000C0E  C095  F064         	movff	utoa@n+1,___lomod@dividend+1
  2956   000C12  C096  F065         	movff	utoa@n+2,___lomod@dividend+2
  2957   000C16  C097  F066         	movff	utoa@n+3,___lomod@dividend+3
  2958   000C1A  C098  F067         	movff	utoa@n+4,___lomod@dividend+4
  2959   000C1E  C099  F068         	movff	utoa@n+5,___lomod@dividend+5
  2960   000C22  C09A  F069         	movff	utoa@n+6,___lomod@dividend+6
  2961   000C26  C09B  F06A         	movff	utoa@n+7,___lomod@dividend+7
  2962   000C2A  0E0A               	movlw	10
  2963   000C2C  6F6B               	movwf	___lomod@divisor& (0+255),b
  2964   000C2E  0E00               	movlw	0
  2965   000C30  6F6C               	movwf	(___lomod@divisor+1)& (0+255),b
  2966   000C32  0E00               	movlw	0
  2967   000C34  6F6D               	movwf	(___lomod@divisor+2)& (0+255),b
  2968   000C36  0E00               	movlw	0
  2969   000C38  6F6E               	movwf	(___lomod@divisor+3)& (0+255),b
  2970   000C3A  0E00               	movlw	0
  2971   000C3C  6F6F               	movwf	(___lomod@divisor+4)& (0+255),b
  2972   000C3E  0E00               	movlw	0
  2973   000C40  6F70               	movwf	(___lomod@divisor+5)& (0+255),b
  2974   000C42  0E00               	movlw	0
  2975   000C44  6F71               	movwf	(___lomod@divisor+6)& (0+255),b
  2976   000C46  0E00               	movlw	0
  2977   000C48  6F72               	movwf	(___lomod@divisor+7)& (0+255),b
  2978   000C4A  EC00  F013         	call	___lomod	;wreg free
  2979   000C4E  C063  F088         	movff	?___lomod,??_utoa
  2980   000C52  C064  F089         	movff	?___lomod+1,??_utoa+1
  2981   000C56  C065  F08A         	movff	?___lomod+2,??_utoa+2
  2982   000C5A  C066  F08B         	movff	?___lomod+3,??_utoa+3
  2983   000C5E  C067  F08C         	movff	?___lomod+4,??_utoa+4
  2984   000C62  C068  F08D         	movff	?___lomod+5,??_utoa+5
  2985   000C66  C069  F08E         	movff	?___lomod+6,??_utoa+6
  2986   000C6A  C06A  F08F         	movff	?___lomod+7,??_utoa+7
  2987   000C6E  0100               	movlb	0	; () banked
  2988   000C70  5188               	movf	??_utoa& (0+255),w,b
  2989   000C72  0F30               	addlw	48
  2990   000C74  6EDF               	movwf	indf2,c
  2991   000C76                     
  2992                           ; BSR set to: 0
  2993                           ;C:\Program Files\Microchip\xc8\v2.40\pic\sources\c99\common\doprnt.c: 919:         --p;
  2994   000C76  0792               	decf	utoa@p& (0+255),f,b
  2995   000C78  A0D8               	btfss	status,0,c
  2996   000C7A  0793               	decf	(utoa@p+1)& (0+255),f,b
  2997   000C7C                     
  2998                           ; BSR set to: 0
  2999                           ;C:\Program Files\Microchip\xc8\v2.40\pic\sources\c99\common\doprnt.c: 920:         --w;
  3000   000C7C  0790               	decf	utoa@w& (0+255),f,b
  3001   000C7E  A0D8               	btfss	status,0,c
  3002   000C80  0791               	decf	(utoa@w+1)& (0+255),f,b
  3003   000C82                     
  3004                           ; BSR set to: 0
  3005                           ;C:\Program Files\Microchip\xc8\v2.40\pic\sources\c99\common\doprnt.c: 921:         n = 
      +                          n / 10;
  3006   000C82  C094  F063         	movff	utoa@n,___lodiv@dividend
  3007   000C86  C095  F064         	movff	utoa@n+1,___lodiv@dividend+1
  3008   000C8A  C096  F065         	movff	utoa@n+2,___lodiv@dividend+2
  3009   000C8E  C097  F066         	movff	utoa@n+3,___lodiv@dividend+3
  3010   000C92  C098  F067         	movff	utoa@n+4,___lodiv@dividend+4
  3011   000C96  C099  F068         	movff	utoa@n+5,___lodiv@dividend+5
  3012   000C9A  C09A  F069         	movff	utoa@n+6,___lodiv@dividend+6
  3013   000C9E  C09B  F06A         	movff	utoa@n+7,___lodiv@dividend+7
  3014   000CA2  0E0A               	movlw	10
  3015   000CA4  6F6B               	movwf	___lodiv@divisor& (0+255),b
  3016   000CA6  0E00               	movlw	0
  3017   000CA8  6F6C               	movwf	(___lodiv@divisor+1)& (0+255),b
  3018   000CAA  0E00               	movlw	0
  3019   000CAC  6F6D               	movwf	(___lodiv@divisor+2)& (0+255),b
  3020   000CAE  0E00               	movlw	0
  3021   000CB0  6F6E               	movwf	(___lodiv@divisor+3)& (0+255),b
  3022   000CB2  0E00               	movlw	0
  3023   000CB4  6F6F               	movwf	(___lodiv@divisor+4)& (0+255),b
  3024   000CB6  0E00               	movlw	0
  3025   000CB8  6F70               	movwf	(___lodiv@divisor+5)& (0+255),b
  3026   000CBA  0E00               	movlw	0
  3027   000CBC  6F71               	movwf	(___lodiv@divisor+6)& (0+255),b
  3028   000CBE  0E00               	movlw	0
  3029   000CC0  6F72               	movwf	(___lodiv@divisor+7)& (0+255),b
  3030   000CC2  EC97  F011         	call	___lodiv	;wreg free
  3031   000CC6  C063  F094         	movff	?___lodiv,utoa@n
  3032   000CCA  C064  F095         	movff	?___lodiv+1,utoa@n+1
  3033   000CCE  C065  F096         	movff	?___lodiv+2,utoa@n+2
  3034   000CD2  C066  F097         	movff	?___lodiv+3,utoa@n+3
  3035   000CD6  C067  F098         	movff	?___lodiv+4,utoa@n+4
  3036   000CDA  C068  F099         	movff	?___lodiv+5,utoa@n+5
  3037   000CDE  C069  F09A         	movff	?___lodiv+6,utoa@n+6
  3038   000CE2  C06A  F09B         	movff	?___lodiv+7,utoa@n+7
  3039   000CE6                     l5475:
  3040                           
  3041                           ;C:\Program Files\Microchip\xc8\v2.40\pic\sources\c99\common\doprnt.c: 912:     while (i
      +                           && (n || (0 < p)
  3042   000CE6  0100               	movlb	0	; () banked
  3043   000CE8  519C               	movf	utoa@i& (0+255),w,b
  3044   000CEA  119D               	iorwf	(utoa@i+1)& (0+255),w,b
  3045   000CEC  B4D8               	btfsc	status,2,c
  3046   000CEE  EF7B  F006         	goto	u4301
  3047   000CF2  EF7D  F006         	goto	u4300
  3048   000CF6                     u4301:
  3049   000CF6  EF99  F006         	goto	l5481
  3050   000CFA                     u4300:
  3051   000CFA                     
  3052                           ; BSR set to: 0
  3053   000CFA  5194               	movf	utoa@n& (0+255),w,b
  3054   000CFC  1195               	iorwf	(utoa@n+1)& (0+255),w,b
  3055   000CFE  1196               	iorwf	(utoa@n+2)& (0+255),w,b
  3056   000D00  1197               	iorwf	(utoa@n+3)& (0+255),w,b
  3057   000D02  1198               	iorwf	(utoa@n+4)& (0+255),w,b
  3058   000D04  1199               	iorwf	(utoa@n+5)& (0+255),w,b
  3059   000D06  119A               	iorwf	(utoa@n+6)& (0+255),w,b
  3060   000D08  119B               	iorwf	(utoa@n+7)& (0+255),w,b
  3061   000D0A  A4D8               	btfss	status,2,c
  3062   000D0C  EF8A  F006         	goto	u4311
  3063   000D10  EF8C  F006         	goto	u4310
  3064   000D14                     u4311:
  3065   000D14  EFFC  F005         	goto	l5465
  3066   000D18                     u4310:
  3067   000D18                     
  3068                           ; BSR set to: 0
  3069   000D18  BF93               	btfsc	(utoa@p+1)& (0+255),7,b
  3070   000D1A  EF99  F006         	goto	u4320
  3071   000D1E  5193               	movf	(utoa@p+1)& (0+255),w,b
  3072   000D20  E106               	bnz	u4321
  3073   000D22  0592               	decf	utoa@p& (0+255),w,b
  3074   000D24  B0D8               	btfsc	status,0,c
  3075   000D26  EF97  F006         	goto	u4321
  3076   000D2A  EF99  F006         	goto	u4320
  3077   000D2E                     u4321:
  3078   000D2E  EFFC  F005         	goto	l5465
  3079   000D32                     u4320:
  3080   000D32                     l5481:
  3081                           
  3082                           ; BSR set to: 0
  3083                           ;C:\Program Files\Microchip\xc8\v2.40\pic\sources\c99\common\doprnt.c: 925:     return (
      +                          void) pad(fp, &dbuf[i], w);
  3084   000D32  C07E  F073         	movff	utoa@fp,pad@fp
  3085   000D36  C07F  F074         	movff	utoa@fp+1,pad@fp+1
  3086   000D3A  0EB5               	movlw	low _dbuf
  3087   000D3C  259C               	addwf	utoa@i& (0+255),w,b
  3088   000D3E  6F75               	movwf	pad@buf& (0+255),b
  3089   000D40  0E01               	movlw	high _dbuf
  3090   000D42  219D               	addwfc	(utoa@i+1)& (0+255),w,b
  3091   000D44  6F76               	movwf	(pad@buf+1)& (0+255),b
  3092   000D46  C090  F077         	movff	utoa@w,pad@p
  3093   000D4A  C091  F078         	movff	utoa@w+1,pad@p+1
  3094   000D4E  ECCD  F015         	call	_pad	;wreg free
  3095   000D52  0012               	return		;funcret
  3096   000D54                     __end_of_utoa:
  3097                           	callstack 0
  3098                           
  3099 ;; *************** function _pad *****************
  3100 ;; Defined at:
  3101 ;;		line 133 in file "C:\Program Files\Microchip\xc8\v2.40\pic\sources\c99\common\doprnt.c"
  3102 ;; Parameters:    Size  Location     Type
  3103 ;;  fp              2   19[BANK0 ] PTR struct _IO_FILE
  3104 ;;		 -> sprintf@f(11), 
  3105 ;;  buf             2   21[BANK0 ] PTR unsigned char 
  3106 ;;		 -> dbuf(32), 
  3107 ;;  p               2   23[BANK0 ] int 
  3108 ;; Auto vars:     Size  Location     Type
  3109 ;;  w               2   28[BANK0 ] int 
  3110 ;;  i               2   26[BANK0 ] int 
  3111 ;; Return value:  Size  Location     Type
  3112 ;;                  1    wreg      void 
  3113 ;; Registers used:
  3114 ;;		wreg, fsr1l, fsr1h, fsr2l, fsr2h, status,2, status,0, cstack
  3115 ;; Tracked objects:
  3116 ;;		On entry : 0/0
  3117 ;;		On exit  : 0/0
  3118 ;;		Unchanged: 0/0
  3119 ;; Data sizes:     COMRAM   BANK0   BANK1   BANK2   BANK3   BANK4   BANK5   BANK6   BANK7
  3120 ;;      Params:         0       6       0       0       0       0       0       0       0
  3121 ;;      Locals:         0       4       0       0       0       0       0       0       0
  3122 ;;      Temps:          0       1       0       0       0       0       0       0       0
  3123 ;;      Totals:         0      11       0       0       0       0       0       0       0
  3124 ;;Total ram usage:       11 bytes
  3125 ;; Hardware stack levels used: 1
  3126 ;; Hardware stack levels required when called: 14
  3127 ;; This function calls:
  3128 ;;		_fputc
  3129 ;;		_fputs
  3130 ;; This function is called by:
  3131 ;;		_utoa
  3132 ;; This function uses a non-reentrant model
  3133 ;;
  3134                           
  3135                           	psect	text8
  3136   002B9A                     __ptext8:
  3137                           	callstack 0
  3138   002B9A                     _pad:
  3139                           	callstack 12
  3140   002B9A                     
  3141                           ;C:\Program Files\Microchip\xc8\v2.40\pic\sources\c99\common\doprnt.c: 133: static void 
      +                          pad(FILE *fp, char *buf, int p);C:\Program Files\Microchip\xc8\v2.40\pic\sources\c99\com
      +                          mon\doprnt.c: 134: {;C:\Program Files\Microchip\xc8\v2.40\pic\sources\c99\common\doprnt.
      +                          c: 135:     int i, w;;C:\Program Files\Microchip\xc8\v2.40\pic\sources\c99\common\doprnt
      +                          .c: 145:     w = (p < 0) ? 0 : p;
  3142   002B9A  0100               	movlb	0	; () banked
  3143   002B9C  BF78               	btfsc	(pad@p+1)& (0+255),7,b
  3144   002B9E  EFD3  F015         	goto	u4271
  3145   002BA2  EFD5  F015         	goto	u4270
  3146   002BA6                     u4271:
  3147   002BA6  EFDB  F015         	goto	l5447
  3148   002BAA                     u4270:
  3149   002BAA                     
  3150                           ; BSR set to: 0
  3151   002BAA  C077  F07C         	movff	pad@p,pad@w
  3152   002BAE  C078  F07D         	movff	pad@p+1,pad@w+1
  3153   002BB2  EFDF  F015         	goto	l1496
  3154   002BB6                     l5447:
  3155                           
  3156                           ; BSR set to: 0
  3157   002BB6  0E00               	movlw	0
  3158   002BB8  6F7D               	movwf	(pad@w+1)& (0+255),b
  3159   002BBA  0E00               	movlw	0
  3160   002BBC  6F7C               	movwf	pad@w& (0+255),b
  3161   002BBE                     l1496:
  3162                           
  3163                           ; BSR set to: 0
  3164                           ;C:\Program Files\Microchip\xc8\v2.40\pic\sources\c99\common\doprnt.c: 146:     i = 0;
  3165   002BBE  0E00               	movlw	0
  3166   002BC0  6F7B               	movwf	(pad@i+1)& (0+255),b
  3167   002BC2  0E00               	movlw	0
  3168   002BC4  6F7A               	movwf	pad@i& (0+255),b
  3169                           
  3170                           ;C:\Program Files\Microchip\xc8\v2.40\pic\sources\c99\common\doprnt.c: 147:     while (i
      +                           < w) {
  3171   002BC6  EFF2  F015         	goto	l5453
  3172   002BCA                     l5449:
  3173                           
  3174                           ; BSR set to: 0
  3175                           ;C:\Program Files\Microchip\xc8\v2.40\pic\sources\c99\common\doprnt.c: 148:         fput
      +                          c(' ', fp);
  3176   002BCA  0E00               	movlw	0
  3177   002BCC  6F64               	movwf	(fputc@c+1)& (0+255),b
  3178   002BCE  0E20               	movlw	32
  3179   002BD0  6F63               	movwf	fputc@c& (0+255),b
  3180   002BD2  C073  F065         	movff	pad@fp,fputc@fp
  3181   002BD6  C074  F066         	movff	pad@fp+1,fputc@fp+1
  3182   002BDA  EC69  F013         	call	_fputc	;wreg free
  3183   002BDE                     
  3184                           ;C:\Program Files\Microchip\xc8\v2.40\pic\sources\c99\common\doprnt.c: 149:         ++i;
  3185   002BDE  0100               	movlb	0	; () banked
  3186   002BE0  4B7A               	infsnz	pad@i& (0+255),f,b
  3187   002BE2  2B7B               	incf	(pad@i+1)& (0+255),f,b
  3188   002BE4                     l5453:
  3189                           
  3190                           ; BSR set to: 0
  3191                           ;C:\Program Files\Microchip\xc8\v2.40\pic\sources\c99\common\doprnt.c: 147:     while (i
      +                           < w) {
  3192   002BE4  517C               	movf	pad@w& (0+255),w,b
  3193   002BE6  5D7A               	subwf	pad@i& (0+255),w,b
  3194   002BE8  517B               	movf	(pad@i+1)& (0+255),w,b
  3195   002BEA  0A80               	xorlw	128
  3196   002BEC  6F79               	movwf	??_pad& (0+255),b
  3197   002BEE  517D               	movf	(pad@w+1)& (0+255),w,b
  3198   002BF0  0A80               	xorlw	128
  3199   002BF2  5979               	subwfb	??_pad& (0+255),w,b
  3200   002BF4  A0D8               	btfss	status,0,c
  3201   002BF6  EFFF  F015         	goto	u4281
  3202   002BFA  EF01  F016         	goto	u4280
  3203   002BFE                     u4281:
  3204   002BFE  EFE5  F015         	goto	l5449
  3205   002C02                     u4280:
  3206   002C02                     
  3207                           ; BSR set to: 0
  3208                           ;C:\Program Files\Microchip\xc8\v2.40\pic\sources\c99\common\doprnt.c: 156:         fput
      +                          s((const char *)buf, fp);
  3209   002C02  C075  F06C         	movff	pad@buf,fputs@s
  3210   002C06  C076  F06D         	movff	pad@buf+1,fputs@s+1
  3211   002C0A  C073  F06E         	movff	pad@fp,fputs@fp
  3212   002C0E  C074  F06F         	movff	pad@fp+1,fputs@fp+1
  3213   002C12  EC7A  F017         	call	_fputs	;wreg free
  3214   002C16  0012               	return		;funcret
  3215   002C18                     __end_of_pad:
  3216                           	callstack 0
  3217                           
  3218 ;; *************** function _fputs *****************
  3219 ;; Defined at:
  3220 ;;		line 8 in file "C:\Program Files\Microchip\xc8\v2.40\pic\sources\c99\common\nf_fputs.c"
  3221 ;; Parameters:    Size  Location     Type
  3222 ;;  s               2   12[BANK0 ] PTR const unsigned char 
  3223 ;;		 -> dbuf(32), 
  3224 ;;  fp              2   14[BANK0 ] PTR struct _IO_FILE
  3225 ;;		 -> sprintf@f(11), 
  3226 ;; Auto vars:     Size  Location     Type
  3227 ;;  i               2   17[BANK0 ] int 
  3228 ;;  c               1   16[BANK0 ] unsigned char 
  3229 ;; Return value:  Size  Location     Type
  3230 ;;                  2   12[BANK0 ] int 
  3231 ;; Registers used:
  3232 ;;		wreg, fsr1l, fsr1h, fsr2l, fsr2h, status,2, status,0, cstack
  3233 ;; Tracked objects:
  3234 ;;		On entry : 0/0
  3235 ;;		On exit  : 0/0
  3236 ;;		Unchanged: 0/0
  3237 ;; Data sizes:     COMRAM   BANK0   BANK1   BANK2   BANK3   BANK4   BANK5   BANK6   BANK7
  3238 ;;      Params:         0       4       0       0       0       0       0       0       0
  3239 ;;      Locals:         0       3       0       0       0       0       0       0       0
  3240 ;;      Temps:          0       0       0       0       0       0       0       0       0
  3241 ;;      Totals:         0       7       0       0       0       0       0       0       0
  3242 ;;Total ram usage:        7 bytes
  3243 ;; Hardware stack levels used: 1
  3244 ;; Hardware stack levels required when called: 13
  3245 ;; This function calls:
  3246 ;;		_fputc
  3247 ;; This function is called by:
  3248 ;;		_pad
  3249 ;; This function uses a non-reentrant model
  3250 ;;
  3251                           
  3252                           	psect	text9
  3253   002EF4                     __ptext9:
  3254                           	callstack 0
  3255   002EF4                     _fputs:
  3256                           	callstack 12
  3257   002EF4  0E00               	movlw	0
  3258   002EF6  0100               	movlb	0	; () banked
  3259   002EF8  6F72               	movwf	(fputs@i+1)& (0+255),b
  3260   002EFA  0E00               	movlw	0
  3261   002EFC  6F71               	movwf	fputs@i& (0+255),b
  3262   002EFE  EF8D  F017         	goto	l5403
  3263   002F02                     l5399:
  3264                           
  3265                           ; BSR set to: 0
  3266   002F02  C070  F063         	movff	fputs@c,fputc@c
  3267   002F06  6B64               	clrf	(fputc@c+1)& (0+255),b
  3268   002F08  C06E  F065         	movff	fputs@fp,fputc@fp
  3269   002F0C  C06F  F066         	movff	fputs@fp+1,fputc@fp+1
  3270   002F10  EC69  F013         	call	_fputc	;wreg free
  3271   002F14  0100               	movlb	0	; () banked
  3272   002F16  4B71               	infsnz	fputs@i& (0+255),f,b
  3273   002F18  2B72               	incf	(fputs@i+1)& (0+255),f,b
  3274   002F1A                     l5403:
  3275                           
  3276                           ; BSR set to: 0
  3277   002F1A  5171               	movf	fputs@i& (0+255),w,b
  3278   002F1C  256C               	addwf	fputs@s& (0+255),w,b
  3279   002F1E  6ED9               	movwf	fsr2l,c
  3280   002F20  5172               	movf	(fputs@i+1)& (0+255),w,b
  3281   002F22  216D               	addwfc	(fputs@s+1)& (0+255),w,b
  3282   002F24  6EDA               	movwf	fsr2h,c
  3283   002F26  50DF               	movf	indf2,w,c
  3284   002F28  6F70               	movwf	fputs@c& (0+255),b
  3285   002F2A  5170               	movf	fputs@c& (0+255),w,b
  3286   002F2C  A4D8               	btfss	status,2,c
  3287   002F2E  EF9B  F017         	goto	u4191
  3288   002F32  EF9D  F017         	goto	u4190
  3289   002F36                     u4191:
  3290   002F36  EF81  F017         	goto	l5399
  3291   002F3A                     u4190:
  3292   002F3A                     
  3293                           ; BSR set to: 0
  3294   002F3A  0012               	return		;funcret
  3295   002F3C                     __end_of_fputs:
  3296                           	callstack 0
  3297                           
  3298 ;; *************** function _fputc *****************
  3299 ;; Defined at:
  3300 ;;		line 8 in file "C:\Program Files\Microchip\xc8\v2.40\pic\sources\c99\common\nf_fputc.c"
  3301 ;; Parameters:    Size  Location     Type
  3302 ;;  c               2    3[BANK0 ] int 
  3303 ;;  fp              2    5[BANK0 ] PTR struct _IO_FILE
  3304 ;;		 -> sprintf@f(11), 
  3305 ;; Auto vars:     Size  Location     Type
  3306 ;;		None
  3307 ;; Return value:  Size  Location     Type
  3308 ;;                  2    3[BANK0 ] int 
  3309 ;; Registers used:
  3310 ;;		wreg, fsr1l, fsr1h, fsr2l, fsr2h, status,2, status,0, cstack
  3311 ;; Tracked objects:
  3312 ;;		On entry : 0/0
  3313 ;;		On exit  : 0/0
  3314 ;;		Unchanged: 0/0
  3315 ;; Data sizes:     COMRAM   BANK0   BANK1   BANK2   BANK3   BANK4   BANK5   BANK6   BANK7
  3316 ;;      Params:         0       4       0       0       0       0       0       0       0
  3317 ;;      Locals:         0       0       0       0       0       0       0       0       0
  3318 ;;      Temps:          0       5       0       0       0       0       0       0       0
  3319 ;;      Totals:         0       9       0       0       0       0       0       0       0
  3320 ;;Total ram usage:        9 bytes
  3321 ;; Hardware stack levels used: 1
  3322 ;; Hardware stack levels required when called: 12
  3323 ;; This function calls:
  3324 ;;		_putch
  3325 ;; This function is called by:
  3326 ;;		_pad
  3327 ;;		_vfpfcnvrt
  3328 ;;		_fputs
  3329 ;; This function uses a non-reentrant model
  3330 ;;
  3331                           
  3332                           	psect	text10
  3333   0026D2                     __ptext10:
  3334                           	callstack 0
  3335   0026D2                     _fputc:
  3336                           	callstack 12
  3337   0026D2  0100               	movlb	0	; () banked
  3338   0026D4  5165               	movf	fputc@fp& (0+255),w,b
  3339   0026D6  1166               	iorwf	(fputc@fp+1)& (0+255),w,b
  3340   0026D8  B4D8               	btfsc	status,2,c
  3341   0026DA  EF71  F013         	goto	u4151
  3342   0026DE  EF73  F013         	goto	u4150
  3343   0026E2                     u4151:
  3344   0026E2  EF7C  F013         	goto	l5387
  3345   0026E6                     u4150:
  3346   0026E6                     
  3347                           ; BSR set to: 0
  3348   0026E6  5165               	movf	fputc@fp& (0+255),w,b
  3349   0026E8  1166               	iorwf	(fputc@fp+1)& (0+255),w,b
  3350   0026EA  A4D8               	btfss	status,2,c
  3351   0026EC  EF7A  F013         	goto	u4161
  3352   0026F0  EF7C  F013         	goto	u4160
  3353   0026F4                     u4161:
  3354   0026F4  EF81  F013         	goto	l5389
  3355   0026F8                     u4160:
  3356   0026F8                     l5387:
  3357                           
  3358                           ; BSR set to: 0
  3359   0026F8  5163               	movf	fputc@c& (0+255),w,b
  3360   0026FA  ECA8  F018         	call	_putch
  3361   0026FE  EFCE  F013         	goto	l1540
  3362   002702                     l5389:
  3363                           
  3364                           ; BSR set to: 0
  3365   002702  EE20 F009          	lfsr	2,9
  3366   002706  5165               	movf	fputc@fp& (0+255),w,b
  3367   002708  26D9               	addwf	fsr2l,f,c
  3368   00270A  5166               	movf	(fputc@fp+1)& (0+255),w,b
  3369   00270C  22DA               	addwfc	fsr2h,f,c
  3370   00270E  50DE               	movf	postinc2,w,c
  3371   002710  10DE               	iorwf	postinc2,w,c
  3372   002712  B4D8               	btfsc	status,2,c
  3373   002714  EF8E  F013         	goto	u4171
  3374   002718  EF90  F013         	goto	u4170
  3375   00271C                     u4171:
  3376   00271C  EFAB  F013         	goto	l5393
  3377   002720                     u4170:
  3378   002720                     
  3379                           ; BSR set to: 0
  3380   002720  EE20 F009          	lfsr	2,9
  3381   002724  5165               	movf	fputc@fp& (0+255),w,b
  3382   002726  26D9               	addwf	fsr2l,f,c
  3383   002728  5166               	movf	(fputc@fp+1)& (0+255),w,b
  3384   00272A  22DA               	addwfc	fsr2h,f,c
  3385   00272C  EE10 F003          	lfsr	1,3
  3386   002730  5165               	movf	fputc@fp& (0+255),w,b
  3387   002732  26E1               	addwf	fsr1l,f,c
  3388   002734  5166               	movf	(fputc@fp+1)& (0+255),w,b
  3389   002736  22E2               	addwfc	fsr1h,f,c
  3390   002738  50DE               	movf	postinc2,w,c
  3391   00273A  5CE6               	subwf	postinc1,w,c
  3392   00273C  50E6               	movf	postinc1,w,c
  3393   00273E  0A80               	xorlw	128
  3394   002740  6F6B               	movwf	(??_fputc+4)& (0+255),b
  3395   002742  50DE               	movf	postinc2,w,c
  3396   002744  0A80               	xorlw	128
  3397   002746  596B               	subwfb	(??_fputc+4)& (0+255),w,b
  3398   002748  B0D8               	btfsc	status,0,c
  3399   00274A  EFA9  F013         	goto	u4181
  3400   00274E  EFAB  F013         	goto	u4180
  3401   002752                     u4181:
  3402   002752  EFCE  F013         	goto	l1540
  3403   002756                     u4180:
  3404   002756                     l5393:
  3405                           
  3406                           ; BSR set to: 0
  3407   002756  EE20 F003          	lfsr	2,3
  3408   00275A  5165               	movf	fputc@fp& (0+255),w,b
  3409   00275C  26D9               	addwf	fsr2l,f,c
  3410   00275E  5166               	movf	(fputc@fp+1)& (0+255),w,b
  3411   002760  22DA               	addwfc	fsr2h,f,c
  3412   002762  CFDE F067          	movff	postinc2,??_fputc
  3413   002766  CFDD F068          	movff	postdec2,??_fputc+1
  3414   00276A  C065  FFD9         	movff	fputc@fp,fsr2l
  3415   00276E  C066  FFDA         	movff	fputc@fp+1,fsr2h
  3416   002772  CFDE F069          	movff	postinc2,??_fputc+2
  3417   002776  CFDD F06A          	movff	postdec2,??_fputc+3
  3418   00277A  5167               	movf	??_fputc& (0+255),w,b
  3419   00277C  2569               	addwf	(??_fputc+2)& (0+255),w,b
  3420   00277E  6ED9               	movwf	fsr2l,c
  3421   002780  5168               	movf	(??_fputc+1)& (0+255),w,b
  3422   002782  216A               	addwfc	(??_fputc+3)& (0+255),w,b
  3423   002784  6EDA               	movwf	fsr2h,c
  3424   002786  C063  FFDF         	movff	fputc@c,indf2
  3425   00278A  EE20 F003          	lfsr	2,3
  3426   00278E  5165               	movf	fputc@fp& (0+255),w,b
  3427   002790  26D9               	addwf	fsr2l,f,c
  3428   002792  5166               	movf	(fputc@fp+1)& (0+255),w,b
  3429   002794  22DA               	addwfc	fsr2h,f,c
  3430   002796  2ADE               	incf	postinc2,f,c
  3431   002798  0E00               	movlw	0
  3432   00279A  22DD               	addwfc	postdec2,f,c
  3433   00279C                     l1540:
  3434   00279C  0012               	return		;funcret
  3435   00279E                     __end_of_fputc:
  3436                           	callstack 0
  3437                           
  3438 ;; *************** function _putch *****************
  3439 ;; Defined at:
  3440 ;;		line 7 in file "C:\Program Files\Microchip\xc8\v2.40\pic\sources\c99\common\putch.c"
  3441 ;; Parameters:    Size  Location     Type
  3442 ;;  c               1    wreg     unsigned char 
  3443 ;; Auto vars:     Size  Location     Type
  3444 ;;  c               1    0[COMRAM] unsigned char 
  3445 ;; Return value:  Size  Location     Type
  3446 ;;                  1    wreg      void 
  3447 ;; Registers used:
  3448 ;;		wreg
  3449 ;; Tracked objects:
  3450 ;;		On entry : 0/0
  3451 ;;		On exit  : 0/0
  3452 ;;		Unchanged: 0/0
  3453 ;; Data sizes:     COMRAM   BANK0   BANK1   BANK2   BANK3   BANK4   BANK5   BANK6   BANK7
  3454 ;;      Params:         0       0       0       0       0       0       0       0       0
  3455 ;;      Locals:         0       0       0       0       0       0       0       0       0
  3456 ;;      Temps:          0       0       0       0       0       0       0       0       0
  3457 ;;      Totals:         0       0       0       0       0       0       0       0       0
  3458 ;;Total ram usage:        0 bytes
  3459 ;; Hardware stack levels used: 1
  3460 ;; Hardware stack levels required when called: 11
  3461 ;; This function calls:
  3462 ;;		Nothing
  3463 ;; This function is called by:
  3464 ;;		_fputc
  3465 ;; This function uses a non-reentrant model
  3466 ;;
  3467                           
  3468                           	psect	text11
  3469   003150                     __ptext11:
  3470                           	callstack 0
  3471   003150                     _putch:
  3472                           	callstack 12
  3473   003150  0012               	return		;funcret
  3474   003152                     __end_of_putch:
  3475                           	callstack 0
  3476                           
  3477 ;; *************** function ___lomod *****************
  3478 ;; Defined at:
  3479 ;;		line 9 in file "C:\Program Files\Microchip\xc8\v2.40\pic\sources\c99\common\lomod.c"
  3480 ;; Parameters:    Size  Location     Type
  3481 ;;  dividend        8    3[BANK0 ] unsigned long long 
  3482 ;;  divisor         8   11[BANK0 ] unsigned long long 
  3483 ;; Auto vars:     Size  Location     Type
  3484 ;;  counter         1   19[BANK0 ] unsigned char 
  3485 ;; Return value:  Size  Location     Type
  3486 ;;                  8    3[BANK0 ] unsigned long long 
  3487 ;; Registers used:
  3488 ;;		wreg, status,2, status,0
  3489 ;; Tracked objects:
  3490 ;;		On entry : 0/0
  3491 ;;		On exit  : 0/0
  3492 ;;		Unchanged: 0/0
  3493 ;; Data sizes:     COMRAM   BANK0   BANK1   BANK2   BANK3   BANK4   BANK5   BANK6   BANK7
  3494 ;;      Params:         0      16       0       0       0       0       0       0       0
  3495 ;;      Locals:         0       1       0       0       0       0       0       0       0
  3496 ;;      Temps:          0       0       0       0       0       0       0       0       0
  3497 ;;      Totals:         0      17       0       0       0       0       0       0       0
  3498 ;;Total ram usage:       17 bytes
  3499 ;; Hardware stack levels used: 1
  3500 ;; Hardware stack levels required when called: 11
  3501 ;; This function calls:
  3502 ;;		Nothing
  3503 ;; This function is called by:
  3504 ;;		_utoa
  3505 ;; This function uses a non-reentrant model
  3506 ;;
  3507                           
  3508                           	psect	text12
  3509   002600                     __ptext12:
  3510                           	callstack 0
  3511   002600                     ___lomod:
  3512                           	callstack 15
  3513   002600  0100               	movlb	0	; () banked
  3514   002602  516B               	movf	___lomod@divisor& (0+255),w,b
  3515   002604  116C               	iorwf	(___lomod@divisor+1)& (0+255),w,b
  3516   002606  116D               	iorwf	(___lomod@divisor+2)& (0+255),w,b
  3517   002608  116E               	iorwf	(___lomod@divisor+3)& (0+255),w,b
  3518   00260A  116F               	iorwf	(___lomod@divisor+4)& (0+255),w,b
  3519   00260C  1170               	iorwf	(___lomod@divisor+5)& (0+255),w,b
  3520   00260E  1171               	iorwf	(___lomod@divisor+6)& (0+255),w,b
  3521   002610  1172               	iorwf	(___lomod@divisor+7)& (0+255),w,b
  3522   002612  B4D8               	btfsc	status,2,c
  3523   002614  EF0E  F013         	goto	u4241
  3524   002618  EF10  F013         	goto	u4240
  3525   00261C                     u4241:
  3526   00261C  EF58  F013         	goto	l1230
  3527   002620                     u4240:
  3528   002620                     
  3529                           ; BSR set to: 0
  3530   002620  0E01               	movlw	1
  3531   002622  6F73               	movwf	___lomod@counter& (0+255),b
  3532   002624  EF1E  F013         	goto	l5433
  3533   002628                     l5431:
  3534                           
  3535                           ; BSR set to: 0
  3536   002628  90D8               	bcf	status,0,c
  3537   00262A  376B               	rlcf	___lomod@divisor& (0+255),f,b
  3538   00262C  376C               	rlcf	(___lomod@divisor+1)& (0+255),f,b
  3539   00262E  376D               	rlcf	(___lomod@divisor+2)& (0+255),f,b
  3540   002630  376E               	rlcf	(___lomod@divisor+3)& (0+255),f,b
  3541   002632  376F               	rlcf	(___lomod@divisor+4)& (0+255),f,b
  3542   002634  3770               	rlcf	(___lomod@divisor+5)& (0+255),f,b
  3543   002636  3771               	rlcf	(___lomod@divisor+6)& (0+255),f,b
  3544   002638  3772               	rlcf	(___lomod@divisor+7)& (0+255),f,b
  3545   00263A  2B73               	incf	___lomod@counter& (0+255),f,b
  3546   00263C                     l5433:
  3547                           
  3548                           ; BSR set to: 0
  3549   00263C  AF72               	btfss	(___lomod@divisor+7)& (0+255),7,b
  3550   00263E  EF23  F013         	goto	u4251
  3551   002642  EF25  F013         	goto	u4250
  3552   002646                     u4251:
  3553   002646  EF14  F013         	goto	l5431
  3554   00264A                     u4250:
  3555   00264A                     l5435:
  3556                           
  3557                           ; BSR set to: 0
  3558   00264A  516B               	movf	___lomod@divisor& (0+255),w,b
  3559   00264C  5D63               	subwf	___lomod@dividend& (0+255),w,b
  3560   00264E  516C               	movf	(___lomod@divisor+1)& (0+255),w,b
  3561   002650  5964               	subwfb	(___lomod@dividend+1)& (0+255),w,b
  3562   002652  516D               	movf	(___lomod@divisor+2)& (0+255),w,b
  3563   002654  5965               	subwfb	(___lomod@dividend+2)& (0+255),w,b
  3564   002656  516E               	movf	(___lomod@divisor+3)& (0+255),w,b
  3565   002658  5966               	subwfb	(___lomod@dividend+3)& (0+255),w,b
  3566   00265A  516F               	movf	(___lomod@divisor+4)& (0+255),w,b
  3567   00265C  5967               	subwfb	(___lomod@dividend+4)& (0+255),w,b
  3568   00265E  5170               	movf	(___lomod@divisor+5)& (0+255),w,b
  3569   002660  5968               	subwfb	(___lomod@dividend+5)& (0+255),w,b
  3570   002662  5171               	movf	(___lomod@divisor+6)& (0+255),w,b
  3571   002664  5969               	subwfb	(___lomod@dividend+6)& (0+255),w,b
  3572   002666  5172               	movf	(___lomod@divisor+7)& (0+255),w,b
  3573   002668  596A               	subwfb	(___lomod@dividend+7)& (0+255),w,b
  3574   00266A  A0D8               	btfss	status,0,c
  3575   00266C  EF3A  F013         	goto	u4261
  3576   002670  EF3C  F013         	goto	u4260
  3577   002674                     u4261:
  3578   002674  EF4C  F013         	goto	l5439
  3579   002678                     u4260:
  3580   002678                     
  3581                           ; BSR set to: 0
  3582   002678  516B               	movf	___lomod@divisor& (0+255),w,b
  3583   00267A  5F63               	subwf	___lomod@dividend& (0+255),f,b
  3584   00267C  516C               	movf	(___lomod@divisor+1)& (0+255),w,b
  3585   00267E  5B64               	subwfb	(___lomod@dividend+1)& (0+255),f,b
  3586   002680  516D               	movf	(___lomod@divisor+2)& (0+255),w,b
  3587   002682  5B65               	subwfb	(___lomod@dividend+2)& (0+255),f,b
  3588   002684  516E               	movf	(___lomod@divisor+3)& (0+255),w,b
  3589   002686  5B66               	subwfb	(___lomod@dividend+3)& (0+255),f,b
  3590   002688  516F               	movf	(___lomod@divisor+4)& (0+255),w,b
  3591   00268A  5B67               	subwfb	(___lomod@dividend+4)& (0+255),f,b
  3592   00268C  5170               	movf	(___lomod@divisor+5)& (0+255),w,b
  3593   00268E  5B68               	subwfb	(___lomod@dividend+5)& (0+255),f,b
  3594   002690  5171               	movf	(___lomod@divisor+6)& (0+255),w,b
  3595   002692  5B69               	subwfb	(___lomod@dividend+6)& (0+255),f,b
  3596   002694  5172               	movf	(___lomod@divisor+7)& (0+255),w,b
  3597   002696  5B6A               	subwfb	(___lomod@dividend+7)& (0+255),f,b
  3598   002698                     l5439:
  3599                           
  3600                           ; BSR set to: 0
  3601   002698  90D8               	bcf	status,0,c
  3602   00269A  3372               	rrcf	(___lomod@divisor+7)& (0+255),f,b
  3603   00269C  3371               	rrcf	(___lomod@divisor+6)& (0+255),f,b
  3604   00269E  3370               	rrcf	(___lomod@divisor+5)& (0+255),f,b
  3605   0026A0  336F               	rrcf	(___lomod@divisor+4)& (0+255),f,b
  3606   0026A2  336E               	rrcf	(___lomod@divisor+3)& (0+255),f,b
  3607   0026A4  336D               	rrcf	(___lomod@divisor+2)& (0+255),f,b
  3608   0026A6  336C               	rrcf	(___lomod@divisor+1)& (0+255),f,b
  3609   0026A8  336B               	rrcf	___lomod@divisor& (0+255),f,b
  3610   0026AA                     
  3611                           ; BSR set to: 0
  3612   0026AA  2F73               	decfsz	___lomod@counter& (0+255),f,b
  3613   0026AC  EF25  F013         	goto	l5435
  3614   0026B0                     l1230:
  3615                           
  3616                           ; BSR set to: 0
  3617   0026B0  C063  F063         	movff	___lomod@dividend,?___lomod
  3618   0026B4  C064  F064         	movff	___lomod@dividend+1,?___lomod+1
  3619   0026B8  C065  F065         	movff	___lomod@dividend+2,?___lomod+2
  3620   0026BC  C066  F066         	movff	___lomod@dividend+3,?___lomod+3
  3621   0026C0  C067  F067         	movff	___lomod@dividend+4,?___lomod+4
  3622   0026C4  C068  F068         	movff	___lomod@dividend+5,?___lomod+5
  3623   0026C8  C069  F069         	movff	___lomod@dividend+6,?___lomod+6
  3624   0026CC  C06A  F06A         	movff	___lomod@dividend+7,?___lomod+7
  3625   0026D0                     
  3626                           ; BSR set to: 0
  3627   0026D0  0012               	return		;funcret
  3628   0026D2                     __end_of___lomod:
  3629                           	callstack 0
  3630                           
  3631 ;; *************** function ___lodiv *****************
  3632 ;; Defined at:
  3633 ;;		line 9 in file "C:\Program Files\Microchip\xc8\v2.40\pic\sources\c99\common\lodiv.c"
  3634 ;; Parameters:    Size  Location     Type
  3635 ;;  dividend        8    3[BANK0 ] unsigned long long 
  3636 ;;  divisor         8   11[BANK0 ] unsigned long long 
  3637 ;; Auto vars:     Size  Location     Type
  3638 ;;  quotient        8   19[BANK0 ] unsigned long long 
  3639 ;;  counter         1   27[BANK0 ] unsigned char 
  3640 ;; Return value:  Size  Location     Type
  3641 ;;                  8    3[BANK0 ] unsigned long long 
  3642 ;; Registers used:
  3643 ;;		wreg, fsr2l, fsr2h, status,2, status,0
  3644 ;; Tracked objects:
  3645 ;;		On entry : 0/0
  3646 ;;		On exit  : 0/0
  3647 ;;		Unchanged: 0/0
  3648 ;; Data sizes:     COMRAM   BANK0   BANK1   BANK2   BANK3   BANK4   BANK5   BANK6   BANK7
  3649 ;;      Params:         0      16       0       0       0       0       0       0       0
  3650 ;;      Locals:         0       9       0       0       0       0       0       0       0
  3651 ;;      Temps:          0       0       0       0       0       0       0       0       0
  3652 ;;      Totals:         0      25       0       0       0       0       0       0       0
  3653 ;;Total ram usage:       25 bytes
  3654 ;; Hardware stack levels used: 1
  3655 ;; Hardware stack levels required when called: 11
  3656 ;; This function calls:
  3657 ;;		Nothing
  3658 ;; This function is called by:
  3659 ;;		_utoa
  3660 ;; This function uses a non-reentrant model
  3661 ;;
  3662                           
  3663                           	psect	text13
  3664   00232E                     __ptext13:
  3665                           	callstack 0
  3666   00232E                     ___lodiv:
  3667                           	callstack 15
  3668   00232E  EE20  F073         	lfsr	2,___lodiv@quotient
  3669   002332  0E07               	movlw	7
  3670   002334                     u4201:
  3671   002334  6ADE               	clrf	postinc2,c
  3672   002336  06E8               	decf	wreg,f,c
  3673   002338  E2FD               	bc	u4201
  3674   00233A  0100               	movlb	0	; () banked
  3675   00233C  516B               	movf	___lodiv@divisor& (0+255),w,b
  3676   00233E  116C               	iorwf	(___lodiv@divisor+1)& (0+255),w,b
  3677   002340  116D               	iorwf	(___lodiv@divisor+2)& (0+255),w,b
  3678   002342  116E               	iorwf	(___lodiv@divisor+3)& (0+255),w,b
  3679   002344  116F               	iorwf	(___lodiv@divisor+4)& (0+255),w,b
  3680   002346  1170               	iorwf	(___lodiv@divisor+5)& (0+255),w,b
  3681   002348  1171               	iorwf	(___lodiv@divisor+6)& (0+255),w,b
  3682   00234A  1172               	iorwf	(___lodiv@divisor+7)& (0+255),w,b
  3683   00234C  B4D8               	btfsc	status,2,c
  3684   00234E  EFAB  F011         	goto	u4211
  3685   002352  EFAD  F011         	goto	u4210
  3686   002356                     u4211:
  3687   002356  EFFF  F011         	goto	l1220
  3688   00235A                     u4210:
  3689   00235A                     
  3690                           ; BSR set to: 0
  3691   00235A  0E01               	movlw	1
  3692   00235C  6F7B               	movwf	___lodiv@counter& (0+255),b
  3693   00235E  EFBB  F011         	goto	l5413
  3694   002362                     l5411:
  3695                           
  3696                           ; BSR set to: 0
  3697   002362  90D8               	bcf	status,0,c
  3698   002364  376B               	rlcf	___lodiv@divisor& (0+255),f,b
  3699   002366  376C               	rlcf	(___lodiv@divisor+1)& (0+255),f,b
  3700   002368  376D               	rlcf	(___lodiv@divisor+2)& (0+255),f,b
  3701   00236A  376E               	rlcf	(___lodiv@divisor+3)& (0+255),f,b
  3702   00236C  376F               	rlcf	(___lodiv@divisor+4)& (0+255),f,b
  3703   00236E  3770               	rlcf	(___lodiv@divisor+5)& (0+255),f,b
  3704   002370  3771               	rlcf	(___lodiv@divisor+6)& (0+255),f,b
  3705   002372  3772               	rlcf	(___lodiv@divisor+7)& (0+255),f,b
  3706   002374  2B7B               	incf	___lodiv@counter& (0+255),f,b
  3707   002376                     l5413:
  3708                           
  3709                           ; BSR set to: 0
  3710   002376  AF72               	btfss	(___lodiv@divisor+7)& (0+255),7,b
  3711   002378  EFC0  F011         	goto	u4221
  3712   00237C  EFC2  F011         	goto	u4220
  3713   002380                     u4221:
  3714   002380  EFB1  F011         	goto	l5411
  3715   002384                     u4220:
  3716   002384                     l5415:
  3717                           
  3718                           ; BSR set to: 0
  3719   002384  90D8               	bcf	status,0,c
  3720   002386  3773               	rlcf	___lodiv@quotient& (0+255),f,b
  3721   002388  3774               	rlcf	(___lodiv@quotient+1)& (0+255),f,b
  3722   00238A  3775               	rlcf	(___lodiv@quotient+2)& (0+255),f,b
  3723   00238C  3776               	rlcf	(___lodiv@quotient+3)& (0+255),f,b
  3724   00238E  3777               	rlcf	(___lodiv@quotient+4)& (0+255),f,b
  3725   002390  3778               	rlcf	(___lodiv@quotient+5)& (0+255),f,b
  3726   002392  3779               	rlcf	(___lodiv@quotient+6)& (0+255),f,b
  3727   002394  377A               	rlcf	(___lodiv@quotient+7)& (0+255),f,b
  3728   002396                     
  3729                           ; BSR set to: 0
  3730   002396  516B               	movf	___lodiv@divisor& (0+255),w,b
  3731   002398  5D63               	subwf	___lodiv@dividend& (0+255),w,b
  3732   00239A  516C               	movf	(___lodiv@divisor+1)& (0+255),w,b
  3733   00239C  5964               	subwfb	(___lodiv@dividend+1)& (0+255),w,b
  3734   00239E  516D               	movf	(___lodiv@divisor+2)& (0+255),w,b
  3735   0023A0  5965               	subwfb	(___lodiv@dividend+2)& (0+255),w,b
  3736   0023A2  516E               	movf	(___lodiv@divisor+3)& (0+255),w,b
  3737   0023A4  5966               	subwfb	(___lodiv@dividend+3)& (0+255),w,b
  3738   0023A6  516F               	movf	(___lodiv@divisor+4)& (0+255),w,b
  3739   0023A8  5967               	subwfb	(___lodiv@dividend+4)& (0+255),w,b
  3740   0023AA  5170               	movf	(___lodiv@divisor+5)& (0+255),w,b
  3741   0023AC  5968               	subwfb	(___lodiv@dividend+5)& (0+255),w,b
  3742   0023AE  5171               	movf	(___lodiv@divisor+6)& (0+255),w,b
  3743   0023B0  5969               	subwfb	(___lodiv@dividend+6)& (0+255),w,b
  3744   0023B2  5172               	movf	(___lodiv@divisor+7)& (0+255),w,b
  3745   0023B4  596A               	subwfb	(___lodiv@dividend+7)& (0+255),w,b
  3746   0023B6  A0D8               	btfss	status,0,c
  3747   0023B8  EFE0  F011         	goto	u4231
  3748   0023BC  EFE2  F011         	goto	u4230
  3749   0023C0                     u4231:
  3750   0023C0  EFF3  F011         	goto	l5423
  3751   0023C4                     u4230:
  3752   0023C4                     
  3753                           ; BSR set to: 0
  3754   0023C4  516B               	movf	___lodiv@divisor& (0+255),w,b
  3755   0023C6  5F63               	subwf	___lodiv@dividend& (0+255),f,b
  3756   0023C8  516C               	movf	(___lodiv@divisor+1)& (0+255),w,b
  3757   0023CA  5B64               	subwfb	(___lodiv@dividend+1)& (0+255),f,b
  3758   0023CC  516D               	movf	(___lodiv@divisor+2)& (0+255),w,b
  3759   0023CE  5B65               	subwfb	(___lodiv@dividend+2)& (0+255),f,b
  3760   0023D0  516E               	movf	(___lodiv@divisor+3)& (0+255),w,b
  3761   0023D2  5B66               	subwfb	(___lodiv@dividend+3)& (0+255),f,b
  3762   0023D4  516F               	movf	(___lodiv@divisor+4)& (0+255),w,b
  3763   0023D6  5B67               	subwfb	(___lodiv@dividend+4)& (0+255),f,b
  3764   0023D8  5170               	movf	(___lodiv@divisor+5)& (0+255),w,b
  3765   0023DA  5B68               	subwfb	(___lodiv@dividend+5)& (0+255),f,b
  3766   0023DC  5171               	movf	(___lodiv@divisor+6)& (0+255),w,b
  3767   0023DE  5B69               	subwfb	(___lodiv@dividend+6)& (0+255),f,b
  3768   0023E0  5172               	movf	(___lodiv@divisor+7)& (0+255),w,b
  3769   0023E2  5B6A               	subwfb	(___lodiv@dividend+7)& (0+255),f,b
  3770   0023E4                     
  3771                           ; BSR set to: 0
  3772   0023E4  8173               	bsf	___lodiv@quotient& (0+255),0,b
  3773   0023E6                     l5423:
  3774                           
  3775                           ; BSR set to: 0
  3776   0023E6  90D8               	bcf	status,0,c
  3777   0023E8  3372               	rrcf	(___lodiv@divisor+7)& (0+255),f,b
  3778   0023EA  3371               	rrcf	(___lodiv@divisor+6)& (0+255),f,b
  3779   0023EC  3370               	rrcf	(___lodiv@divisor+5)& (0+255),f,b
  3780   0023EE  336F               	rrcf	(___lodiv@divisor+4)& (0+255),f,b
  3781   0023F0  336E               	rrcf	(___lodiv@divisor+3)& (0+255),f,b
  3782   0023F2  336D               	rrcf	(___lodiv@divisor+2)& (0+255),f,b
  3783   0023F4  336C               	rrcf	(___lodiv@divisor+1)& (0+255),f,b
  3784   0023F6  336B               	rrcf	___lodiv@divisor& (0+255),f,b
  3785   0023F8                     
  3786                           ; BSR set to: 0
  3787   0023F8  2F7B               	decfsz	___lodiv@counter& (0+255),f,b
  3788   0023FA  EFC2  F011         	goto	l5415
  3789   0023FE                     l1220:
  3790                           
  3791                           ; BSR set to: 0
  3792   0023FE  C073  F063         	movff	___lodiv@quotient,?___lodiv
  3793   002402  C074  F064         	movff	___lodiv@quotient+1,?___lodiv+1
  3794   002406  C075  F065         	movff	___lodiv@quotient+2,?___lodiv+2
  3795   00240A  C076  F066         	movff	___lodiv@quotient+3,?___lodiv+3
  3796   00240E  C077  F067         	movff	___lodiv@quotient+4,?___lodiv+4
  3797   002412  C078  F068         	movff	___lodiv@quotient+5,?___lodiv+5
  3798   002416  C079  F069         	movff	___lodiv@quotient+6,?___lodiv+6
  3799   00241A  C07A  F06A         	movff	___lodiv@quotient+7,?___lodiv+7
  3800   00241E                     
  3801                           ; BSR set to: 0
  3802   00241E  0012               	return		;funcret
  3803   002420                     __end_of___lodiv:
  3804                           	callstack 0
  3805                           
  3806 ;; *************** function _gpioInitialize *****************
  3807 ;; Defined at:
  3808 ;;		line 360 in file "main.c"
  3809 ;; Parameters:    Size  Location     Type
  3810 ;;		None
  3811 ;; Auto vars:     Size  Location     Type
  3812 ;;		None
  3813 ;; Return value:  Size  Location     Type
  3814 ;;                  1    wreg      void 
  3815 ;; Registers used:
  3816 ;;		wreg, status,2, status,0
  3817 ;; Tracked objects:
  3818 ;;		On entry : 0/0
  3819 ;;		On exit  : 0/0
  3820 ;;		Unchanged: 0/0
  3821 ;; Data sizes:     COMRAM   BANK0   BANK1   BANK2   BANK3   BANK4   BANK5   BANK6   BANK7
  3822 ;;      Params:         0       0       0       0       0       0       0       0       0
  3823 ;;      Locals:         0       0       0       0       0       0       0       0       0
  3824 ;;      Temps:          0       0       0       0       0       0       0       0       0
  3825 ;;      Totals:         0       0       0       0       0       0       0       0       0
  3826 ;;Total ram usage:        0 bytes
  3827 ;; Hardware stack levels used: 1
  3828 ;; Hardware stack levels required when called: 11
  3829 ;; This function calls:
  3830 ;;		Nothing
  3831 ;; This function is called by:
  3832 ;;		_main
  3833 ;; This function uses a non-reentrant model
  3834 ;;
  3835                           
  3836                           	psect	text14
  3837   003116                     __ptext14:
  3838                           	callstack 0
  3839   003116                     _gpioInitialize:
  3840                           	callstack 19
  3841   003116                     
  3842                           ;main.c: 361: 
  3843   003116  0E0F               	movlw	15
  3844   003118  12C1               	iorwf	193,f,c	;volatile
  3845   00311A                     
  3846                           ;main.c: 362:     USBDeviceInit();
  3847   00311A  9292               	bcf	146,1,c	;volatile
  3848   00311C                     
  3849                           ;main.c: 363: 
  3850   00311C  9289               	bcf	137,1,c	;volatile
  3851   00311E                     
  3852                           ;main.c: 364:     UserInit();
  3853   00311E  8892               	bsf	146,4,c	;volatile
  3854   003120                     
  3855                           ;main.c: 366: }
  3856   003120  9496               	bcf	150,2,c	;volatile
  3857   003122  0012               	return		;funcret
  3858   003124                     __end_of_gpioInitialize:
  3859                           	callstack 0
  3860                           
  3861 ;; *************** function _USBTransferOnePacket *****************
  3862 ;; Defined at:
  3863 ;;		line 999 in file "usb_device.c"
  3864 ;; Parameters:    Size  Location     Type
  3865 ;;  ep              1    wreg     unsigned char 
  3866 ;;  dir             1    3[BANK0 ] unsigned char 
  3867 ;;  data            2    4[BANK0 ] PTR unsigned char 
  3868 ;;		 -> ToSendDataBuffer(64), ReceivedDataBuffer(64), 
  3869 ;;  len             1    6[BANK0 ] unsigned char 
  3870 ;; Auto vars:     Size  Location     Type
  3871 ;;  ep              1   11[BANK0 ] unsigned char 
  3872 ;;  handle          2   12[BANK0 ] PTR volatile struct __BD
  3873 ;;		 -> RAM(2047), BDT(32), NULL(0), 
  3874 ;; Return value:  Size  Location     Type
  3875 ;;                  2    3[BANK0 ] PTR void 
  3876 ;; Registers used:
  3877 ;;		wreg, fsr2l, fsr2h, status,2, status,0, prodl, prodh
  3878 ;; Tracked objects:
  3879 ;;		On entry : 0/0
  3880 ;;		On exit  : 0/0
  3881 ;;		Unchanged: 0/0
  3882 ;; Data sizes:     COMRAM   BANK0   BANK1   BANK2   BANK3   BANK4   BANK5   BANK6   BANK7
  3883 ;;      Params:         0       4       0       0       0       0       0       0       0
  3884 ;;      Locals:         0       3       0       0       0       0       0       0       0
  3885 ;;      Temps:          0       4       0       0       0       0       0       0       0
  3886 ;;      Totals:         0      11       0       0       0       0       0       0       0
  3887 ;;Total ram usage:       11 bytes
  3888 ;; Hardware stack levels used: 1
  3889 ;; Hardware stack levels required when called: 11
  3890 ;; This function calls:
  3891 ;;		Nothing
  3892 ;; This function is called by:
  3893 ;;		_main
  3894 ;; This function uses a non-reentrant model
  3895 ;;
  3896                           
  3897                           	psect	text15
  3898   001A10                     __ptext15:
  3899                           	callstack 0
  3900   001A10                     _USBTransferOnePacket:
  3901                           	callstack 19
  3902                           
  3903                           ;incstack = 0
  3904                           ;USBTransferOnePacket@ep stored from wreg
  3905   001A10  0100               	movlb	0	; () banked
  3906   001A12  6F6B               	movwf	USBTransferOnePacket@ep& (0+255),b
  3907   001A14                     
  3908                           ;usb_device.c: 999: void* USBTransferOnePacket(uint8_t ep,uint8_t dir,uint8_t* data,uint
      +                          8_t len);usb_device.c: 1000: {;usb_device.c: 1001:     volatile BDT_ENTRY* handle;;usb_d
      +                          evice.c: 1004:     if(dir != 0)
  3909   001A14  0100               	movlb	0	; () banked
  3910   001A16  5163               	movf	USBTransferOnePacket@dir& (0+255),w,b
  3911   001A18  B4D8               	btfsc	status,2,c
  3912   001A1A  EF11  F00D         	goto	u3761
  3913   001A1E  EF13  F00D         	goto	u3760
  3914   001A22                     u3761:
  3915   001A22  EF21  F00D         	goto	l4867
  3916   001A26                     u3760:
  3917   001A26                     
  3918                           ; BSR set to: 0
  3919                           ;usb_device.c: 1005:     {;usb_device.c: 1007:         handle = pBDTEntryIn[ep];
  3920   001A26  516B               	movf	USBTransferOnePacket@ep& (0+255),w,b
  3921   001A28  0D02               	mullw	2
  3922   001A2A  0EE3               	movlw	low _pBDTEntryIn
  3923   001A2C  24F3               	addwf	243,w,c
  3924   001A2E  6ED9               	movwf	fsr2l,c
  3925   001A30  0E00               	movlw	high _pBDTEntryIn
  3926   001A32  20F4               	addwfc	prodh,w,c
  3927   001A34  6EDA               	movwf	fsr2h,c
  3928   001A36  CFDE F06C          	movff	postinc2,USBTransferOnePacket@handle
  3929   001A3A  CFDD F06D          	movff	postdec2,USBTransferOnePacket@handle+1
  3930                           
  3931                           ;usb_device.c: 1008:     }
  3932   001A3E  EF2D  F00D         	goto	l4869
  3933   001A42                     l4867:
  3934                           
  3935                           ; BSR set to: 0
  3936                           ;usb_device.c: 1010:     {;usb_device.c: 1012:         handle = pBDTEntryOut[ep];
  3937   001A42  516B               	movf	USBTransferOnePacket@ep& (0+255),w,b
  3938   001A44  0D02               	mullw	2
  3939   001A46  0EE7               	movlw	low _pBDTEntryOut
  3940   001A48  24F3               	addwf	243,w,c
  3941   001A4A  6ED9               	movwf	fsr2l,c
  3942   001A4C  0E00               	movlw	high _pBDTEntryOut
  3943   001A4E  20F4               	addwfc	prodh,w,c
  3944   001A50  6EDA               	movwf	fsr2h,c
  3945   001A52  CFDE F06C          	movff	postinc2,USBTransferOnePacket@handle
  3946   001A56  CFDD F06D          	movff	postdec2,USBTransferOnePacket@handle+1
  3947   001A5A                     l4869:
  3948                           
  3949                           ; BSR set to: 0
  3950                           ;usb_device.c: 1017:     if(handle == 0)
  3951   001A5A  516C               	movf	USBTransferOnePacket@handle& (0+255),w,b
  3952   001A5C  116D               	iorwf	(USBTransferOnePacket@handle+1)& (0+255),w,b
  3953   001A5E  A4D8               	btfss	status,2,c
  3954   001A60  EF34  F00D         	goto	u3771
  3955   001A64  EF36  F00D         	goto	u3770
  3956   001A68                     u3771:
  3957   001A68  EF3C  F00D         	goto	l4875
  3958   001A6C                     u3770:
  3959   001A6C                     
  3960                           ; BSR set to: 0
  3961                           ;usb_device.c: 1018:     {;usb_device.c: 1019:         return 0;
  3962   001A6C  0E00               	movlw	0
  3963   001A6E  6F63               	movwf	?_USBTransferOnePacket& (0+255),b
  3964   001A70  0E00               	movlw	0
  3965   001A72  6F64               	movwf	(?_USBTransferOnePacket+1)& (0+255),b
  3966   001A74  EFA8  F00D         	goto	l425
  3967   001A78                     l4875:
  3968                           
  3969                           ; BSR set to: 0
  3970                           ;usb_device.c: 1033:     handle->ADR = ((uint16_t)(data));
  3971   001A78  EE20 F002          	lfsr	2,2
  3972   001A7C  516C               	movf	USBTransferOnePacket@handle& (0+255),w,b
  3973   001A7E  26D9               	addwf	fsr2l,f,c
  3974   001A80  516D               	movf	(USBTransferOnePacket@handle+1)& (0+255),w,b
  3975   001A82  22DA               	addwfc	fsr2h,f,c
  3976   001A84  C064  FFDE         	movff	USBTransferOnePacket@data,postinc2
  3977   001A88  C065  FFDD         	movff	USBTransferOnePacket@data+1,postdec2
  3978                           
  3979                           ;usb_device.c: 1034:     handle->CNT = len;
  3980   001A8C  EE20 F001          	lfsr	2,1
  3981   001A90  516C               	movf	USBTransferOnePacket@handle& (0+255),w,b
  3982   001A92  26D9               	addwf	fsr2l,f,c
  3983   001A94  516D               	movf	(USBTransferOnePacket@handle+1)& (0+255),w,b
  3984   001A96  22DA               	addwfc	fsr2h,f,c
  3985   001A98  C066  FFDF         	movff	USBTransferOnePacket@len,indf2
  3986   001A9C                     
  3987                           ; BSR set to: 0
  3988                           ;usb_device.c: 1035:     handle->STAT.Val &= 0x40;
  3989   001A9C  C06C  FFD9         	movff	USBTransferOnePacket@handle,fsr2l
  3990   001AA0  C06D  FFDA         	movff	USBTransferOnePacket@handle+1,fsr2h
  3991   001AA4  0E40               	movlw	64
  3992   001AA6  16DF               	andwf	indf2,f,c
  3993   001AA8                     
  3994                           ; BSR set to: 0
  3995                           ;usb_device.c: 1036:     handle->STAT.Val |= (0x08 & 0x08);
  3996   001AA8  C06C  FFD9         	movff	USBTransferOnePacket@handle,fsr2l
  3997   001AAC  C06D  FFDA         	movff	USBTransferOnePacket@handle+1,fsr2h
  3998   001AB0  0E00               	movlw	0
  3999   001AB2  86DB               	bsf	plusw2,3,c
  4000   001AB4                     
  4001                           ; BSR set to: 0
  4002                           ;usb_device.c: 1037:     handle->STAT.Val |= 0x80;
  4003   001AB4  C06C  FFD9         	movff	USBTransferOnePacket@handle,fsr2l
  4004   001AB8  C06D  FFDA         	movff	USBTransferOnePacket@handle+1,fsr2h
  4005   001ABC  0E00               	movlw	0
  4006   001ABE  8EDB               	bsf	plusw2,7,c
  4007   001AC0                     
  4008                           ; BSR set to: 0
  4009                           ;usb_device.c: 1040:     if(dir != 0)
  4010   001AC0  5163               	movf	USBTransferOnePacket@dir& (0+255),w,b
  4011   001AC2  B4D8               	btfsc	status,2,c
  4012   001AC4  EF66  F00D         	goto	u3781
  4013   001AC8  EF68  F00D         	goto	u3780
  4014   001ACC                     u3781:
  4015   001ACC  EF87  F00D         	goto	l4887
  4016   001AD0                     u3780:
  4017   001AD0                     
  4018                           ; BSR set to: 0
  4019                           ;usb_device.c: 1041:     {;usb_device.c: 1043:         pBDTEntryIn[ep] = (BDT_ENTRY*)(((
      +                          uint16_t)pBDTEntryIn[ep]) ^ 0x0004);
  4020   001AD0  516B               	movf	USBTransferOnePacket@ep& (0+255),w,b
  4021   001AD2  0D02               	mullw	2
  4022   001AD4  0EE3               	movlw	low _pBDTEntryIn
  4023   001AD6  24F3               	addwf	243,w,c
  4024   001AD8  6ED9               	movwf	fsr2l,c
  4025   001ADA  0E00               	movlw	high _pBDTEntryIn
  4026   001ADC  20F4               	addwfc	prodh,w,c
  4027   001ADE  6EDA               	movwf	fsr2h,c
  4028   001AE0  CFDE F067          	movff	postinc2,??_USBTransferOnePacket
  4029   001AE4  CFDD F068          	movff	postdec2,??_USBTransferOnePacket+1
  4030   001AE8  0E04               	movlw	4
  4031   001AEA  1967               	xorwf	??_USBTransferOnePacket& (0+255),w,b
  4032   001AEC  6F69               	movwf	(??_USBTransferOnePacket+2)& (0+255),b
  4033   001AEE  5168               	movf	(??_USBTransferOnePacket+1)& (0+255),w,b
  4034   001AF0  6F6A               	movwf	(??_USBTransferOnePacket+3)& (0+255),b
  4035   001AF2  516B               	movf	USBTransferOnePacket@ep& (0+255),w,b
  4036   001AF4  0D02               	mullw	2
  4037   001AF6  0EE3               	movlw	low _pBDTEntryIn
  4038   001AF8  24F3               	addwf	243,w,c
  4039   001AFA  6ED9               	movwf	fsr2l,c
  4040   001AFC  0E00               	movlw	high _pBDTEntryIn
  4041   001AFE  20F4               	addwfc	prodh,w,c
  4042   001B00  6EDA               	movwf	fsr2h,c
  4043   001B02  C069  FFDE         	movff	??_USBTransferOnePacket+2,postinc2
  4044   001B06  C06A  FFDD         	movff	??_USBTransferOnePacket+3,postdec2
  4045                           
  4046                           ;usb_device.c: 1044:     }
  4047   001B0A  EFA4  F00D         	goto	l4889
  4048   001B0E                     l4887:
  4049                           
  4050                           ; BSR set to: 0
  4051                           ;usb_device.c: 1046:     {;usb_device.c: 1048:         pBDTEntryOut[ep] = (BDT_ENTRY*)((
      +                          (uint16_t)pBDTEntryOut[ep]) ^ 0x0004);
  4052   001B0E  516B               	movf	USBTransferOnePacket@ep& (0+255),w,b
  4053   001B10  0D02               	mullw	2
  4054   001B12  0EE7               	movlw	low _pBDTEntryOut
  4055   001B14  24F3               	addwf	243,w,c
  4056   001B16  6ED9               	movwf	fsr2l,c
  4057   001B18  0E00               	movlw	high _pBDTEntryOut
  4058   001B1A  20F4               	addwfc	prodh,w,c
  4059   001B1C  6EDA               	movwf	fsr2h,c
  4060   001B1E  CFDE F067          	movff	postinc2,??_USBTransferOnePacket
  4061   001B22  CFDD F068          	movff	postdec2,??_USBTransferOnePacket+1
  4062   001B26  0E04               	movlw	4
  4063   001B28  1967               	xorwf	??_USBTransferOnePacket& (0+255),w,b
  4064   001B2A  6F69               	movwf	(??_USBTransferOnePacket+2)& (0+255),b
  4065   001B2C  5168               	movf	(??_USBTransferOnePacket+1)& (0+255),w,b
  4066   001B2E  6F6A               	movwf	(??_USBTransferOnePacket+3)& (0+255),b
  4067   001B30  516B               	movf	USBTransferOnePacket@ep& (0+255),w,b
  4068   001B32  0D02               	mullw	2
  4069   001B34  0EE7               	movlw	low _pBDTEntryOut
  4070   001B36  24F3               	addwf	243,w,c
  4071   001B38  6ED9               	movwf	fsr2l,c
  4072   001B3A  0E00               	movlw	high _pBDTEntryOut
  4073   001B3C  20F4               	addwfc	prodh,w,c
  4074   001B3E  6EDA               	movwf	fsr2h,c
  4075   001B40  C069  FFDE         	movff	??_USBTransferOnePacket+2,postinc2
  4076   001B44  C06A  FFDD         	movff	??_USBTransferOnePacket+3,postdec2
  4077   001B48                     l4889:
  4078                           
  4079                           ; BSR set to: 0
  4080                           ;usb_device.c: 1050:     return (void*)handle;
  4081   001B48  C06C  F063         	movff	USBTransferOnePacket@handle,?_USBTransferOnePacket
  4082   001B4C  C06D  F064         	movff	USBTransferOnePacket@handle+1,?_USBTransferOnePacket+1
  4083   001B50                     l425:
  4084                           
  4085                           ; BSR set to: 0
  4086   001B50  0012               	return		;funcret
  4087   001B52                     __end_of_USBTransferOnePacket:
  4088                           	callstack 0
  4089                           
  4090 ;; *************** function _UART_puts *****************
  4091 ;; Defined at:
  4092 ;;		line 60 in file "uart.c"
  4093 ;; Parameters:    Size  Location     Type
  4094 ;;  ptr             2    5[BANK0 ] PTR unsigned char 
  4095 ;;		 -> main@temp(100), 
  4096 ;; Auto vars:     Size  Location     Type
  4097 ;;		None
  4098 ;; Return value:  Size  Location     Type
  4099 ;;                  1    wreg      void 
  4100 ;; Registers used:
  4101 ;;		wreg, fsr2l, fsr2h, status,2, status,0, cstack
  4102 ;; Tracked objects:
  4103 ;;		On entry : 0/0
  4104 ;;		On exit  : 0/0
  4105 ;;		Unchanged: 0/0
  4106 ;; Data sizes:     COMRAM   BANK0   BANK1   BANK2   BANK3   BANK4   BANK5   BANK6   BANK7
  4107 ;;      Params:         0       2       0       0       0       0       0       0       0
  4108 ;;      Locals:         0       0       0       0       0       0       0       0       0
  4109 ;;      Temps:          0       0       0       0       0       0       0       0       0
  4110 ;;      Totals:         0       2       0       0       0       0       0       0       0
  4111 ;;Total ram usage:        2 bytes
  4112 ;; Hardware stack levels used: 1
  4113 ;; Hardware stack levels required when called: 12
  4114 ;; This function calls:
  4115 ;;		_UART_write
  4116 ;; This function is called by:
  4117 ;;		_main
  4118 ;; This function uses a non-reentrant model
  4119 ;;
  4120                           
  4121                           	psect	text16
  4122   003020                     __ptext16:
  4123                           	callstack 0
  4124   003020                     _UART_puts:
  4125                           	callstack 18
  4126   003020                     
  4127                           ;uart.c: 60: void UART_puts(char * ptr);uart.c: 61: {;uart.c: 62:     while(*ptr)
  4128   003020  EF1C  F018         	goto	l5775
  4129   003024                     l5771:
  4130                           
  4131                           ;uart.c: 63:     {;uart.c: 64:         UART_write(*ptr++);
  4132   003024  C065  FFD9         	movff	UART_puts@ptr,fsr2l
  4133   003028  C066  FFDA         	movff	UART_puts@ptr+1,fsr2h
  4134   00302C  50DF               	movf	indf2,w,c
  4135   00302E  ECDB  F017         	call	_UART_write
  4136   003032  0100               	movlb	0	; () banked
  4137   003034  4B65               	infsnz	UART_puts@ptr& (0+255),f,b
  4138   003036  2B66               	incf	(UART_puts@ptr+1)& (0+255),f,b
  4139   003038                     l5775:
  4140                           
  4141                           ;uart.c: 62:     while(*ptr)
  4142   003038  C065  FFD9         	movff	UART_puts@ptr,fsr2l
  4143   00303C  C066  FFDA         	movff	UART_puts@ptr+1,fsr2h
  4144   003040  50DF               	movf	indf2,w,c
  4145   003042  A4D8               	btfss	status,2,c
  4146   003044  EF26  F018         	goto	u4611
  4147   003048  EF28  F018         	goto	u4610
  4148   00304C                     u4611:
  4149   00304C  EF12  F018         	goto	l5771
  4150   003050                     u4610:
  4151   003050  0012               	return		;funcret
  4152   003052                     __end_of_UART_puts:
  4153                           	callstack 0
  4154                           
  4155 ;; *************** function _UART_putrs *****************
  4156 ;; Defined at:
  4157 ;;		line 53 in file "uart.c"
  4158 ;; Parameters:    Size  Location     Type
  4159 ;;  ptr             2    5[BANK0 ] PTR const unsigned char 
  4160 ;;		 -> STR_13(13), STR_12(23), STR_11(23), STR_10(23), 
  4161 ;;		 -> STR_9(23), STR_8(26), STR_7(26), STR_6(26), 
  4162 ;;		 -> STR_5(26), STR_4(17), STR_3(28), STR_2(14), 
  4163 ;;		 -> STR_1(14), 
  4164 ;; Auto vars:     Size  Location     Type
  4165 ;;		None
  4166 ;; Return value:  Size  Location     Type
  4167 ;;                  1    wreg      void 
  4168 ;; Registers used:
  4169 ;;		wreg, fsr2l, fsr2h, status,2, status,0, tblptrl, tblptrh, tblptru, cstack
  4170 ;; Tracked objects:
  4171 ;;		On entry : 0/0
  4172 ;;		On exit  : 0/0
  4173 ;;		Unchanged: 0/0
  4174 ;; Data sizes:     COMRAM   BANK0   BANK1   BANK2   BANK3   BANK4   BANK5   BANK6   BANK7
  4175 ;;      Params:         0       2       0       0       0       0       0       0       0
  4176 ;;      Locals:         0       0       0       0       0       0       0       0       0
  4177 ;;      Temps:          0       0       0       0       0       0       0       0       0
  4178 ;;      Totals:         0       2       0       0       0       0       0       0       0
  4179 ;;Total ram usage:        2 bytes
  4180 ;; Hardware stack levels used: 1
  4181 ;; Hardware stack levels required when called: 12
  4182 ;; This function calls:
  4183 ;;		_UART_write
  4184 ;; This function is called by:
  4185 ;;		_main
  4186 ;; This function uses a non-reentrant model
  4187 ;;
  4188                           
  4189                           	psect	text17
  4190   002F7E                     __ptext17:
  4191                           	callstack 0
  4192   002F7E                     _UART_putrs:
  4193                           	callstack 18
  4194   002F7E                     
  4195                           ;uart.c: 53: void UART_putrs(const char * ptr);uart.c: 54: {;uart.c: 55:     while(*ptr)
  4196   002F7E  EFCC  F017         	goto	l5755
  4197   002F82                     l5751:
  4198                           
  4199                           ;uart.c: 56:     {;uart.c: 57:         UART_write(*ptr++);
  4200   002F82  C065  FFF6         	movff	UART_putrs@ptr,tblptrl
  4201   002F86  C066  FFF7         	movff	UART_putrs@ptr+1,tblptrh
  4202   002F8A                     	if	0	;tblptru may be non-zero
  4203   002F8A                     	endif
  4204   002F8A                     	if	0	;tblptru may be non-zero
  4205   002F8A                     	endif
  4206   002F8A  0008               	tblrd		*
  4207   002F8C  50F5               	movf	tablat,w,c
  4208   002F8E  ECDB  F017         	call	_UART_write
  4209   002F92  0100               	movlb	0	; () banked
  4210   002F94  4B65               	infsnz	UART_putrs@ptr& (0+255),f,b
  4211   002F96  2B66               	incf	(UART_putrs@ptr+1)& (0+255),f,b
  4212   002F98                     l5755:
  4213                           
  4214                           ;uart.c: 55:     while(*ptr)
  4215   002F98  C065  FFF6         	movff	UART_putrs@ptr,tblptrl
  4216   002F9C  C066  FFF7         	movff	UART_putrs@ptr+1,tblptrh
  4217   002FA0                     	if	0	;tblptru may be non-zero
  4218   002FA0                     	endif
  4219   002FA0                     	if	0	;tblptru may be non-zero
  4220   002FA0                     	endif
  4221   002FA0  0008               	tblrd		*
  4222   002FA2  50F5               	movf	tablat,w,c
  4223   002FA4  0900               	iorlw	0
  4224   002FA6  A4D8               	btfss	status,2,c
  4225   002FA8  EFD8  F017         	goto	u4601
  4226   002FAC  EFDA  F017         	goto	u4600
  4227   002FB0                     u4601:
  4228   002FB0  EFC1  F017         	goto	l5751
  4229   002FB4                     u4600:
  4230   002FB4  0012               	return		;funcret
  4231   002FB6                     __end_of_UART_putrs:
  4232                           	callstack 0
  4233                           
  4234 ;; *************** function _UART_write *****************
  4235 ;; Defined at:
  4236 ;;		line 118 in file "uart.c"
  4237 ;; Parameters:    Size  Location     Type
  4238 ;;  data            1    wreg     unsigned char 
  4239 ;; Auto vars:     Size  Location     Type
  4240 ;;  data            1    3[BANK0 ] unsigned char 
  4241 ;;  i               1    4[BANK0 ] unsigned char 
  4242 ;; Return value:  Size  Location     Type
  4243 ;;                  1    wreg      void 
  4244 ;; Registers used:
  4245 ;;		wreg, fsr2l, fsr2h, status,2, status,0
  4246 ;; Tracked objects:
  4247 ;;		On entry : 0/0
  4248 ;;		On exit  : 0/0
  4249 ;;		Unchanged: 0/0
  4250 ;; Data sizes:     COMRAM   BANK0   BANK1   BANK2   BANK3   BANK4   BANK5   BANK6   BANK7
  4251 ;;      Params:         0       0       0       0       0       0       0       0       0
  4252 ;;      Locals:         0       2       0       0       0       0       0       0       0
  4253 ;;      Temps:          0       0       0       0       0       0       0       0       0
  4254 ;;      Totals:         0       2       0       0       0       0       0       0       0
  4255 ;;Total ram usage:        2 bytes
  4256 ;; Hardware stack levels used: 1
  4257 ;; Hardware stack levels required when called: 11
  4258 ;; This function calls:
  4259 ;;		Nothing
  4260 ;; This function is called by:
  4261 ;;		_UART_putrs
  4262 ;;		_UART_puts
  4263 ;; This function uses a non-reentrant model
  4264 ;;
  4265                           
  4266                           	psect	text18
  4267   002FB6                     __ptext18:
  4268                           	callstack 0
  4269   002FB6                     _UART_write:
  4270                           	callstack 18
  4271                           
  4272                           ;incstack = 0
  4273                           ;UART_write@data stored from wreg
  4274   002FB6  0100               	movlb	0	; () banked
  4275   002FB8  6F63               	movwf	UART_write@data& (0+255),b
  4276   002FBA                     
  4277                           ;uart.c: 119:     tx_buffer_index_t i = (_tx_buffer_head + 1) % 64;
  4278   002FBA  2839               	incf	__tx_buffer_head^0,w,c	;volatile
  4279   002FBC  0B3F               	andlw	63
  4280   002FBE  0100               	movlb	0	; () banked
  4281   002FC0  6F64               	movwf	UART_write@i& (0+255),b
  4282   002FC2                     l5633:
  4283                           
  4284                           ; BSR set to: 0
  4285   002FC2  5038               	movf	__tx_buffer_tail^0,w,c	;volatile
  4286   002FC4  1964               	xorwf	UART_write@i& (0+255),w,b
  4287   002FC6  B4D8               	btfsc	status,2,c
  4288   002FC8  EFE8  F017         	goto	u4431
  4289   002FCC  EFEA  F017         	goto	u4430
  4290   002FD0                     u4431:
  4291   002FD0  EFE1  F017         	goto	l5633
  4292   002FD4                     u4430:
  4293   002FD4                     
  4294                           ; BSR set to: 0
  4295                           ;uart.c: 121:     _tx_buffer[_tx_buffer_head] = data;
  4296   002FD4  0E00               	movlw	low __tx_buffer
  4297   002FD6  2439               	addwf	__tx_buffer_head^0,w,c	;volatile
  4298   002FD8  6ED9               	movwf	fsr2l,c
  4299   002FDA  6ADA               	clrf	fsr2h,c
  4300   002FDC  0E02               	movlw	high __tx_buffer
  4301   002FDE  22DA               	addwfc	fsr2h,f,c
  4302   002FE0  C063  FFDF         	movff	UART_write@data,indf2
  4303   002FE4                     
  4304                           ; BSR set to: 0
  4305                           ;uart.c: 122:     _tx_buffer_head = i;
  4306   002FE4  C064  F039         	movff	UART_write@i,__tx_buffer_head	;volatile
  4307   002FE8                     
  4308                           ; BSR set to: 0
  4309                           ;uart.c: 123:     PIE1bits.TX1IE = 1;
  4310   002FE8  889D               	bsf	157,4,c	;volatile
  4311   002FEA                     
  4312                           ; BSR set to: 0
  4313   002FEA  0012               	return		;funcret
  4314   002FEC                     __end_of_UART_write:
  4315                           	callstack 0
  4316                           
  4317 ;; *************** function _UART_Init *****************
  4318 ;; Defined at:
  4319 ;;		line 16 in file "uart.c"
  4320 ;; Parameters:    Size  Location     Type
  4321 ;;  baudRate        3   16[BANK0 ] unsigned um
  4322 ;; Auto vars:     Size  Location     Type
  4323 ;;  temp            2   23[BANK0 ] unsigned short 
  4324 ;; Return value:  Size  Location     Type
  4325 ;;                  1    wreg      void 
  4326 ;; Registers used:
  4327 ;;		wreg, status,2, status,0, cstack
  4328 ;; Tracked objects:
  4329 ;;		On entry : 0/0
  4330 ;;		On exit  : 0/0
  4331 ;;		Unchanged: 0/0
  4332 ;; Data sizes:     COMRAM   BANK0   BANK1   BANK2   BANK3   BANK4   BANK5   BANK6   BANK7
  4333 ;;      Params:         0       3       0       0       0       0       0       0       0
  4334 ;;      Locals:         0       2       0       0       0       0       0       0       0
  4335 ;;      Temps:          0       4       0       0       0       0       0       0       0
  4336 ;;      Totals:         0       9       0       0       0       0       0       0       0
  4337 ;;Total ram usage:        9 bytes
  4338 ;; Hardware stack levels used: 1
  4339 ;; Hardware stack levels required when called: 12
  4340 ;; This function calls:
  4341 ;;		___lldiv
  4342 ;; This function is called by:
  4343 ;;		_main
  4344 ;; This function uses a non-reentrant model
  4345 ;;
  4346                           
  4347                           	psect	text19
  4348   000D54                     __ptext19:
  4349                           	callstack 0
  4350   000D54                     _UART_Init:
  4351                           	callstack 18
  4352   000D54                     
  4353                           ;uart.c: 17:     _rx_buffer_head = 0;
  4354   000D54  0E00               	movlw	0
  4355   000D56  6E31               	movwf	(__rx_buffer_head+1)^0,c	;volatile
  4356   000D58  0E00               	movlw	0
  4357   000D5A  6E30               	movwf	__rx_buffer_head^0,c	;volatile
  4358                           
  4359                           ;uart.c: 18:     _rx_buffer_tail = 0;
  4360   000D5C  0E00               	movlw	0
  4361   000D5E  6E2F               	movwf	(__rx_buffer_tail+1)^0,c	;volatile
  4362   000D60  0E00               	movlw	0
  4363   000D62  6E2E               	movwf	__rx_buffer_tail^0,c	;volatile
  4364                           
  4365                           ;uart.c: 19:     _tx_buffer_head = 0;
  4366   000D64  0E00               	movlw	0
  4367   000D66  6E39               	movwf	__tx_buffer_head^0,c	;volatile
  4368                           
  4369                           ;uart.c: 20:     _tx_buffer_tail = 0;
  4370   000D68  0E00               	movlw	0
  4371   000D6A  6E38               	movwf	__tx_buffer_tail^0,c	;volatile
  4372                           
  4373                           ;uart.c: 22:     TXSTA = 0b00100100;
  4374   000D6C  0E24               	movlw	36
  4375   000D6E  6EAC               	movwf	172,c	;volatile
  4376                           
  4377                           ;uart.c: 23:     BAUDCON = 0b00001000;
  4378   000D70  0E08               	movlw	8
  4379   000D72  6EB8               	movwf	184,c	;volatile
  4380   000D74                     
  4381                           ;uart.c: 25:     if(!(TXSTAbits.SYNC) && !(BAUDCONbits.BRG16) && !(TXSTAbits.BRGH))
  4382   000D74  B8AC               	btfsc	172,4,c	;volatile
  4383   000D76  EFBF  F006         	goto	u4481
  4384   000D7A  EFC1  F006         	goto	u4480
  4385   000D7E                     u4481:
  4386   000D7E  EFF9  F006         	goto	l722
  4387   000D82                     u4480:
  4388   000D82  B6B8               	btfsc	184,3,c	;volatile
  4389   000D84  EFC6  F006         	goto	u4491
  4390   000D88  EFC8  F006         	goto	u4490
  4391   000D8C                     u4491:
  4392   000D8C  EFF9  F006         	goto	l722
  4393   000D90                     u4490:
  4394   000D90  B4AC               	btfsc	172,2,c	;volatile
  4395   000D92  EFCD  F006         	goto	u4501
  4396   000D96  EFCF  F006         	goto	u4500
  4397   000D9A                     u4501:
  4398   000D9A  EFF9  F006         	goto	l722
  4399   000D9E                     u4500:
  4400   000D9E                     
  4401                           ;uart.c: 26:     {;uart.c: 27:         SPBRG = (uint8_t)((48000000UL) / (baudRate * 64))
      +                           - 1;
  4402   000D9E  0E00               	movlw	0
  4403   000DA0  0100               	movlb	0	; () banked
  4404   000DA2  6F63               	movwf	___lldiv@dividend& (0+255),b
  4405   000DA4  0E6C               	movlw	108
  4406   000DA6  6F64               	movwf	(___lldiv@dividend+1)& (0+255),b
  4407   000DA8  0EDC               	movlw	220
  4408   000DAA  6F65               	movwf	(___lldiv@dividend+2)& (0+255),b
  4409   000DAC  0E02               	movlw	2
  4410   000DAE  6F66               	movwf	(___lldiv@dividend+3)& (0+255),b
  4411   000DB0  0E06               	movlw	6
  4412   000DB2  6F73               	movwf	??_UART_Init& (0+255),b
  4413   000DB4  C070  F074         	movff	UART_Init@baudRate,??_UART_Init+1
  4414   000DB8  C071  F075         	movff	UART_Init@baudRate+1,??_UART_Init+2
  4415   000DBC  C072  F076         	movff	UART_Init@baudRate+2,??_UART_Init+3
  4416   000DC0  2973               	incf	??_UART_Init& (0+255),w,b
  4417   000DC2  EFE7  F006         	goto	u4510
  4418   000DC6                     u4515:
  4419   000DC6  90D8               	bcf	status,0,c
  4420   000DC8  3774               	rlcf	(??_UART_Init+1)& (0+255),f,b
  4421   000DCA  3775               	rlcf	(??_UART_Init+2)& (0+255),f,b
  4422   000DCC  3776               	rlcf	(??_UART_Init+3)& (0+255),f,b
  4423   000DCE                     u4510:
  4424   000DCE  2EE8               	decfsz	wreg,f,c
  4425   000DD0  EFE3  F006         	goto	u4515
  4426   000DD4  0100               	movlb	0	; () banked
  4427   000DD6  5174               	movf	(??_UART_Init+1)& (0+255),w,b
  4428   000DD8  6F67               	movwf	___lldiv@divisor& (0+255),b
  4429   000DDA  5175               	movf	(??_UART_Init+2)& (0+255),w,b
  4430   000DDC  6F68               	movwf	(___lldiv@divisor+1)& (0+255),b
  4431   000DDE  5176               	movf	(??_UART_Init+3)& (0+255),w,b
  4432   000DE0  6F69               	movwf	(___lldiv@divisor+2)& (0+255),b
  4433   000DE2  6B6A               	clrf	(___lldiv@divisor+3)& (0+255),b
  4434   000DE4  EC32  F015         	call	___lldiv	;wreg free
  4435   000DE8  0100               	movlb	0	; () banked
  4436   000DEA  0563               	decf	?___lldiv& (0+255),w,b
  4437   000DEC  6EAF               	movwf	175,c	;volatile
  4438                           
  4439                           ;uart.c: 28:     }
  4440   000DEE  EF81  F007         	goto	l5741
  4441   000DF2                     l722:
  4442   000DF2  B8AC               	btfsc	172,4,c	;volatile
  4443   000DF4  EFFE  F006         	goto	u4521
  4444   000DF8  EF00  F007         	goto	u4520
  4445   000DFC                     u4521:
  4446   000DFC  EF3F  F007         	goto	l724
  4447   000E00                     u4520:
  4448   000E00  B6B8               	btfsc	184,3,c	;volatile
  4449   000E02  EF05  F007         	goto	u4531
  4450   000E06  EF07  F007         	goto	u4530
  4451   000E0A                     u4531:
  4452   000E0A  EF3F  F007         	goto	l724
  4453   000E0E                     u4530:
  4454   000E0E  A4AC               	btfss	172,2,c	;volatile
  4455   000E10  EF0C  F007         	goto	u4541
  4456   000E14  EF0E  F007         	goto	u4540
  4457   000E18                     u4541:
  4458   000E18  EF3F  F007         	goto	l724
  4459   000E1C                     u4540:
  4460   000E1C                     
  4461                           ;uart.c: 30:     {;uart.c: 31:         temp = (uint8_t)(((48000000UL) / (baudRate * 16))
      +                           - 1);
  4462   000E1C  0E00               	movlw	0
  4463   000E1E  0100               	movlb	0	; () banked
  4464   000E20  6F63               	movwf	___lldiv@dividend& (0+255),b
  4465   000E22  0E6C               	movlw	108
  4466   000E24  6F64               	movwf	(___lldiv@dividend+1)& (0+255),b
  4467   000E26  0EDC               	movlw	220
  4468   000E28  6F65               	movwf	(___lldiv@dividend+2)& (0+255),b
  4469   000E2A  0E02               	movlw	2
  4470   000E2C  6F66               	movwf	(___lldiv@dividend+3)& (0+255),b
  4471   000E2E  0E04               	movlw	4
  4472   000E30  6F73               	movwf	??_UART_Init& (0+255),b
  4473   000E32  C070  F074         	movff	UART_Init@baudRate,??_UART_Init+1
  4474   000E36  C071  F075         	movff	UART_Init@baudRate+1,??_UART_Init+2
  4475   000E3A  C072  F076         	movff	UART_Init@baudRate+2,??_UART_Init+3
  4476   000E3E  2973               	incf	??_UART_Init& (0+255),w,b
  4477   000E40  EF26  F007         	goto	u4550
  4478   000E44                     u4555:
  4479   000E44  90D8               	bcf	status,0,c
  4480   000E46  3774               	rlcf	(??_UART_Init+1)& (0+255),f,b
  4481   000E48  3775               	rlcf	(??_UART_Init+2)& (0+255),f,b
  4482   000E4A  3776               	rlcf	(??_UART_Init+3)& (0+255),f,b
  4483   000E4C                     u4550:
  4484   000E4C  2EE8               	decfsz	wreg,f,c
  4485   000E4E  EF22  F007         	goto	u4555
  4486   000E52  0100               	movlb	0	; () banked
  4487   000E54  5174               	movf	(??_UART_Init+1)& (0+255),w,b
  4488   000E56  6F67               	movwf	___lldiv@divisor& (0+255),b
  4489   000E58  5175               	movf	(??_UART_Init+2)& (0+255),w,b
  4490   000E5A  6F68               	movwf	(___lldiv@divisor+1)& (0+255),b
  4491   000E5C  5176               	movf	(??_UART_Init+3)& (0+255),w,b
  4492   000E5E  6F69               	movwf	(___lldiv@divisor+2)& (0+255),b
  4493   000E60  6B6A               	clrf	(___lldiv@divisor+3)& (0+255),b
  4494   000E62  EC32  F015         	call	___lldiv	;wreg free
  4495   000E66  0EFF               	movlw	255
  4496   000E68  0100               	movlb	0	; () banked
  4497   000E6A  2763               	addwf	?___lldiv& (0+255),f,b
  4498   000E6C  5163               	movf	?___lldiv& (0+255),w,b
  4499   000E6E  6F77               	movwf	UART_Init@temp& (0+255),b
  4500   000E70  6B78               	clrf	(UART_Init@temp+1)& (0+255),b
  4501   000E72                     l5727:
  4502                           
  4503                           ; BSR set to: 0
  4504                           ;uart.c: 32:         SPBRGH = (uint8_t)((temp & 0xFF00) >> 8);
  4505   000E72  5178               	movf	(UART_Init@temp+1)& (0+255),w,b
  4506   000E74  6EB0               	movwf	176,c	;volatile
  4507   000E76                     
  4508                           ; BSR set to: 0
  4509                           ;uart.c: 33:         SPBRG = (uint8_t) (temp & 0x00FF);
  4510   000E76  C077  FFAF         	movff	UART_Init@temp,4015	;volatile
  4511                           
  4512                           ;uart.c: 34:     }else if(!(TXSTAbits.SYNC) && (BAUDCONbits.BRG16) && (TXSTAbits.BRGH))
  4513   000E7A  EF81  F007         	goto	l5741
  4514   000E7E                     l724:
  4515   000E7E  B8AC               	btfsc	172,4,c	;volatile
  4516   000E80  EF44  F007         	goto	u4561
  4517   000E84  EF46  F007         	goto	u4560
  4518   000E88                     u4561:
  4519   000E88  EF81  F007         	goto	l5741
  4520   000E8C                     u4560:
  4521   000E8C  A6B8               	btfss	184,3,c	;volatile
  4522   000E8E  EF4B  F007         	goto	u4571
  4523   000E92  EF4D  F007         	goto	u4570
  4524   000E96                     u4571:
  4525   000E96  EF81  F007         	goto	l5741
  4526   000E9A                     u4570:
  4527   000E9A  A4AC               	btfss	172,2,c	;volatile
  4528   000E9C  EF52  F007         	goto	u4581
  4529   000EA0  EF54  F007         	goto	u4580
  4530   000EA4                     u4581:
  4531   000EA4  EF81  F007         	goto	l5741
  4532   000EA8                     u4580:
  4533   000EA8                     
  4534                           ;uart.c: 35:     {;uart.c: 36:         temp = (uint8_t)(((48000000UL) / (baudRate * 4)) 
      +                          - 1);
  4535   000EA8  0E00               	movlw	0
  4536   000EAA  0100               	movlb	0	; () banked
  4537   000EAC  6F63               	movwf	___lldiv@dividend& (0+255),b
  4538   000EAE  0E6C               	movlw	108
  4539   000EB0  6F64               	movwf	(___lldiv@dividend+1)& (0+255),b
  4540   000EB2  0EDC               	movlw	220
  4541   000EB4  6F65               	movwf	(___lldiv@dividend+2)& (0+255),b
  4542   000EB6  0E02               	movlw	2
  4543   000EB8  6F66               	movwf	(___lldiv@dividend+3)& (0+255),b
  4544   000EBA  0E02               	movlw	2
  4545   000EBC  6F73               	movwf	??_UART_Init& (0+255),b
  4546   000EBE  C070  F074         	movff	UART_Init@baudRate,??_UART_Init+1
  4547   000EC2  C071  F075         	movff	UART_Init@baudRate+1,??_UART_Init+2
  4548   000EC6  C072  F076         	movff	UART_Init@baudRate+2,??_UART_Init+3
  4549   000ECA  2973               	incf	??_UART_Init& (0+255),w,b
  4550   000ECC  EF6C  F007         	goto	u4590
  4551   000ED0                     u4595:
  4552   000ED0  90D8               	bcf	status,0,c
  4553   000ED2  3774               	rlcf	(??_UART_Init+1)& (0+255),f,b
  4554   000ED4  3775               	rlcf	(??_UART_Init+2)& (0+255),f,b
  4555   000ED6  3776               	rlcf	(??_UART_Init+3)& (0+255),f,b
  4556   000ED8                     u4590:
  4557   000ED8  2EE8               	decfsz	wreg,f,c
  4558   000EDA  EF68  F007         	goto	u4595
  4559   000EDE  0100               	movlb	0	; () banked
  4560   000EE0  5174               	movf	(??_UART_Init+1)& (0+255),w,b
  4561   000EE2  6F67               	movwf	___lldiv@divisor& (0+255),b
  4562   000EE4  5175               	movf	(??_UART_Init+2)& (0+255),w,b
  4563   000EE6  6F68               	movwf	(___lldiv@divisor+1)& (0+255),b
  4564   000EE8  5176               	movf	(??_UART_Init+3)& (0+255),w,b
  4565   000EEA  6F69               	movwf	(___lldiv@divisor+2)& (0+255),b
  4566   000EEC  6B6A               	clrf	(___lldiv@divisor+3)& (0+255),b
  4567   000EEE  EC32  F015         	call	___lldiv	;wreg free
  4568   000EF2  0EFF               	movlw	255
  4569   000EF4  0100               	movlb	0	; () banked
  4570   000EF6  2763               	addwf	?___lldiv& (0+255),f,b
  4571   000EF8  5163               	movf	?___lldiv& (0+255),w,b
  4572   000EFA  6F77               	movwf	UART_Init@temp& (0+255),b
  4573   000EFC  6B78               	clrf	(UART_Init@temp+1)& (0+255),b
  4574   000EFE  EF39  F007         	goto	l5727
  4575   000F02                     l5741:
  4576                           
  4577                           ;uart.c: 40:     RCSTA = 0b10010000;
  4578   000F02  0E90               	movlw	144
  4579   000F04  6EAB               	movwf	171,c	;volatile
  4580   000F06                     
  4581                           ;uart.c: 46:     PIE1bits.RCIE = 1;
  4582   000F06  8A9D               	bsf	157,5,c	;volatile
  4583   000F08                     
  4584                           ;uart.c: 47:     IPR1bits.RCIP = 1;
  4585   000F08  8A9F               	bsf	159,5,c	;volatile
  4586   000F0A                     
  4587                           ;uart.c: 48:     IPR1bits.TX1IP = 1;
  4588   000F0A  889F               	bsf	159,4,c	;volatile
  4589   000F0C  0012               	return		;funcret
  4590   000F0E                     __end_of_UART_Init:
  4591                           	callstack 0
  4592                           
  4593 ;; *************** function ___lldiv *****************
  4594 ;; Defined at:
  4595 ;;		line 7 in file "C:\Program Files\Microchip\xc8\v2.40\pic\sources\c99\common\__lldiv.c"
  4596 ;; Parameters:    Size  Location     Type
  4597 ;;  dividend        4    3[BANK0 ] unsigned long 
  4598 ;;  divisor         4    7[BANK0 ] unsigned long 
  4599 ;; Auto vars:     Size  Location     Type
  4600 ;;  quotient        4   11[BANK0 ] unsigned long 
  4601 ;;  counter         1   15[BANK0 ] unsigned char 
  4602 ;; Return value:  Size  Location     Type
  4603 ;;                  4    3[BANK0 ] unsigned long 
  4604 ;; Registers used:
  4605 ;;		wreg, status,2, status,0
  4606 ;; Tracked objects:
  4607 ;;		On entry : 0/0
  4608 ;;		On exit  : 0/0
  4609 ;;		Unchanged: 0/0
  4610 ;; Data sizes:     COMRAM   BANK0   BANK1   BANK2   BANK3   BANK4   BANK5   BANK6   BANK7
  4611 ;;      Params:         0       8       0       0       0       0       0       0       0
  4612 ;;      Locals:         0       5       0       0       0       0       0       0       0
  4613 ;;      Temps:          0       0       0       0       0       0       0       0       0
  4614 ;;      Totals:         0      13       0       0       0       0       0       0       0
  4615 ;;Total ram usage:       13 bytes
  4616 ;; Hardware stack levels used: 1
  4617 ;; Hardware stack levels required when called: 11
  4618 ;; This function calls:
  4619 ;;		Nothing
  4620 ;; This function is called by:
  4621 ;;		_UART_Init
  4622 ;; This function uses a non-reentrant model
  4623 ;;
  4624                           
  4625                           	psect	text20
  4626   002A64                     __ptext20:
  4627                           	callstack 0
  4628   002A64                     ___lldiv:
  4629                           	callstack 18
  4630   002A64  0E00               	movlw	0
  4631   002A66  0100               	movlb	0	; () banked
  4632   002A68  6F6B               	movwf	___lldiv@quotient& (0+255),b
  4633   002A6A  0E00               	movlw	0
  4634   002A6C  6F6C               	movwf	(___lldiv@quotient+1)& (0+255),b
  4635   002A6E  0E00               	movlw	0
  4636   002A70  6F6D               	movwf	(___lldiv@quotient+2)& (0+255),b
  4637   002A72  0E00               	movlw	0
  4638   002A74  6F6E               	movwf	(___lldiv@quotient+3)& (0+255),b
  4639   002A76                     
  4640                           ; BSR set to: 0
  4641   002A76  5167               	movf	___lldiv@divisor& (0+255),w,b
  4642   002A78  1168               	iorwf	(___lldiv@divisor+1)& (0+255),w,b
  4643   002A7A  1169               	iorwf	(___lldiv@divisor+2)& (0+255),w,b
  4644   002A7C  116A               	iorwf	(___lldiv@divisor+3)& (0+255),w,b
  4645   002A7E  B4D8               	btfsc	status,2,c
  4646   002A80  EF44  F015         	goto	u4441
  4647   002A84  EF46  F015         	goto	u4440
  4648   002A88                     u4441:
  4649   002A88  EF7C  F015         	goto	l809
  4650   002A8C                     u4440:
  4651   002A8C                     
  4652                           ; BSR set to: 0
  4653   002A8C  0E01               	movlw	1
  4654   002A8E  6F6F               	movwf	___lldiv@counter& (0+255),b
  4655   002A90  EF50  F015         	goto	l5651
  4656   002A94                     l5649:
  4657                           
  4658                           ; BSR set to: 0
  4659   002A94  90D8               	bcf	status,0,c
  4660   002A96  3767               	rlcf	___lldiv@divisor& (0+255),f,b
  4661   002A98  3768               	rlcf	(___lldiv@divisor+1)& (0+255),f,b
  4662   002A9A  3769               	rlcf	(___lldiv@divisor+2)& (0+255),f,b
  4663   002A9C  376A               	rlcf	(___lldiv@divisor+3)& (0+255),f,b
  4664   002A9E  2B6F               	incf	___lldiv@counter& (0+255),f,b
  4665   002AA0                     l5651:
  4666                           
  4667                           ; BSR set to: 0
  4668   002AA0  AF6A               	btfss	(___lldiv@divisor+3)& (0+255),7,b
  4669   002AA2  EF55  F015         	goto	u4451
  4670   002AA6  EF57  F015         	goto	u4450
  4671   002AAA                     u4451:
  4672   002AAA  EF4A  F015         	goto	l5649
  4673   002AAE                     u4450:
  4674   002AAE                     l5653:
  4675                           
  4676                           ; BSR set to: 0
  4677   002AAE  90D8               	bcf	status,0,c
  4678   002AB0  376B               	rlcf	___lldiv@quotient& (0+255),f,b
  4679   002AB2  376C               	rlcf	(___lldiv@quotient+1)& (0+255),f,b
  4680   002AB4  376D               	rlcf	(___lldiv@quotient+2)& (0+255),f,b
  4681   002AB6  376E               	rlcf	(___lldiv@quotient+3)& (0+255),f,b
  4682   002AB8                     
  4683                           ; BSR set to: 0
  4684   002AB8  5167               	movf	___lldiv@divisor& (0+255),w,b
  4685   002ABA  5D63               	subwf	___lldiv@dividend& (0+255),w,b
  4686   002ABC  5168               	movf	(___lldiv@divisor+1)& (0+255),w,b
  4687   002ABE  5964               	subwfb	(___lldiv@dividend+1)& (0+255),w,b
  4688   002AC0  5169               	movf	(___lldiv@divisor+2)& (0+255),w,b
  4689   002AC2  5965               	subwfb	(___lldiv@dividend+2)& (0+255),w,b
  4690   002AC4  516A               	movf	(___lldiv@divisor+3)& (0+255),w,b
  4691   002AC6  5966               	subwfb	(___lldiv@dividend+3)& (0+255),w,b
  4692   002AC8  A0D8               	btfss	status,0,c
  4693   002ACA  EF69  F015         	goto	u4461
  4694   002ACE  EF6B  F015         	goto	u4460
  4695   002AD2                     u4461:
  4696   002AD2  EF74  F015         	goto	l5661
  4697   002AD6                     u4460:
  4698   002AD6                     
  4699                           ; BSR set to: 0
  4700   002AD6  5167               	movf	___lldiv@divisor& (0+255),w,b
  4701   002AD8  5F63               	subwf	___lldiv@dividend& (0+255),f,b
  4702   002ADA  5168               	movf	(___lldiv@divisor+1)& (0+255),w,b
  4703   002ADC  5B64               	subwfb	(___lldiv@dividend+1)& (0+255),f,b
  4704   002ADE  5169               	movf	(___lldiv@divisor+2)& (0+255),w,b
  4705   002AE0  5B65               	subwfb	(___lldiv@dividend+2)& (0+255),f,b
  4706   002AE2  516A               	movf	(___lldiv@divisor+3)& (0+255),w,b
  4707   002AE4  5B66               	subwfb	(___lldiv@dividend+3)& (0+255),f,b
  4708   002AE6                     
  4709                           ; BSR set to: 0
  4710   002AE6  816B               	bsf	___lldiv@quotient& (0+255),0,b
  4711   002AE8                     l5661:
  4712                           
  4713                           ; BSR set to: 0
  4714   002AE8  90D8               	bcf	status,0,c
  4715   002AEA  336A               	rrcf	(___lldiv@divisor+3)& (0+255),f,b
  4716   002AEC  3369               	rrcf	(___lldiv@divisor+2)& (0+255),f,b
  4717   002AEE  3368               	rrcf	(___lldiv@divisor+1)& (0+255),f,b
  4718   002AF0  3367               	rrcf	___lldiv@divisor& (0+255),f,b
  4719   002AF2                     
  4720                           ; BSR set to: 0
  4721   002AF2  2F6F               	decfsz	___lldiv@counter& (0+255),f,b
  4722   002AF4  EF57  F015         	goto	l5653
  4723   002AF8                     l809:
  4724                           
  4725                           ; BSR set to: 0
  4726   002AF8  C06B  F063         	movff	___lldiv@quotient,?___lldiv
  4727   002AFC  C06C  F064         	movff	___lldiv@quotient+1,?___lldiv+1
  4728   002B00  C06D  F065         	movff	___lldiv@quotient+2,?___lldiv+2
  4729   002B04  C06E  F066         	movff	___lldiv@quotient+3,?___lldiv+3
  4730   002B08                     
  4731                           ; BSR set to: 0
  4732   002B08  0012               	return		;funcret
  4733   002B0A                     __end_of___lldiv:
  4734                           	callstack 0
  4735                           
  4736 ;; *************** function _Interrupt_Init *****************
  4737 ;; Defined at:
  4738 ;;		line 370 in file "main.c"
  4739 ;; Parameters:    Size  Location     Type
  4740 ;;		None
  4741 ;; Auto vars:     Size  Location     Type
  4742 ;;		None
  4743 ;; Return value:  Size  Location     Type
  4744 ;;                  1    wreg      void 
  4745 ;; Registers used:
  4746 ;;		None
  4747 ;; Tracked objects:
  4748 ;;		On entry : 0/0
  4749 ;;		On exit  : 0/0
  4750 ;;		Unchanged: 0/0
  4751 ;; Data sizes:     COMRAM   BANK0   BANK1   BANK2   BANK3   BANK4   BANK5   BANK6   BANK7
  4752 ;;      Params:         0       0       0       0       0       0       0       0       0
  4753 ;;      Locals:         0       0       0       0       0       0       0       0       0
  4754 ;;      Temps:          0       0       0       0       0       0       0       0       0
  4755 ;;      Totals:         0       0       0       0       0       0       0       0       0
  4756 ;;Total ram usage:        0 bytes
  4757 ;; Hardware stack levels used: 1
  4758 ;; Hardware stack levels required when called: 11
  4759 ;; This function calls:
  4760 ;;		Nothing
  4761 ;; This function is called by:
  4762 ;;		_main
  4763 ;; This function uses a non-reentrant model
  4764 ;;
  4765                           
  4766                           	psect	text21
  4767   003124                     __ptext21:
  4768                           	callstack 0
  4769   003124                     _Interrupt_Init:
  4770                           	callstack 19
  4771   003124                     
  4772                           ;main.c: 371:             USBCBInitEP();
  4773   003124  8EF2               	bsf	242,7,c	;volatile
  4774                           
  4775                           ;main.c: 372:             break;
  4776   003126  8EF2               	bsf	242,7,c	;volatile
  4777                           
  4778                           ;main.c: 373:         case EVENT_SET_DESCRIPTOR:
  4779   003128  8CF2               	bsf	242,6,c	;volatile
  4780                           
  4781                           ;main.c: 374:             USBCBStdSetDscHandler();
  4782   00312A  8CF2               	bsf	242,6,c	;volatile
  4783                           
  4784                           ;main.c: 375:             break;
  4785   00312C  8CF2               	bsf	242,6,c	;volatile
  4786                           
  4787                           ;main.c: 376:         case EVENT_EP0_REQUEST:
  4788   00312E  8ED0               	bsf	208,7,c	;volatile
  4789   003130  0012               	return		;funcret
  4790   003132                     __end_of_Interrupt_Init:
  4791                           	callstack 0
  4792                           
  4793 ;; *************** function _InitializeSystem *****************
  4794 ;; Defined at:
  4795 ;;		line 429 in file "main.c"
  4796 ;; Parameters:    Size  Location     Type
  4797 ;;		None
  4798 ;; Auto vars:     Size  Location     Type
  4799 ;;		None
  4800 ;; Return value:  Size  Location     Type
  4801 ;;                  1    wreg      void 
  4802 ;; Registers used:
  4803 ;;		wreg, fsr2l, fsr2h, status,2, status,0, prodl, prodh, cstack
  4804 ;; Tracked objects:
  4805 ;;		On entry : 0/0
  4806 ;;		On exit  : 0/0
  4807 ;;		Unchanged: 0/0
  4808 ;; Data sizes:     COMRAM   BANK0   BANK1   BANK2   BANK3   BANK4   BANK5   BANK6   BANK7
  4809 ;;      Params:         0       0       0       0       0       0       0       0       0
  4810 ;;      Locals:         0       0       0       0       0       0       0       0       0
  4811 ;;      Temps:          0       0       0       0       0       0       0       0       0
  4812 ;;      Totals:         0       0       0       0       0       0       0       0       0
  4813 ;;Total ram usage:        0 bytes
  4814 ;; Hardware stack levels used: 1
  4815 ;; Hardware stack levels required when called: 13
  4816 ;; This function calls:
  4817 ;;		_USBDeviceInit
  4818 ;;		_UserInit
  4819 ;; This function is called by:
  4820 ;;		_main
  4821 ;; This function uses a non-reentrant model
  4822 ;;
  4823                           
  4824                           	psect	text22
  4825   003132                     __ptext22:
  4826                           	callstack 0
  4827   003132                     _InitializeSystem:
  4828                           	callstack 17
  4829   003132  EC18  F00B         	call	_USBDeviceInit	;wreg free
  4830   003136  EC81  F018         	call	_UserInit	;wreg free
  4831   00313A  0012               	return		;funcret
  4832   00313C                     __end_of_InitializeSystem:
  4833                           	callstack 0
  4834                           
  4835 ;; *************** function _UserInit *****************
  4836 ;; Defined at:
  4837 ;;		line 422 in file "main.c"
  4838 ;; Parameters:    Size  Location     Type
  4839 ;;		None
  4840 ;; Auto vars:     Size  Location     Type
  4841 ;;		None
  4842 ;; Return value:  Size  Location     Type
  4843 ;;                  1    wreg      void 
  4844 ;; Registers used:
  4845 ;;		wreg, status,2, status,0
  4846 ;; Tracked objects:
  4847 ;;		On entry : 0/0
  4848 ;;		On exit  : 0/0
  4849 ;;		Unchanged: 0/0
  4850 ;; Data sizes:     COMRAM   BANK0   BANK1   BANK2   BANK3   BANK4   BANK5   BANK6   BANK7
  4851 ;;      Params:         0       0       0       0       0       0       0       0       0
  4852 ;;      Locals:         0       0       0       0       0       0       0       0       0
  4853 ;;      Temps:          0       0       0       0       0       0       0       0       0
  4854 ;;      Totals:         0       0       0       0       0       0       0       0       0
  4855 ;;Total ram usage:        0 bytes
  4856 ;; Hardware stack levels used: 1
  4857 ;; Hardware stack levels required when called: 11
  4858 ;; This function calls:
  4859 ;;		Nothing
  4860 ;; This function is called by:
  4861 ;;		_InitializeSystem
  4862 ;; This function uses a non-reentrant model
  4863 ;;
  4864                           
  4865                           	psect	text23
  4866   003102                     __ptext23:
  4867                           	callstack 0
  4868   003102                     _UserInit:
  4869                           	callstack 18
  4870   003102  0E00               	movlw	0
  4871   003104  0101               	movlb	1	; () banked
  4872   003106  6F71               	movwf	_USBOutHandle& (0+255),b
  4873   003108  0E00               	movlw	0
  4874   00310A  6F72               	movwf	(_USBOutHandle+1)& (0+255),b
  4875   00310C  0E00               	movlw	0
  4876   00310E  6F6F               	movwf	_USBInHandle& (0+255),b
  4877   003110  0E00               	movlw	0
  4878   003112  6F70               	movwf	(_USBInHandle+1)& (0+255),b
  4879   003114                     
  4880                           ; BSR set to: 1
  4881   003114  0012               	return		;funcret
  4882   003116                     __end_of_UserInit:
  4883                           	callstack 0
  4884                           
  4885 ;; *************** function _USBDeviceInit *****************
  4886 ;; Defined at:
  4887 ;;		line 281 in file "usb_device.c"
  4888 ;; Parameters:    Size  Location     Type
  4889 ;;		None
  4890 ;; Auto vars:     Size  Location     Type
  4891 ;;  i               1   15[BANK0 ] unsigned char 
  4892 ;; Return value:  Size  Location     Type
  4893 ;;                  1    wreg      void 
  4894 ;; Registers used:
  4895 ;;		wreg, fsr2l, fsr2h, status,2, status,0, prodl, prodh, cstack
  4896 ;; Tracked objects:
  4897 ;;		On entry : 0/0
  4898 ;;		On exit  : 0/0
  4899 ;;		Unchanged: 0/0
  4900 ;; Data sizes:     COMRAM   BANK0   BANK1   BANK2   BANK3   BANK4   BANK5   BANK6   BANK7
  4901 ;;      Params:         0       0       0       0       0       0       0       0       0
  4902 ;;      Locals:         0       1       0       0       0       0       0       0       0
  4903 ;;      Temps:          0       0       0       0       0       0       0       0       0
  4904 ;;      Totals:         0       1       0       0       0       0       0       0       0
  4905 ;;Total ram usage:        1 bytes
  4906 ;; Hardware stack levels used: 1
  4907 ;; Hardware stack levels required when called: 12
  4908 ;; This function calls:
  4909 ;;		_memset
  4910 ;; This function is called by:
  4911 ;;		_InitializeSystem
  4912 ;; This function uses a non-reentrant model
  4913 ;;
  4914                           
  4915                           	psect	text24
  4916   001630                     __ptext24:
  4917                           	callstack 0
  4918   001630                     _USBDeviceInit:
  4919                           	callstack 17
  4920   001630                     
  4921                           ;usb_device.c: 283:     uint8_t i;;usb_device.c: 285:     {PIE2bits.USBIE = 0;};
  4922   001630  9AA0               	bcf	160,5,c	;volatile
  4923   001632                     
  4924                           ;usb_device.c: 292:     {UEIR = 0;};
  4925   001632  0E00               	movlw	0
  4926   001634  6E6A               	movwf	106,c	;volatile
  4927                           
  4928                           ;usb_device.c: 295:     {UIR = 0;};
  4929   001636  0E00               	movlw	0
  4930   001638  6E68               	movwf	104,c	;volatile
  4931                           
  4932                           ;usb_device.c: 298:     UEP0 = 0;
  4933   00163A  0E00               	movlw	0
  4934   00163C  6E70               	movwf	112,c	;volatile
  4935   00163E                     
  4936                           ;usb_device.c: 300:     memset((void*)&UEP1,0x00,(1));;
  4937   00163E  0E71               	movlw	113
  4938   001640  0100               	movlb	0	; () banked
  4939   001642  6F63               	movwf	memset@dest& (0+255),b
  4940   001644  0E0F               	movlw	15
  4941   001646  6F64               	movwf	(memset@dest+1)& (0+255),b
  4942   001648  0E00               	movlw	0
  4943   00164A  6F66               	movwf	(memset@c+1)& (0+255),b
  4944   00164C  0E00               	movlw	0
  4945   00164E  6F65               	movwf	memset@c& (0+255),b
  4946   001650  0E00               	movlw	0
  4947   001652  6F68               	movwf	(memset@n+1)& (0+255),b
  4948   001654  0E01               	movlw	1
  4949   001656  6F67               	movwf	memset@n& (0+255),b
  4950   001658  EC87  F007         	call	_memset	;wreg free
  4951   00165C                     
  4952                           ;usb_device.c: 302:     { UCFG = 0x10 | 0x00 | 0x04 | 0x02; UEIE = 0x9F; UIE = 0x39 | 0x
      +                          40 | 0x02; };
  4953   00165C  0E16               	movlw	22
  4954   00165E  6E6F               	movwf	111,c	;volatile
  4955   001660  0E9F               	movlw	159
  4956   001662  6E6B               	movwf	107,c	;volatile
  4957   001664  0E7B               	movlw	123
  4958   001666  6E69               	movwf	105,c	;volatile
  4959   001668                     
  4960                           ;usb_device.c: 311:     for(i = 0; i < (sizeof(BDT)/sizeof(BDT_ENTRY)); i++)
  4961   001668  0E00               	movlw	0
  4962   00166A  0100               	movlb	0	; () banked
  4963   00166C  6F6F               	movwf	USBDeviceInit@i& (0+255),b
  4964   00166E                     l5573:
  4965                           
  4966                           ; BSR set to: 0
  4967                           ;usb_device.c: 312:     {;usb_device.c: 313:         BDT[i].Val = 0x00;
  4968   00166E  516F               	movf	USBDeviceInit@i& (0+255),w,b
  4969   001670  0D04               	mullw	4
  4970   001672  0E00               	movlw	0
  4971   001674  24F3               	addwf	243,w,c
  4972   001676  6ED9               	movwf	fsr2l,c
  4973   001678  0E04               	movlw	4
  4974   00167A  20F4               	addwfc	prodh,w,c
  4975   00167C  6EDA               	movwf	fsr2h,c
  4976   00167E  6ADE               	clrf	postinc2,c
  4977   001680  6ADE               	clrf	postinc2,c
  4978   001682  6ADE               	clrf	postinc2,c
  4979   001684  6ADD               	clrf	postdec2,c
  4980   001686                     
  4981                           ; BSR set to: 0
  4982                           ;usb_device.c: 314:     }
  4983   001686  2B6F               	incf	USBDeviceInit@i& (0+255),f,b
  4984   001688                     
  4985                           ; BSR set to: 0
  4986   001688  0E07               	movlw	7
  4987   00168A  656F               	cpfsgt	USBDeviceInit@i& (0+255),b
  4988   00168C  EF4A  F00B         	goto	u4401
  4989   001690  EF4C  F00B         	goto	u4400
  4990   001694                     u4401:
  4991   001694  EF37  F00B         	goto	l5573
  4992   001698                     u4400:
  4993   001698                     
  4994                           ; BSR set to: 0
  4995                           ;usb_device.c: 317:     UCONbits.PPBRST = 1;
  4996   001698  8C6D               	bsf	109,6,c	;volatile
  4997   00169A                     
  4998                           ; BSR set to: 0
  4999                           ;usb_device.c: 320:     UADDR = 0x00;
  5000   00169A  0E00               	movlw	0
  5001   00169C  6E6E               	movwf	110,c	;volatile
  5002   00169E                     
  5003                           ; BSR set to: 0
  5004                           ;usb_device.c: 323:     UCONbits.PKTDIS = 0;
  5005   00169E  986D               	bcf	109,4,c	;volatile
  5006   0016A0                     
  5007                           ; BSR set to: 0
  5008                           ;usb_device.c: 326:     UCONbits.PPBRST = 0;
  5009   0016A0  9C6D               	bcf	109,6,c	;volatile
  5010   0016A2                     l5585:
  5011                           
  5012                           ; BSR set to: 0
  5013                           ;usb_device.c: 330:     {;usb_device.c: 331:         (UIR &= 0xF7);
  5014   0016A2  9668               	bcf	104,3,c	;volatile
  5015   0016A4                     
  5016                           ; BSR set to: 0
  5017                           ;usb_device.c: 333:         inPipes[0].info.Val = 0;
  5018   0016A4  0E00               	movlw	0
  5019   0016A6  6FDC               	movwf	(_inPipes+3)& (0+255),b
  5020   0016A8                     
  5021                           ; BSR set to: 0
  5022                           ;usb_device.c: 334:         outPipes[0].info.Val = 0;
  5023   0016A8  0E00               	movlw	0
  5024   0016AA  6FD4               	movwf	(_outPipes+3)& (0+255),b
  5025   0016AC                     
  5026                           ; BSR set to: 0
  5027                           ;usb_device.c: 335:         outPipes[0].wCount.Val = 0;
  5028   0016AC  0E00               	movlw	0
  5029   0016AE  6FD6               	movwf	(_outPipes+5)& (0+255),b
  5030   0016B0  0E00               	movlw	0
  5031   0016B2  6FD5               	movwf	(_outPipes+4)& (0+255),b
  5032   0016B4                     
  5033                           ; BSR set to: 0
  5034                           ;usb_device.c: 336:     }while(UIRbits.TRNIF == 1);
  5035   0016B4  B668               	btfsc	104,3,c	;volatile
  5036   0016B6  EF5F  F00B         	goto	u4411
  5037   0016BA  EF61  F00B         	goto	u4410
  5038   0016BE                     u4411:
  5039   0016BE  EF51  F00B         	goto	l5585
  5040   0016C2                     u4410:
  5041   0016C2                     
  5042                           ; BSR set to: 0
  5043                           ;usb_device.c: 340:     USBStatusStageEnabledFlag1 = 1;
  5044   0016C2  0E01               	movlw	1
  5045   0016C4  6E3D               	movwf	_USBStatusStageEnabledFlag1^0,c	;volatile
  5046                           
  5047                           ;usb_device.c: 341:     USBStatusStageEnabledFlag2 = 1;
  5048   0016C6  0E01               	movlw	1
  5049   0016C8  6E3C               	movwf	_USBStatusStageEnabledFlag2^0,c	;volatile
  5050                           
  5051                           ;usb_device.c: 343:     USBDeferINDataStagePackets = 0;
  5052   0016CA  0E00               	movlw	0
  5053   0016CC  6E3B               	movwf	_USBDeferINDataStagePackets^0,c	;volatile
  5054                           
  5055                           ;usb_device.c: 344:     USBDeferOUTDataStagePackets = 0;
  5056   0016CE  0E00               	movlw	0
  5057   0016D0  6E3A               	movwf	_USBDeferOUTDataStagePackets^0,c	;volatile
  5058                           
  5059                           ;usb_device.c: 345:     USBBusIsSuspended = 0;
  5060   0016D2  0E00               	movlw	0
  5061   0016D4  6FF5               	movwf	_USBBusIsSuspended& (0+255),b
  5062                           
  5063                           ;usb_device.c: 349:     for(i = 0; i < (uint8_t)(1 +1u); i++)
  5064   0016D6  0E00               	movlw	0
  5065   0016D8  6F6F               	movwf	USBDeviceInit@i& (0+255),b
  5066   0016DA                     l5601:
  5067                           
  5068                           ; BSR set to: 0
  5069                           ;usb_device.c: 350:     {;usb_device.c: 351:         pBDTEntryIn[i] = 0u;
  5070   0016DA  516F               	movf	USBDeviceInit@i& (0+255),w,b
  5071   0016DC  0D02               	mullw	2
  5072   0016DE  0EE3               	movlw	low _pBDTEntryIn
  5073   0016E0  24F3               	addwf	243,w,c
  5074   0016E2  6ED9               	movwf	fsr2l,c
  5075   0016E4  0E00               	movlw	high _pBDTEntryIn
  5076   0016E6  20F4               	addwfc	prodh,w,c
  5077   0016E8  6EDA               	movwf	fsr2h,c
  5078   0016EA  0E00               	movlw	0
  5079   0016EC  6EDE               	movwf	postinc2,c
  5080   0016EE  0E00               	movlw	0
  5081   0016F0  6EDD               	movwf	postdec2,c
  5082                           
  5083                           ;usb_device.c: 352:         pBDTEntryOut[i] = 0u;
  5084   0016F2  516F               	movf	USBDeviceInit@i& (0+255),w,b
  5085   0016F4  0D02               	mullw	2
  5086   0016F6  0EE7               	movlw	low _pBDTEntryOut
  5087   0016F8  24F3               	addwf	243,w,c
  5088   0016FA  6ED9               	movwf	fsr2l,c
  5089   0016FC  0E00               	movlw	high _pBDTEntryOut
  5090   0016FE  20F4               	addwfc	prodh,w,c
  5091   001700  6EDA               	movwf	fsr2h,c
  5092   001702  0E00               	movlw	0
  5093   001704  6EDE               	movwf	postinc2,c
  5094   001706  0E00               	movlw	0
  5095   001708  6EDD               	movwf	postdec2,c
  5096   00170A                     
  5097                           ; BSR set to: 0
  5098                           ;usb_device.c: 353:         ep_data_in[i].Val = 0u;
  5099   00170A  0EF1               	movlw	low _ep_data_in
  5100   00170C  256F               	addwf	USBDeviceInit@i& (0+255),w,b
  5101   00170E  6ED9               	movwf	fsr2l,c
  5102   001710  6ADA               	clrf	fsr2h,c
  5103   001712  0E00               	movlw	high _ep_data_in
  5104   001714  22DA               	addwfc	fsr2h,f,c
  5105   001716  0E00               	movlw	0
  5106   001718  6EDF               	movwf	indf2,c
  5107   00171A                     
  5108                           ; BSR set to: 0
  5109                           ;usb_device.c: 354:         ep_data_out[i].Val = 0u;
  5110   00171A  0EEF               	movlw	low _ep_data_out
  5111   00171C  256F               	addwf	USBDeviceInit@i& (0+255),w,b
  5112   00171E  6ED9               	movwf	fsr2l,c
  5113   001720  6ADA               	clrf	fsr2h,c
  5114   001722  0E00               	movlw	high _ep_data_out
  5115   001724  22DA               	addwfc	fsr2h,f,c
  5116   001726  0E00               	movlw	0
  5117   001728  6EDF               	movwf	indf2,c
  5118   00172A                     
  5119                           ; BSR set to: 0
  5120                           ;usb_device.c: 355:     }
  5121   00172A  2B6F               	incf	USBDeviceInit@i& (0+255),f,b
  5122   00172C                     
  5123                           ; BSR set to: 0
  5124   00172C  0E01               	movlw	1
  5125   00172E  656F               	cpfsgt	USBDeviceInit@i& (0+255),b
  5126   001730  EF9C  F00B         	goto	u4421
  5127   001734  EF9E  F00B         	goto	u4420
  5128   001738                     u4421:
  5129   001738  EF6D  F00B         	goto	l5601
  5130   00173C                     u4420:
  5131   00173C                     
  5132                           ; BSR set to: 0
  5133                           ;usb_device.c: 358:     pBDTEntryIn[0] = (volatile BDT_ENTRY*)&BDT[2];
  5134   00173C  0E08               	movlw	8
  5135   00173E  6FE3               	movwf	_pBDTEntryIn& (0+255),b
  5136   001740  0E04               	movlw	4
  5137   001742  6FE4               	movwf	(_pBDTEntryIn+1)& (0+255),b
  5138   001744                     
  5139                           ; BSR set to: 0
  5140                           ;usb_device.c: 360:     UEP0 = 0x06|0x10;
  5141   001744  0E16               	movlw	22
  5142   001746  6E70               	movwf	112,c	;volatile
  5143   001748                     
  5144                           ; BSR set to: 0
  5145                           ;usb_device.c: 362:     BDT[0].ADR = ((uint16_t)(&SetupPkt));
  5146   001748  0E04               	movlw	4
  5147   00174A  0104               	movlb	4	; () banked
  5148   00174C  6F03               	movwf	3,b	;volatile
  5149   00174E  0E20               	movlw	32
  5150   001750  6F02               	movwf	2,b	;volatile
  5151   001752                     
  5152                           ; BSR set to: 4
  5153                           ;usb_device.c: 363:     BDT[0].CNT = 8;
  5154   001752  0E08               	movlw	8
  5155   001754  6F01               	movwf	1,b	;volatile
  5156   001756                     
  5157                           ; BSR set to: 4
  5158                           ;usb_device.c: 364:     BDT[0].STAT.Val = 0x00|0x04;
  5159   001756  0E04               	movlw	4
  5160   001758  6F00               	movwf	0,b	;volatile
  5161   00175A                     
  5162                           ; BSR set to: 4
  5163                           ;usb_device.c: 365:     BDT[0].STAT.Val |= 0x80;
  5164   00175A  8F00               	bsf	0,7,b	;volatile
  5165   00175C                     
  5166                           ; BSR set to: 4
  5167                           ;usb_device.c: 368:     USBActiveConfiguration = 0;
  5168   00175C  0E00               	movlw	0
  5169   00175E  6E4A               	movwf	_USBActiveConfiguration^0,c
  5170   001760                     
  5171                           ; BSR set to: 4
  5172                           ;usb_device.c: 370:     USB1msTickCount = 0;
  5173   001760  0E00               	movlw	0
  5174   001762  0100               	movlb	0	; () banked
  5175   001764  6FDF               	movwf	_USB1msTickCount& (0+255),b
  5176   001766  0E00               	movlw	0
  5177   001768  6FE0               	movwf	(_USB1msTickCount+1)& (0+255),b
  5178   00176A  0E00               	movlw	0
  5179   00176C  6FE1               	movwf	(_USB1msTickCount+2)& (0+255),b
  5180   00176E  0E00               	movlw	0
  5181   001770  6FE2               	movwf	(_USB1msTickCount+3)& (0+255),b
  5182   001772                     
  5183                           ; BSR set to: 0
  5184                           ;usb_device.c: 371:     USBTicksSinceSuspendEnd = 0;
  5185   001772  0E00               	movlw	0
  5186   001774  6FF4               	movwf	_USBTicksSinceSuspendEnd& (0+255),b
  5187   001776                     
  5188                           ; BSR set to: 0
  5189                           ;usb_device.c: 374:     USBDeviceState = DETACHED_STATE;
  5190   001776  0E00               	movlw	0
  5191   001778  0101               	movlb	1	; () banked
  5192   00177A  6F74               	movwf	_USBDeviceState& (0+255),b
  5193   00177C                     
  5194                           ; BSR set to: 1
  5195   00177C  0012               	return		;funcret
  5196   00177E                     __end_of_USBDeviceInit:
  5197                           	callstack 0
  5198                           
  5199 ;; *************** function _memset *****************
  5200 ;; Defined at:
  5201 ;;		line 4 in file "C:\Program Files\Microchip\xc8\v2.40\pic\sources\c99\common\memset.c"
  5202 ;; Parameters:    Size  Location     Type
  5203 ;;  dest            2    3[BANK0 ] PTR void 
  5204 ;;		 -> USBAlternateInterface(1), BDT(32), UEP1(1), 
  5205 ;;  c               2    5[BANK0 ] int 
  5206 ;;  n               2    7[BANK0 ] unsigned int 
  5207 ;; Auto vars:     Size  Location     Type
  5208 ;;  s               2   13[BANK0 ] PTR unsigned char 
  5209 ;;		 -> USBAlternateInterface(1), BDT(32), UEP1(1), 
  5210 ;;  k               2   11[BANK0 ] unsigned int 
  5211 ;; Return value:  Size  Location     Type
  5212 ;;                  2    3[BANK0 ] PTR void 
  5213 ;; Registers used:
  5214 ;;		wreg, fsr2l, fsr2h, status,2, status,0
  5215 ;; Tracked objects:
  5216 ;;		On entry : 0/0
  5217 ;;		On exit  : 0/0
  5218 ;;		Unchanged: 0/0
  5219 ;; Data sizes:     COMRAM   BANK0   BANK1   BANK2   BANK3   BANK4   BANK5   BANK6   BANK7
  5220 ;;      Params:         0       6       0       0       0       0       0       0       0
  5221 ;;      Locals:         0       4       0       0       0       0       0       0       0
  5222 ;;      Temps:          0       2       0       0       0       0       0       0       0
  5223 ;;      Totals:         0      12       0       0       0       0       0       0       0
  5224 ;;Total ram usage:       12 bytes
  5225 ;; Hardware stack levels used: 1
  5226 ;; Hardware stack levels required when called: 11
  5227 ;; This function calls:
  5228 ;;		Nothing
  5229 ;; This function is called by:
  5230 ;;		_USBDeviceInit
  5231 ;; This function uses a non-reentrant model
  5232 ;;
  5233                           
  5234                           	psect	text25
  5235   000F0E                     __ptext25:
  5236                           	callstack 0
  5237   000F0E                     _memset:
  5238                           	callstack 17
  5239   000F0E  C063  F06D         	movff	memset@dest,memset@s
  5240   000F12  C064  F06E         	movff	memset@dest+1,memset@s+1
  5241   000F16  0100               	movlb	0	; () banked
  5242   000F18  5167               	movf	memset@n& (0+255),w,b
  5243   000F1A  1168               	iorwf	(memset@n+1)& (0+255),w,b
  5244   000F1C  A4D8               	btfss	status,2,c
  5245   000F1E  EF93  F007         	goto	u4331
  5246   000F22  EF95  F007         	goto	u4330
  5247   000F26                     u4331:
  5248   000F26  EF97  F007         	goto	l5489
  5249   000F2A                     u4330:
  5250   000F2A  EF42  F008         	goto	l1463
  5251   000F2E                     l5489:
  5252                           
  5253                           ; BSR set to: 0
  5254   000F2E  C06D  FFD9         	movff	memset@s,fsr2l
  5255   000F32  C06E  FFDA         	movff	memset@s+1,fsr2h
  5256   000F36  C065  FFDF         	movff	memset@c,indf2
  5257   000F3A                     
  5258                           ; BSR set to: 0
  5259   000F3A  5167               	movf	memset@n& (0+255),w,b
  5260   000F3C  256D               	addwf	memset@s& (0+255),w,b
  5261   000F3E  6F69               	movwf	??_memset& (0+255),b
  5262   000F40  5168               	movf	(memset@n+1)& (0+255),w,b
  5263   000F42  216E               	addwfc	(memset@s+1)& (0+255),w,b
  5264   000F44  6F6A               	movwf	(??_memset+1)& (0+255),b
  5265   000F46  0EFF               	movlw	255
  5266   000F48  2569               	addwf	??_memset& (0+255),w,b
  5267   000F4A  6ED9               	movwf	fsr2l,c
  5268   000F4C  0EFF               	movlw	255
  5269   000F4E  216A               	addwfc	(??_memset+1)& (0+255),w,b
  5270   000F50  6EDA               	movwf	fsr2h,c
  5271   000F52  C065  FFDF         	movff	memset@c,indf2
  5272   000F56  5168               	movf	(memset@n+1)& (0+255),w,b
  5273   000F58  E107               	bnz	u4341
  5274   000F5A  0E03               	movlw	3
  5275   000F5C  5D67               	subwf	memset@n& (0+255),w,b
  5276   000F5E  B0D8               	btfsc	status,0,c
  5277   000F60  EFB4  F007         	goto	u4341
  5278   000F64  EFB6  F007         	goto	u4340
  5279   000F68                     u4341:
  5280   000F68  EFB8  F007         	goto	l5495
  5281   000F6C                     u4340:
  5282   000F6C  EF42  F008         	goto	l1463
  5283   000F70                     l5495:
  5284                           
  5285                           ; BSR set to: 0
  5286   000F70  EE20 F001          	lfsr	2,1
  5287   000F74  516D               	movf	memset@s& (0+255),w,b
  5288   000F76  26D9               	addwf	fsr2l,f,c
  5289   000F78  516E               	movf	(memset@s+1)& (0+255),w,b
  5290   000F7A  22DA               	addwfc	fsr2h,f,c
  5291   000F7C  C065  FFDF         	movff	memset@c,indf2
  5292   000F80  EE20 F002          	lfsr	2,2
  5293   000F84  516D               	movf	memset@s& (0+255),w,b
  5294   000F86  26D9               	addwf	fsr2l,f,c
  5295   000F88  516E               	movf	(memset@s+1)& (0+255),w,b
  5296   000F8A  22DA               	addwfc	fsr2h,f,c
  5297   000F8C  C065  FFDF         	movff	memset@c,indf2
  5298   000F90  5167               	movf	memset@n& (0+255),w,b
  5299   000F92  256D               	addwf	memset@s& (0+255),w,b
  5300   000F94  6F69               	movwf	??_memset& (0+255),b
  5301   000F96  5168               	movf	(memset@n+1)& (0+255),w,b
  5302   000F98  216E               	addwfc	(memset@s+1)& (0+255),w,b
  5303   000F9A  6F6A               	movwf	(??_memset+1)& (0+255),b
  5304   000F9C  0EFE               	movlw	254
  5305   000F9E  2569               	addwf	??_memset& (0+255),w,b
  5306   000FA0  6ED9               	movwf	fsr2l,c
  5307   000FA2  0EFF               	movlw	255
  5308   000FA4  216A               	addwfc	(??_memset+1)& (0+255),w,b
  5309   000FA6  6EDA               	movwf	fsr2h,c
  5310   000FA8  C065  FFDF         	movff	memset@c,indf2
  5311   000FAC  5167               	movf	memset@n& (0+255),w,b
  5312   000FAE  256D               	addwf	memset@s& (0+255),w,b
  5313   000FB0  6F69               	movwf	??_memset& (0+255),b
  5314   000FB2  5168               	movf	(memset@n+1)& (0+255),w,b
  5315   000FB4  216E               	addwfc	(memset@s+1)& (0+255),w,b
  5316   000FB6  6F6A               	movwf	(??_memset+1)& (0+255),b
  5317   000FB8  0EFD               	movlw	253
  5318   000FBA  2569               	addwf	??_memset& (0+255),w,b
  5319   000FBC  6ED9               	movwf	fsr2l,c
  5320   000FBE  0EFF               	movlw	255
  5321   000FC0  216A               	addwfc	(??_memset+1)& (0+255),w,b
  5322   000FC2  6EDA               	movwf	fsr2h,c
  5323   000FC4  C065  FFDF         	movff	memset@c,indf2
  5324   000FC8                     
  5325                           ; BSR set to: 0
  5326   000FC8  5168               	movf	(memset@n+1)& (0+255),w,b
  5327   000FCA  E107               	bnz	u4351
  5328   000FCC  0E07               	movlw	7
  5329   000FCE  5D67               	subwf	memset@n& (0+255),w,b
  5330   000FD0  B0D8               	btfsc	status,0,c
  5331   000FD2  EFED  F007         	goto	u4351
  5332   000FD6  EFEF  F007         	goto	u4350
  5333   000FDA                     u4351:
  5334   000FDA  EFF1  F007         	goto	l5501
  5335   000FDE                     u4350:
  5336   000FDE  EF42  F008         	goto	l1463
  5337   000FE2                     l5501:
  5338                           
  5339                           ; BSR set to: 0
  5340   000FE2  EE20 F003          	lfsr	2,3
  5341   000FE6  516D               	movf	memset@s& (0+255),w,b
  5342   000FE8  26D9               	addwf	fsr2l,f,c
  5343   000FEA  516E               	movf	(memset@s+1)& (0+255),w,b
  5344   000FEC  22DA               	addwfc	fsr2h,f,c
  5345   000FEE  C065  FFDF         	movff	memset@c,indf2
  5346   000FF2  5167               	movf	memset@n& (0+255),w,b
  5347   000FF4  256D               	addwf	memset@s& (0+255),w,b
  5348   000FF6  6F69               	movwf	??_memset& (0+255),b
  5349   000FF8  5168               	movf	(memset@n+1)& (0+255),w,b
  5350   000FFA  216E               	addwfc	(memset@s+1)& (0+255),w,b
  5351   000FFC  6F6A               	movwf	(??_memset+1)& (0+255),b
  5352   000FFE  0EFC               	movlw	252
  5353   001000  2569               	addwf	??_memset& (0+255),w,b
  5354   001002  6ED9               	movwf	fsr2l,c
  5355   001004  0EFF               	movlw	255
  5356   001006  216A               	addwfc	(??_memset+1)& (0+255),w,b
  5357   001008  6EDA               	movwf	fsr2h,c
  5358   00100A  C065  FFDF         	movff	memset@c,indf2
  5359   00100E                     
  5360                           ; BSR set to: 0
  5361   00100E  5168               	movf	(memset@n+1)& (0+255),w,b
  5362   001010  E107               	bnz	u4361
  5363   001012  0E09               	movlw	9
  5364   001014  5D67               	subwf	memset@n& (0+255),w,b
  5365   001016  B0D8               	btfsc	status,0,c
  5366   001018  EF10  F008         	goto	u4361
  5367   00101C  EF12  F008         	goto	u4360
  5368   001020                     u4361:
  5369   001020  EF14  F008         	goto	l5507
  5370   001024                     u4360:
  5371   001024  EF42  F008         	goto	l1463
  5372   001028                     l5507:
  5373                           
  5374                           ; BSR set to: 0
  5375   001028  C06D  F069         	movff	memset@s,??_memset
  5376   00102C  C06E  F06A         	movff	memset@s+1,??_memset+1
  5377   001030  1F69               	comf	??_memset& (0+255),f,b
  5378   001032  1F6A               	comf	(??_memset+1)& (0+255),f,b
  5379   001034  4B69               	infsnz	??_memset& (0+255),f,b
  5380   001036  2B6A               	incf	(??_memset+1)& (0+255),f,b
  5381   001038  0E03               	movlw	3
  5382   00103A  1569               	andwf	??_memset& (0+255),w,b
  5383   00103C  6F6B               	movwf	memset@k& (0+255),b
  5384   00103E  6B6C               	clrf	(memset@k+1)& (0+255),b
  5385   001040  516B               	movf	memset@k& (0+255),w,b
  5386   001042  276D               	addwf	memset@s& (0+255),f,b
  5387   001044  516C               	movf	(memset@k+1)& (0+255),w,b
  5388   001046  236E               	addwfc	(memset@s+1)& (0+255),f,b
  5389   001048  516B               	movf	memset@k& (0+255),w,b
  5390   00104A  5F67               	subwf	memset@n& (0+255),f,b
  5391   00104C  516C               	movf	(memset@k+1)& (0+255),w,b
  5392   00104E  5B68               	subwfb	(memset@n+1)& (0+255),f,b
  5393   001050  0EFC               	movlw	252
  5394   001052  1767               	andwf	memset@n& (0+255),f,b
  5395   001054  0EFF               	movlw	255
  5396   001056  1768               	andwf	(memset@n+1)& (0+255),f,b
  5397   001058  EF39  F008         	goto	l5515
  5398   00105C                     l5509:
  5399                           
  5400                           ; BSR set to: 0
  5401   00105C  C06D  FFD9         	movff	memset@s,fsr2l
  5402   001060  C06E  FFDA         	movff	memset@s+1,fsr2h
  5403   001064  C065  FFDF         	movff	memset@c,indf2
  5404   001068                     
  5405                           ; BSR set to: 0
  5406   001068  0767               	decf	memset@n& (0+255),f,b
  5407   00106A  A0D8               	btfss	status,0,c
  5408   00106C  0768               	decf	(memset@n+1)& (0+255),f,b
  5409   00106E                     
  5410                           ; BSR set to: 0
  5411   00106E  4B6D               	infsnz	memset@s& (0+255),f,b
  5412   001070  2B6E               	incf	(memset@s+1)& (0+255),f,b
  5413   001072                     l5515:
  5414                           
  5415                           ; BSR set to: 0
  5416   001072  5167               	movf	memset@n& (0+255),w,b
  5417   001074  1168               	iorwf	(memset@n+1)& (0+255),w,b
  5418   001076  A4D8               	btfss	status,2,c
  5419   001078  EF40  F008         	goto	u4371
  5420   00107C  EF42  F008         	goto	u4370
  5421   001080                     u4371:
  5422   001080  EF2E  F008         	goto	l5509
  5423   001084                     u4370:
  5424   001084                     l1463:
  5425                           
  5426                           ; BSR set to: 0
  5427   001084  0012               	return		;funcret
  5428   001086                     __end_of_memset:
  5429                           	callstack 0
  5430                           
  5431 ;; *************** function _Enable_Interrupt *****************
  5432 ;; Defined at:
  5433 ;;		line 398 in file "main.c"
  5434 ;; Parameters:    Size  Location     Type
  5435 ;;		None
  5436 ;; Auto vars:     Size  Location     Type
  5437 ;;		None
  5438 ;; Return value:  Size  Location     Type
  5439 ;;                  1    wreg      void 
  5440 ;; Registers used:
  5441 ;;		None
  5442 ;; Tracked objects:
  5443 ;;		On entry : 0/0
  5444 ;;		On exit  : 0/0
  5445 ;;		Unchanged: 0/0
  5446 ;; Data sizes:     COMRAM   BANK0   BANK1   BANK2   BANK3   BANK4   BANK5   BANK6   BANK7
  5447 ;;      Params:         0       0       0       0       0       0       0       0       0
  5448 ;;      Locals:         0       0       0       0       0       0       0       0       0
  5449 ;;      Temps:          0       0       0       0       0       0       0       0       0
  5450 ;;      Totals:         0       0       0       0       0       0       0       0       0
  5451 ;;Total ram usage:        0 bytes
  5452 ;; Hardware stack levels used: 1
  5453 ;; Hardware stack levels required when called: 11
  5454 ;; This function calls:
  5455 ;;		Nothing
  5456 ;; This function is called by:
  5457 ;;		_main
  5458 ;; This function uses a non-reentrant model
  5459 ;;
  5460                           
  5461                           	psect	text26
  5462   003144                     __ptext26:
  5463                           	callstack 0
  5464   003144                     _Enable_Interrupt:
  5465                           	callstack 19
  5466   003144                     
  5467                           ;main.c: 399: }
  5468   003144  8EF2               	bsf	242,7,c	;volatile
  5469                           
  5470                           ;main.c: 400: 
  5471   003146  8CF2               	bsf	242,6,c	;volatile
  5472   003148  0012               	return		;funcret
  5473   00314A                     __end_of_Enable_Interrupt:
  5474                           	callstack 0
  5475                           
  5476 ;; *************** function _myISR_low *****************
  5477 ;; Defined at:
  5478 ;;		line 115 in file "main.c"
  5479 ;; Parameters:    Size  Location     Type
  5480 ;;		None
  5481 ;; Auto vars:     Size  Location     Type
  5482 ;;		None
  5483 ;; Return value:  Size  Location     Type
  5484 ;;                  1    wreg      void 
  5485 ;; Registers used:
  5486 ;;		wreg, status,2, status,0
  5487 ;; Tracked objects:
  5488 ;;		On entry : 0/0
  5489 ;;		On exit  : 0/0
  5490 ;;		Unchanged: 0/0
  5491 ;; Data sizes:     COMRAM   BANK0   BANK1   BANK2   BANK3   BANK4   BANK5   BANK6   BANK7
  5492 ;;      Params:         0       0       0       0       0       0       0       0       0
  5493 ;;      Locals:         0       0       0       0       0       0       0       0       0
  5494 ;;      Temps:          0       3       0       0       0       0       0       0       0
  5495 ;;      Totals:         0       3       0       0       0       0       0       0       0
  5496 ;;Total ram usage:        3 bytes
  5497 ;; Hardware stack levels used: 1
  5498 ;; Hardware stack levels required when called: 10
  5499 ;; This function calls:
  5500 ;;		Nothing
  5501 ;; This function is called by:
  5502 ;;		Interrupt level 1
  5503 ;; This function uses a non-reentrant model
  5504 ;;
  5505                           
  5506                           	psect	intcodelo
  5507   000018                     __pintcodelo:
  5508                           	callstack 0
  5509   000018                     _myISR_low:
  5510                           	callstack 12
  5511                           
  5512                           ;incstack = 0
  5513   000018  804B               	bsf	int$flags,0,c	;set compiler interrupt flag (level 1)
  5514   00001A  CFD8 F060          	movff	status,??_myISR_low
  5515   00001E  CFE8 F061          	movff	wreg,??_myISR_low+1
  5516   000022  CFE0 F062          	movff	bsr,??_myISR_low+2
  5517   000026                     
  5518                           ;main.c: 116:                             PIR1bits.ADIF = 0;
  5519   000026  AAF2               	btfss	242,5,c	;volatile
  5520   000028  EF18  F000         	goto	i1u386_21
  5521   00002C  EF1A  F000         	goto	i1u386_20
  5522   000030                     i1u386_21:
  5523   000030  EF2A  F000         	goto	i1l126
  5524   000034                     i1u386_20:
  5525   000034  A4F2               	btfss	242,2,c	;volatile
  5526   000036  EF1F  F000         	goto	i1u387_21
  5527   00003A  EF21  F000         	goto	i1u387_20
  5528   00003E                     i1u387_21:
  5529   00003E  EF2A  F000         	goto	i1l126
  5530   000042                     i1u387_20:
  5531   000042                     
  5532                           ;main.c: 117: 
  5533   000042  0EC2               	movlw	194
  5534   000044  6ED7               	movwf	215,c	;volatile
  5535                           
  5536                           ;main.c: 118: 
  5537   000046  0EF7               	movlw	247
  5538   000048  6ED6               	movwf	214,c	;volatile
  5539   00004A                     
  5540                           ;main.c: 119:                             ADCON0bits.GO = 1;
  5541   00004A  7289               	btg	137,1,c	;volatile
  5542   00004C                     
  5543                           ;main.c: 120: 
  5544   00004C  0E01               	movlw	1
  5545   00004E  0101               	movlb	1	; () banked
  5546   000050  6F73               	movwf	_runFlag& (0+255),b	;volatile
  5547   000052                     
  5548                           ; BSR set to: 1
  5549                           ;main.c: 121:                             while (!PIR1bits.ADIF);
  5550   000052  94F2               	bcf	242,2,c	;volatile
  5551   000054                     i1l126:
  5552   000054  C062  FFE0         	movff	??_myISR_low+2,bsr
  5553   000058  C061  FFE8         	movff	??_myISR_low+1,wreg
  5554   00005C  C060  FFD8         	movff	??_myISR_low,status
  5555   000060  904B               	bcf	int$flags,0,c	;clear compiler interrupt flag (level 1)
  5556   000062  0010               	retfie	
  5557   000064                     __end_of_myISR_low:
  5558                           	callstack 0
  5559                           
  5560 ;; *************** function _myISR_high *****************
  5561 ;; Defined at:
  5562 ;;		line 71 in file "main.c"
  5563 ;; Parameters:    Size  Location     Type
  5564 ;;		None
  5565 ;; Auto vars:     Size  Location     Type
  5566 ;;		None
  5567 ;; Return value:  Size  Location     Type
  5568 ;;                  1    wreg      void 
  5569 ;; Registers used:
  5570 ;;		wreg, fsr1l, fsr1h, fsr2l, fsr2h, status,2, status,0, tblptrl, tblptrh, tblptru, prodl, prodh, cstack
  5571 ;; Tracked objects:
  5572 ;;		On entry : 0/0
  5573 ;;		On exit  : 0/0
  5574 ;;		Unchanged: 0/0
  5575 ;; Data sizes:     COMRAM   BANK0   BANK1   BANK2   BANK3   BANK4   BANK5   BANK6   BANK7
  5576 ;;      Params:         0       0       0       0       0       0       0       0       0
  5577 ;;      Locals:         0       0       0       0       0       0       0       0       0
  5578 ;;      Temps:         12       0       0       0       0       0       0       0       0
  5579 ;;      Totals:        12       0       0       0       0       0       0       0       0
  5580 ;;Total ram usage:       12 bytes
  5581 ;; Hardware stack levels used: 1
  5582 ;; Hardware stack levels required when called: 9
  5583 ;; This function calls:
  5584 ;;		_UART_rx_complete_irq
  5585 ;;		_UART_tx_udr_empty_irq
  5586 ;;		_USBDeviceTasks
  5587 ;; This function is called by:
  5588 ;;		Interrupt level 2
  5589 ;; This function uses a non-reentrant model
  5590 ;;
  5591                           
  5592                           	psect	intcode
  5593   000008                     __pintcode:
  5594                           	callstack 0
  5595   000008                     _myISR_high:
  5596                           	callstack 12
  5597                           
  5598                           ;incstack = 0
  5599   000008  824B               	bsf	int$flags,1,c	;set compiler interrupt flag (level 2)
  5600   00000A  EF1A  F011         	goto	int_func
  5601                           
  5602                           	psect	intcode_body
  5603   002234                     __pintcode_body:
  5604                           	callstack 12
  5605   002234                     int_func:
  5606                           	callstack 12
  5607   002234  CFE1 F024          	movff	fsr1l,??_myISR_high+2
  5608   002238  CFE2 F025          	movff	fsr1h,??_myISR_high+3
  5609   00223C  CFD9 F026          	movff	fsr2l,??_myISR_high+4
  5610   002240  CFDA F027          	movff	fsr2h,??_myISR_high+5
  5611   002244  CFF3 F028          	movff	prodl,??_myISR_high+6
  5612   002248  CFF4 F029          	movff	prodh,??_myISR_high+7
  5613   00224C  CFF6 F02A          	movff	tblptrl,??_myISR_high+8
  5614   002250  CFF7 F02B          	movff	tblptrh,??_myISR_high+9
  5615   002254  CFF8 F02C          	movff	tblptru,??_myISR_high+10
  5616   002258  CFF5 F02D          	movff	tablat,??_myISR_high+11
  5617   00225C                     
  5618                           ;main.c: 72: 
  5619   00225C  A09D               	btfss	157,0,c	;volatile
  5620   00225E  EF33  F011         	goto	i2u380_41
  5621   002262  EF35  F011         	goto	i2u380_40
  5622   002266                     i2u380_41:
  5623   002266  EF61  F011         	goto	i2l111
  5624   00226A                     i2u380_40:
  5625   00226A  A09E               	btfss	158,0,c	;volatile
  5626   00226C  EF3A  F011         	goto	i2u381_41
  5627   002270  EF3C  F011         	goto	i2u381_40
  5628   002274                     i2u381_41:
  5629   002274  EF61  F011         	goto	i2l111
  5630   002278                     i2u381_40:
  5631   002278                     
  5632                           ;main.c: 74:     InitializeSystem();
  5633   002278  0EFA               	movlw	250
  5634   00227A  6ECF               	movwf	207,c	;volatile
  5635                           
  5636                           ;main.c: 75:     (INTCONbits.GIE = 0);
  5637   00227C  0E25               	movlw	37
  5638   00227E  6ECE               	movwf	206,c	;volatile
  5639   002280                     
  5640                           ;main.c: 76:     usbTimerState = USB_RUN;
  5641   002280  909E               	bcf	158,0,c	;volatile
  5642                           
  5643                           ;main.c: 77:     (INTCONbits.GIE = 1);
  5644   002282  EF48  F011         	goto	i2l4927
  5645   002286                     i2l4921:
  5646                           
  5647                           ;main.c: 91:         if (USBDeviceState < CONFIGURED_STATE || UCONbits.SUSPND == 1) {;ma
      +                          in.c: 93:         } else {
  5648   002286  ECA3  F004         	call	_USBDeviceTasks	;wreg free
  5649   00228A                     
  5650                           ;main.c: 94: 
  5651   00228A  748D               	btg	141,2,c	;volatile
  5652                           
  5653                           ;main.c: 96:             {;main.c: 97: 
  5654   00228C  EF61  F011         	goto	i2l111
  5655   002290                     i2l4927:
  5656   002290  5045               	movf	_usbTimerState^0,w,c
  5657   002292  6E22               	movwf	??_myISR_high^0,c
  5658   002294  6A23               	clrf	(??_myISR_high+1)^0,c
  5659                           
  5660                           ; Switch on 2 bytes has been partitioned into a top level switch of size 1, and 1 sub-sw
      +                          itches
  5661                           ; Switch size 1, requested type "simple"
  5662                           ; Number of cases is 1, Range of values is 0 to 0
  5663                           ; switch strategies available:
  5664                           ; Name         Instructions Cycles
  5665                           ; simple_byte            4     3 (average)
  5666                           ;	Chosen strategy is simple_byte
  5667   002296  5023               	movf	(??_myISR_high+1)^0,w,c
  5668   002298  0A00               	xorlw	0	; case 0
  5669   00229A  B4D8               	btfsc	status,2,c
  5670   00229C  EF52  F011         	goto	i2l6183
  5671   0022A0  EF61  F011         	goto	i2l111
  5672   0022A4                     i2l6183:
  5673                           
  5674                           ; Switch size 1, requested type "simple"
  5675                           ; Number of cases is 3, Range of values is 0 to 2
  5676                           ; switch strategies available:
  5677                           ; Name         Instructions Cycles
  5678                           ; simple_byte           10     6 (average)
  5679                           ;	Chosen strategy is simple_byte
  5680   0022A4  5022               	movf	??_myISR_high^0,w,c
  5681   0022A6  0A00               	xorlw	0	; case 0
  5682   0022A8  B4D8               	btfsc	status,2,c
  5683   0022AA  EF61  F011         	goto	i2l111
  5684   0022AE  0A01               	xorlw	1	; case 1
  5685   0022B0  B4D8               	btfsc	status,2,c
  5686   0022B2  EF43  F011         	goto	i2l4921
  5687   0022B6  0A03               	xorlw	3	; case 2
  5688   0022B8  B4D8               	btfsc	status,2,c
  5689   0022BA  EF61  F011         	goto	i2l111
  5690   0022BE  EF61  F011         	goto	i2l111
  5691   0022C2                     i2l111:
  5692                           
  5693                           ;main.c: 107:                     case 0x20:
  5694   0022C2  AA9D               	btfss	157,5,c	;volatile
  5695   0022C4  EF66  F011         	goto	i2u382_41
  5696   0022C8  EF68  F011         	goto	i2u382_40
  5697   0022CC                     i2u382_41:
  5698   0022CC  EF71  F011         	goto	i2l4933
  5699   0022D0                     i2u382_40:
  5700   0022D0  AA9E               	btfss	158,5,c	;volatile
  5701   0022D2  EF6D  F011         	goto	i2u383_41
  5702   0022D6  EF6F  F011         	goto	i2u383_40
  5703   0022DA                     i2u383_41:
  5704   0022DA  EF71  F011         	goto	i2l4933
  5705   0022DE                     i2u383_40:
  5706   0022DE                     
  5707                           ;main.c: 108:                     {
  5708   0022DE  EC0C  F016         	call	_UART_rx_complete_irq	;wreg free
  5709   0022E2                     i2l4933:
  5710                           
  5711                           ;main.c: 110:                         UART_putrs("Read ADC Voltage");
  5712   0022E2  A89D               	btfss	157,4,c	;volatile
  5713   0022E4  EF76  F011         	goto	i2u384_41
  5714   0022E8  EF78  F011         	goto	i2u384_40
  5715   0022EC                     i2u384_41:
  5716   0022EC  EF81  F011         	goto	i2l120
  5717   0022F0                     i2u384_40:
  5718   0022F0  A89E               	btfss	158,4,c	;volatile
  5719   0022F2  EF7D  F011         	goto	i2u385_41
  5720   0022F6  EF7F  F011         	goto	i2u385_40
  5721   0022FA                     i2u385_41:
  5722   0022FA  EF81  F011         	goto	i2l120
  5723   0022FE                     i2u385_40:
  5724   0022FE                     
  5725                           ;main.c: 111:                         if (!((USBInHandle != 0x0000) && ((*(volatile uint
      +                          8_t*)USBInHandle & 0x80) != 0x00))) {
  5726   0022FE  EC29  F018         	call	_UART_tx_udr_empty_irq	;wreg free
  5727   002302                     i2l120:
  5728   002302  C02D  FFF5         	movff	??_myISR_high+11,tablat
  5729   002306  C02C  FFF8         	movff	??_myISR_high+10,tblptru
  5730   00230A  C02B  FFF7         	movff	??_myISR_high+9,tblptrh
  5731   00230E  C02A  FFF6         	movff	??_myISR_high+8,tblptrl
  5732   002312  C029  FFF4         	movff	??_myISR_high+7,prodh
  5733   002316  C028  FFF3         	movff	??_myISR_high+6,prodl
  5734   00231A  C027  FFDA         	movff	??_myISR_high+5,fsr2h
  5735   00231E  C026  FFD9         	movff	??_myISR_high+4,fsr2l
  5736   002322  C025  FFE2         	movff	??_myISR_high+3,fsr1h
  5737   002326  C024  FFE1         	movff	??_myISR_high+2,fsr1l
  5738   00232A  924B               	bcf	int$flags,1,c	;clear compiler interrupt flag (level 2)
  5739   00232C  0011               	retfie		f
  5740   00232E                     __end_of_myISR_high:
  5741                           	callstack 0
  5742                           
  5743 ;; *************** function _USBDeviceTasks *****************
  5744 ;; Defined at:
  5745 ;;		line 481 in file "usb_device.c"
  5746 ;; Parameters:    Size  Location     Type
  5747 ;;		None
  5748 ;; Auto vars:     Size  Location     Type
  5749 ;;  i               1   32[COMRAM] unsigned char 
  5750 ;; Return value:  Size  Location     Type
  5751 ;;                  1    wreg      void 
  5752 ;; Registers used:
  5753 ;;		wreg, fsr1l, fsr1h, fsr2l, fsr2h, status,2, status,0, tblptrl, tblptrh, tblptru, prodl, prodh, cstack
  5754 ;; Tracked objects:
  5755 ;;		On entry : 0/0
  5756 ;;		On exit  : 0/0
  5757 ;;		Unchanged: 0/0
  5758 ;; Data sizes:     COMRAM   BANK0   BANK1   BANK2   BANK3   BANK4   BANK5   BANK6   BANK7
  5759 ;;      Params:         0       0       0       0       0       0       0       0       0
  5760 ;;      Locals:         1       0       0       0       0       0       0       0       0
  5761 ;;      Temps:          0       0       0       0       0       0       0       0       0
  5762 ;;      Totals:         1       0       0       0       0       0       0       0       0
  5763 ;;Total ram usage:        1 bytes
  5764 ;; Hardware stack levels used: 1
  5765 ;; Hardware stack levels required when called: 8
  5766 ;; This function calls:
  5767 ;;		_USBCtrlEPService
  5768 ;;		_USBIncrement1msInternalTimers
  5769 ;;		_USBStallHandler
  5770 ;;		_USBSuspend
  5771 ;;		_USBWakeFromSuspend
  5772 ;;		_USER_USB_CALLBACK_EVENT_HANDLER
  5773 ;;		i2_USBDeviceInit
  5774 ;; This function is called by:
  5775 ;;		_myISR_high
  5776 ;; This function uses a non-reentrant model
  5777 ;;
  5778                           
  5779                           	psect	text29
  5780   000946                     __ptext29:
  5781                           	callstack 0
  5782   000946                     _USBDeviceTasks:
  5783                           	callstack 12
  5784   000946                     
  5785                           ;usb_device.c: 570:     if(USBDeviceState == DETACHED_STATE)
  5786   000946  0101               	movlb	1	; () banked
  5787   000948  5174               	movf	_USBDeviceState& (0+255),w,b
  5788   00094A  A4D8               	btfss	status,2,c
  5789   00094C  EFAA  F004         	goto	i2u339_41
  5790   000950  EFAC  F004         	goto	i2u339_40
  5791   000954                     i2u339_41:
  5792   000954  EFC3  F004         	goto	i2l4679
  5793   000958                     i2u339_40:
  5794   000958                     
  5795                           ; BSR set to: 1
  5796                           ;usb_device.c: 571:     {;usb_device.c: 573:         UCON = 0;
  5797   000958  0E00               	movlw	0
  5798   00095A  6E6D               	movwf	109,c	;volatile
  5799                           
  5800                           ;usb_device.c: 576:         UIE = 0;
  5801   00095C  0E00               	movlw	0
  5802   00095E  6E69               	movwf	105,c	;volatile
  5803                           
  5804                           ;usb_device.c: 580:         { UCFG = 0x10 | 0x00 | 0x04 | 0x02; UEIE = 0x9F; UIE = 0x39 
      +                          | 0x40 | 0x02; };
  5805   000960  0E16               	movlw	22
  5806   000962  6E6F               	movwf	111,c	;volatile
  5807   000964  0E9F               	movlw	159
  5808   000966  6E6B               	movwf	107,c	;volatile
  5809   000968  0E7B               	movlw	123
  5810   00096A  6E69               	movwf	105,c	;volatile
  5811                           
  5812                           ;usb_device.c: 583:         while(!UCONbits.USBEN){UCONbits.USBEN = 1;}
  5813   00096C  EFB9  F004         	goto	i2l392
  5814   000970                     i2l393:
  5815   000970  866D               	bsf	109,3,c	;volatile
  5816   000972                     i2l392:
  5817   000972  A66D               	btfss	109,3,c	;volatile
  5818   000974  EFBE  F004         	goto	i2u340_41
  5819   000978  EFC0  F004         	goto	i2u340_40
  5820   00097C                     i2u340_41:
  5821   00097C  EFB8  F004         	goto	i2l393
  5822   000980                     i2u340_40:
  5823   000980                     
  5824                           ;usb_device.c: 586:         USBDeviceState = ATTACHED_STATE;
  5825   000980  0E01               	movlw	1
  5826   000982  0101               	movlb	1	; () banked
  5827   000984  6F74               	movwf	_USBDeviceState& (0+255),b
  5828   000986                     i2l4679:
  5829                           
  5830                           ; BSR set to: 1
  5831                           ;usb_device.c: 594:     if(USBDeviceState == ATTACHED_STATE)
  5832   000986  0574               	decf	_USBDeviceState& (0+255),w,b
  5833   000988  A4D8               	btfss	status,2,c
  5834   00098A  EFC9  F004         	goto	i2u341_41
  5835   00098E  EFCB  F004         	goto	i2u341_40
  5836   000992                     i2u341_41:
  5837   000992  EFDA  F004         	goto	i2l4689
  5838   000996                     i2u341_40:
  5839   000996                     
  5840                           ; BSR set to: 1
  5841                           ;usb_device.c: 595:     {;usb_device.c: 605:         if(!UCONbits.SE0)
  5842   000996  BA6D               	btfsc	109,5,c	;volatile
  5843   000998  EFD0  F004         	goto	i2u342_41
  5844   00099C  EFD2  F004         	goto	i2u342_40
  5845   0009A0                     i2u342_41:
  5846   0009A0  EFDA  F004         	goto	i2l4689
  5847   0009A4                     i2u342_40:
  5848   0009A4                     
  5849                           ; BSR set to: 1
  5850                           ;usb_device.c: 606:         {;usb_device.c: 612:                 {UIR = 0;};
  5851   0009A4  0E00               	movlw	0
  5852   0009A6  6E68               	movwf	104,c	;volatile
  5853                           
  5854                           ;usb_device.c: 616:                 UIE=0;
  5855   0009A8  0E00               	movlw	0
  5856   0009AA  6E69               	movwf	105,c	;volatile
  5857   0009AC                     
  5858                           ; BSR set to: 1
  5859                           ;usb_device.c: 618:             UIEbits.URSTIE = 1;
  5860   0009AC  8069               	bsf	105,0,c	;volatile
  5861   0009AE                     
  5862                           ; BSR set to: 1
  5863                           ;usb_device.c: 619:             UIEbits.IDLEIE = 1;
  5864   0009AE  8869               	bsf	105,4,c	;volatile
  5865                           
  5866                           ;usb_device.c: 620:             USBDeviceState = POWERED_STATE;
  5867   0009B0  0E02               	movlw	2
  5868   0009B2  6F74               	movwf	_USBDeviceState& (0+255),b
  5869   0009B4                     i2l4689:
  5870                           
  5871                           ; BSR set to: 1
  5872                           ;usb_device.c: 638:     if(UIRbits.ACTVIF && UIEbits.ACTVIE)
  5873   0009B4  A468               	btfss	104,2,c	;volatile
  5874   0009B6  EFDF  F004         	goto	i2u343_41
  5875   0009BA  EFE1  F004         	goto	i2u343_40
  5876   0009BE                     i2u343_41:
  5877   0009BE  EFEB  F004         	goto	i2l4697
  5878   0009C2                     i2u343_40:
  5879   0009C2                     
  5880                           ; BSR set to: 1
  5881   0009C2  A469               	btfss	105,2,c	;volatile
  5882   0009C4  EFE6  F004         	goto	i2u344_41
  5883   0009C8  EFE8  F004         	goto	i2u344_40
  5884   0009CC                     i2u344_41:
  5885   0009CC  EFEB  F004         	goto	i2l4697
  5886   0009D0                     i2u344_40:
  5887   0009D0                     
  5888                           ; BSR set to: 1
  5889                           ;usb_device.c: 639:     {;usb_device.c: 640:         (UIR &= 0xFB);
  5890   0009D0  9468               	bcf	104,2,c	;volatile
  5891   0009D2                     
  5892                           ; BSR set to: 1
  5893                           ;usb_device.c: 644:             USBWakeFromSuspend();
  5894   0009D2  EC9E  F017         	call	_USBWakeFromSuspend	;wreg free
  5895   0009D6                     i2l4697:
  5896                           
  5897                           ;usb_device.c: 651:     if(UCONbits.SUSPND==1)
  5898   0009D6  A26D               	btfss	109,1,c	;volatile
  5899   0009D8  EFF0  F004         	goto	i2u345_41
  5900   0009DC  EFF2  F004         	goto	i2u345_40
  5901   0009E0                     i2u345_41:
  5902   0009E0  EFF5  F004         	goto	i2l398
  5903   0009E4                     i2u345_40:
  5904   0009E4                     
  5905                           ;usb_device.c: 652:     {;usb_device.c: 653:         {PIR2bits.USBIF = 0;};
  5906   0009E4  9AA1               	bcf	161,5,c	;volatile
  5907                           
  5908                           ;usb_device.c: 654:         return;
  5909   0009E6  EFC6  F005         	goto	i2l390
  5910   0009EA                     i2l398:
  5911                           
  5912                           ;usb_device.c: 667:     if(UIRbits.URSTIF && UIEbits.URSTIE)
  5913   0009EA  A068               	btfss	104,0,c	;volatile
  5914   0009EC  EFFA  F004         	goto	i2u346_41
  5915   0009F0  EFFC  F004         	goto	i2u346_40
  5916   0009F4                     i2u346_41:
  5917   0009F4  EF09  F005         	goto	i2l4709
  5918   0009F8                     i2u346_40:
  5919   0009F8  A069               	btfss	105,0,c	;volatile
  5920   0009FA  EF01  F005         	goto	i2u347_41
  5921   0009FE  EF03  F005         	goto	i2u347_40
  5922   000A02                     i2u347_41:
  5923   000A02  EF09  F005         	goto	i2l4709
  5924   000A06                     i2u347_40:
  5925   000A06                     
  5926                           ;usb_device.c: 668:     {;usb_device.c: 669:         USBDeviceInit();
  5927   000A06  ECBF  F00B         	call	i2_USBDeviceInit	;wreg free
  5928   000A0A                     
  5929                           ;usb_device.c: 675:         USBDeviceState = DEFAULT_STATE;
  5930   000A0A  0E04               	movlw	4
  5931   000A0C  0101               	movlb	1	; () banked
  5932   000A0E  6F74               	movwf	_USBDeviceState& (0+255),b
  5933   000A10                     
  5934                           ; BSR set to: 1
  5935                           ;usb_device.c: 685:         (UIR &= 0xFE);
  5936   000A10  9068               	bcf	104,0,c	;volatile
  5937   000A12                     i2l4709:
  5938                           
  5939                           ;usb_device.c: 691:     if(UIRbits.IDLEIF && UIEbits.IDLEIE)
  5940   000A12  A868               	btfss	104,4,c	;volatile
  5941   000A14  EF0E  F005         	goto	i2u348_41
  5942   000A18  EF10  F005         	goto	i2u348_40
  5943   000A1C                     i2u348_41:
  5944   000A1C  EF19  F005         	goto	i2l4715
  5945   000A20                     i2u348_40:
  5946   000A20  A869               	btfss	105,4,c	;volatile
  5947   000A22  EF15  F005         	goto	i2u349_41
  5948   000A26  EF17  F005         	goto	i2u349_40
  5949   000A2A                     i2u349_41:
  5950   000A2A  EF19  F005         	goto	i2l4715
  5951   000A2E                     i2u349_40:
  5952   000A2E                     
  5953                           ;usb_device.c: 692:     {;usb_device.c: 698:             USBSuspend();
  5954   000A2E  EC41  F018         	call	_USBSuspend	;wreg free
  5955   000A32                     i2l4715:
  5956                           
  5957                           ;usb_device.c: 712:     if(UIRbits.SOFIF)
  5958   000A32  AC68               	btfss	104,6,c	;volatile
  5959   000A34  EF1E  F005         	goto	i2u350_41
  5960   000A38  EF20  F005         	goto	i2u350_40
  5961   000A3C                     i2u350_41:
  5962   000A3C  EF38  F005         	goto	i2l4725
  5963   000A40                     i2u350_40:
  5964   000A40                     
  5965                           ;usb_device.c: 713:     {;usb_device.c: 715:         if(UIEbits.SOFIE)
  5966   000A40  AC69               	btfss	105,6,c	;volatile
  5967   000A42  EF25  F005         	goto	i2u351_41
  5968   000A46  EF27  F005         	goto	i2u351_40
  5969   000A4A                     i2u351_41:
  5970   000A4A  EF35  F005         	goto	i2l4721
  5971   000A4E                     i2u351_40:
  5972   000A4E                     
  5973                           ;usb_device.c: 716:         {;usb_device.c: 717:             USER_USB_CALLBACK_EVENT_HAN
      +                          DLER((USB_EVENT)EVENT_SOF,0,1);
  5974   000A4E  0E00               	movlw	0
  5975   000A50  6E10               	movwf	(USER_USB_CALLBACK_EVENT_HANDLER@event+1)^0,c
  5976   000A52  0E73               	movlw	115
  5977   000A54  6E0F               	movwf	USER_USB_CALLBACK_EVENT_HANDLER@event^0,c
  5978   000A56  0E00               	movlw	0
  5979   000A58  6E11               	movwf	USER_USB_CALLBACK_EVENT_HANDLER@pdata^0,c
  5980   000A5A  0E00               	movlw	0
  5981   000A5C  6E12               	movwf	(USER_USB_CALLBACK_EVENT_HANDLER@pdata+1)^0,c
  5982   000A5E  0E00               	movlw	0
  5983   000A60  6E14               	movwf	(USER_USB_CALLBACK_EVENT_HANDLER@size+1)^0,c
  5984   000A62  0E01               	movlw	1
  5985   000A64  6E13               	movwf	USER_USB_CALLBACK_EVENT_HANDLER@size^0,c
  5986   000A66  ECDB  F014         	call	_USER_USB_CALLBACK_EVENT_HANDLER	;wreg free
  5987   000A6A                     i2l4721:
  5988                           
  5989                           ;usb_device.c: 719:         (UIR &= 0xBF);
  5990   000A6A  9C68               	bcf	104,6,c	;volatile
  5991   000A6C                     
  5992                           ;usb_device.c: 722:             USBIncrement1msInternalTimers();
  5993   000A6C  ECF6  F017         	call	_USBIncrement1msInternalTimers	;wreg free
  5994   000A70                     i2l4725:
  5995                           
  5996                           ;usb_device.c: 755:     if(UIRbits.STALLIF && UIEbits.STALLIE)
  5997   000A70  AA68               	btfss	104,5,c	;volatile
  5998   000A72  EF3D  F005         	goto	i2u352_41
  5999   000A76  EF3F  F005         	goto	i2u352_40
  6000   000A7A                     i2u352_41:
  6001   000A7A  EF48  F005         	goto	i2l4731
  6002   000A7E                     i2u352_40:
  6003   000A7E  AA69               	btfss	105,5,c	;volatile
  6004   000A80  EF44  F005         	goto	i2u353_41
  6005   000A84  EF46  F005         	goto	i2u353_40
  6006   000A88                     i2u353_41:
  6007   000A88  EF48  F005         	goto	i2l4731
  6008   000A8C                     i2u353_40:
  6009   000A8C                     
  6010                           ;usb_device.c: 756:     {;usb_device.c: 757:         USBStallHandler();
  6011   000A8C  EC81  F016         	call	_USBStallHandler	;wreg free
  6012   000A90                     i2l4731:
  6013                           
  6014                           ;usb_device.c: 760:     if(UIRbits.UERRIF && UIEbits.UERRIE)
  6015   000A90  A268               	btfss	104,1,c	;volatile
  6016   000A92  EF4D  F005         	goto	i2u354_41
  6017   000A96  EF4F  F005         	goto	i2u354_40
  6018   000A9A                     i2u354_41:
  6019   000A9A  EF65  F005         	goto	i2l4739
  6020   000A9E                     i2u354_40:
  6021   000A9E  A269               	btfss	105,1,c	;volatile
  6022   000AA0  EF54  F005         	goto	i2u355_41
  6023   000AA4  EF56  F005         	goto	i2u355_40
  6024   000AA8                     i2u355_41:
  6025   000AA8  EF65  F005         	goto	i2l4739
  6026   000AAC                     i2u355_40:
  6027   000AAC                     
  6028                           ;usb_device.c: 761:     {;usb_device.c: 762:         USER_USB_CALLBACK_EVENT_HANDLER((US
      +                          B_EVENT)EVENT_BUS_ERROR,0,1);
  6029   000AAC  0E7F               	movlw	127
  6030   000AAE  6E10               	movwf	(USER_USB_CALLBACK_EVENT_HANDLER@event+1)^0,c
  6031   000AB0  680F               	setf	USER_USB_CALLBACK_EVENT_HANDLER@event^0,c
  6032   000AB2  0E00               	movlw	0
  6033   000AB4  6E11               	movwf	USER_USB_CALLBACK_EVENT_HANDLER@pdata^0,c
  6034   000AB6  0E00               	movlw	0
  6035   000AB8  6E12               	movwf	(USER_USB_CALLBACK_EVENT_HANDLER@pdata+1)^0,c
  6036   000ABA  0E00               	movlw	0
  6037   000ABC  6E14               	movwf	(USER_USB_CALLBACK_EVENT_HANDLER@size+1)^0,c
  6038   000ABE  0E01               	movlw	1
  6039   000AC0  6E13               	movwf	USER_USB_CALLBACK_EVENT_HANDLER@size^0,c
  6040   000AC2  ECDB  F014         	call	_USER_USB_CALLBACK_EVENT_HANDLER	;wreg free
  6041   000AC6                     
  6042                           ;usb_device.c: 763:         {UEIR = 0;};
  6043   000AC6  0E00               	movlw	0
  6044   000AC8  6E6A               	movwf	106,c	;volatile
  6045   000ACA                     i2l4739:
  6046                           
  6047                           ;usb_device.c: 778:     if(USBDeviceState < DEFAULT_STATE)
  6048   000ACA  0E04               	movlw	4
  6049   000ACC  0101               	movlb	1	; () banked
  6050   000ACE  6174               	cpfslt	_USBDeviceState& (0+255),b
  6051   000AD0  EF6C  F005         	goto	i2u356_41
  6052   000AD4  EF6E  F005         	goto	i2u356_40
  6053   000AD8                     i2u356_41:
  6054   000AD8  EF71  F005         	goto	i2l405
  6055   000ADC                     i2u356_40:
  6056   000ADC                     
  6057                           ; BSR set to: 1
  6058                           ;usb_device.c: 779:     {;usb_device.c: 780:         {PIR2bits.USBIF = 0;};
  6059   000ADC  9AA1               	bcf	161,5,c	;volatile
  6060                           
  6061                           ;usb_device.c: 781:         return;
  6062   000ADE  EFC6  F005         	goto	i2l390
  6063   000AE2                     i2l405:
  6064                           
  6065                           ; BSR set to: 1
  6066                           ;usb_device.c: 787:     if(UIEbits.TRNIE)
  6067   000AE2  A669               	btfss	105,3,c	;volatile
  6068   000AE4  EF76  F005         	goto	i2u357_41
  6069   000AE8  EF78  F005         	goto	i2u357_40
  6070   000AEC                     i2u357_41:
  6071   000AEC  EFC5  F005         	goto	i2l406
  6072   000AF0                     i2u357_40:
  6073   000AF0                     
  6074                           ; BSR set to: 1
  6075                           ;usb_device.c: 788:     {;usb_device.c: 789:         for(i = 0; i < 4u; i++)
  6076   000AF0  0E00               	movlw	0
  6077   000AF2  6E21               	movwf	USBDeviceTasks@i^0,c
  6078   000AF4                     i2l407:
  6079                           
  6080                           ;usb_device.c: 790:         {;usb_device.c: 791:             if(UIRbits.TRNIF)
  6081   000AF4  A668               	btfss	104,3,c	;volatile
  6082   000AF6  EF7F  F005         	goto	i2u358_41
  6083   000AFA  EF81  F005         	goto	i2u358_40
  6084   000AFE                     i2u358_41:
  6085   000AFE  EFC5  F005         	goto	i2l406
  6086   000B02                     i2u358_40:
  6087   000B02                     
  6088                           ;usb_device.c: 792:             {;usb_device.c: 794:                 USTATcopy.Val = UST
      +                          AT;
  6089   000B02  CF6C F048          	movff	3948,_USTATcopy	;volatile
  6090   000B06                     
  6091                           ;usb_device.c: 795:                 endpoint_number = USTATcopy.endpoint_number;
  6092   000B06  3048               	rrcf	_USTATcopy^0,w,c
  6093   000B08  32E8               	rrcf	wreg,f,c
  6094   000B0A  32E8               	rrcf	wreg,f,c
  6095   000B0C  0B0F               	andlw	15
  6096   000B0E  6E41               	movwf	_endpoint_number^0,c
  6097   000B10                     
  6098                           ;usb_device.c: 797:                 (UIR &= 0xF7);
  6099   000B10  9668               	bcf	104,3,c	;volatile
  6100   000B12                     
  6101                           ;usb_device.c: 802:                 if(USTATcopy.direction == 0)
  6102   000B12  B448               	btfsc	_USTATcopy^0,2,c
  6103   000B14  EF8E  F005         	goto	i2u359_41
  6104   000B18  EF90  F005         	goto	i2u359_40
  6105   000B1C                     i2u359_41:
  6106   000B1C  EF9A  F005         	goto	i2l4759
  6107   000B20                     i2u359_40:
  6108   000B20                     
  6109                           ;usb_device.c: 803:                 {;usb_device.c: 804:                     ep_data_out
      +                          [endpoint_number].bits.ping_pong_state ^= 1;
  6110   000B20  0EEF               	movlw	low _ep_data_out
  6111   000B22  2441               	addwf	_endpoint_number^0,w,c
  6112   000B24  6ED9               	movwf	fsr2l,c
  6113   000B26  6ADA               	clrf	fsr2h,c
  6114   000B28  0E00               	movlw	high _ep_data_out
  6115   000B2A  22DA               	addwfc	fsr2h,f,c
  6116   000B2C  0100               	movlb	0	; () banked
  6117   000B2E  70DF               	btg	indf2,0,c
  6118                           
  6119                           ;usb_device.c: 805:                 }
  6120   000B30  EFA2  F005         	goto	i2l4761
  6121   000B34                     i2l4759:
  6122                           
  6123                           ;usb_device.c: 807:                 {;usb_device.c: 808:                     ep_data_in[
      +                          endpoint_number].bits.ping_pong_state ^= 1;
  6124   000B34  0EF1               	movlw	low _ep_data_in
  6125   000B36  2441               	addwf	_endpoint_number^0,w,c
  6126   000B38  6ED9               	movwf	fsr2l,c
  6127   000B3A  6ADA               	clrf	fsr2h,c
  6128   000B3C  0E00               	movlw	high _ep_data_in
  6129   000B3E  22DA               	addwfc	fsr2h,f,c
  6130   000B40  0100               	movlb	0	; () banked
  6131   000B42  70DF               	btg	indf2,0,c
  6132   000B44                     i2l4761:
  6133                           
  6134                           ; BSR set to: 0
  6135                           ;usb_device.c: 814:                 if(endpoint_number == 0)
  6136   000B44  5041               	movf	_endpoint_number^0,w,c
  6137   000B46  A4D8               	btfss	status,2,c
  6138   000B48  EFA8  F005         	goto	i2u360_41
  6139   000B4C  EFAA  F005         	goto	i2u360_40
  6140   000B50                     i2u360_41:
  6141   000B50  EFAE  F005         	goto	i2l4765
  6142   000B54                     i2u360_40:
  6143   000B54                     
  6144                           ; BSR set to: 0
  6145                           ;usb_device.c: 815:                 {;usb_device.c: 816:                     USBCtrlEPSe
      +                          rvice();
  6146   000B54  ECCF  F013         	call	_USBCtrlEPService	;wreg free
  6147                           
  6148                           ;usb_device.c: 817:                 }
  6149   000B58  EFBC  F005         	goto	i2l4767
  6150   000B5C                     i2l4765:
  6151                           
  6152                           ; BSR set to: 0
  6153                           ;usb_device.c: 819:                 {;usb_device.c: 820:                     USER_USB_CA
      +                          LLBACK_EVENT_HANDLER((USB_EVENT)EVENT_TRANSFER,(uint8_t*)&USTATcopy.Val,0);
  6154   000B5C  0E00               	movlw	0
  6155   000B5E  6E10               	movwf	(USER_USB_CALLBACK_EVENT_HANDLER@event+1)^0,c
  6156   000B60  0E72               	movlw	114
  6157   000B62  6E0F               	movwf	USER_USB_CALLBACK_EVENT_HANDLER@event^0,c
  6158   000B64  0E48               	movlw	low _USTATcopy
  6159   000B66  6E11               	movwf	USER_USB_CALLBACK_EVENT_HANDLER@pdata^0,c
  6160   000B68  0E00               	movlw	high _USTATcopy
  6161   000B6A  6E12               	movwf	(USER_USB_CALLBACK_EVENT_HANDLER@pdata+1)^0,c
  6162   000B6C  0E00               	movlw	0
  6163   000B6E  6E14               	movwf	(USER_USB_CALLBACK_EVENT_HANDLER@size+1)^0,c
  6164   000B70  0E00               	movlw	0
  6165   000B72  6E13               	movwf	USER_USB_CALLBACK_EVENT_HANDLER@size^0,c
  6166   000B74  ECDB  F014         	call	_USER_USB_CALLBACK_EVENT_HANDLER	;wreg free
  6167   000B78                     i2l4767:
  6168                           
  6169                           ;usb_device.c: 827:         }
  6170   000B78  2A21               	incf	USBDeviceTasks@i^0,f,c
  6171   000B7A  0E03               	movlw	3
  6172   000B7C  6421               	cpfsgt	USBDeviceTasks@i^0,c
  6173   000B7E  EFC3  F005         	goto	i2u361_41
  6174   000B82  EFC5  F005         	goto	i2u361_40
  6175   000B86                     i2u361_41:
  6176   000B86  EF7A  F005         	goto	i2l407
  6177   000B8A                     i2u361_40:
  6178   000B8A                     i2l406:
  6179                           
  6180                           ;usb_device.c: 830:     {PIR2bits.USBIF = 0;};
  6181   000B8A  9AA1               	bcf	161,5,c	;volatile
  6182   000B8C                     i2l390:
  6183   000B8C  0012               	return		;funcret
  6184   000B8E                     __end_of_USBDeviceTasks:
  6185                           	callstack 0
  6186                           
  6187 ;; *************** function i2_USBDeviceInit *****************
  6188 ;; Defined at:
  6189 ;;		line 281 in file "usb_device.c"
  6190 ;; Parameters:    Size  Location     Type
  6191 ;;		None
  6192 ;; Auto vars:     Size  Location     Type
  6193 ;;  i               1   12[COMRAM] unsigned char 
  6194 ;; Return value:  Size  Location     Type
  6195 ;;                  1    wreg      void 
  6196 ;; Registers used:
  6197 ;;		wreg, fsr2l, fsr2h, status,2, status,0, prodl, prodh, cstack
  6198 ;; Tracked objects:
  6199 ;;		On entry : 0/0
  6200 ;;		On exit  : 0/0
  6201 ;;		Unchanged: 0/0
  6202 ;; Data sizes:     COMRAM   BANK0   BANK1   BANK2   BANK3   BANK4   BANK5   BANK6   BANK7
  6203 ;;      Params:         0       0       0       0       0       0       0       0       0
  6204 ;;      Locals:         1       0       0       0       0       0       0       0       0
  6205 ;;      Temps:          0       0       0       0       0       0       0       0       0
  6206 ;;      Totals:         1       0       0       0       0       0       0       0       0
  6207 ;;Total ram usage:        1 bytes
  6208 ;; Hardware stack levels used: 1
  6209 ;; Hardware stack levels required when called: 1
  6210 ;; This function calls:
  6211 ;;		i2_memset
  6212 ;; This function is called by:
  6213 ;;		_USBDeviceTasks
  6214 ;; This function uses a non-reentrant model
  6215 ;;
  6216                           
  6217                           	psect	text30
  6218   00177E                     __ptext30:
  6219                           	callstack 0
  6220   00177E                     i2_USBDeviceInit:
  6221                           	callstack 18
  6222   00177E                     
  6223                           ;usb_device.c: 283:     uint8_t i;;usb_device.c: 285:     {PIE2bits.USBIE = 0;};
  6224   00177E  9AA0               	bcf	160,5,c	;volatile
  6225   001780                     
  6226                           ;usb_device.c: 292:     {UEIR = 0;};
  6227   001780  0E00               	movlw	0
  6228   001782  6E6A               	movwf	106,c	;volatile
  6229                           
  6230                           ;usb_device.c: 295:     {UIR = 0;};
  6231   001784  0E00               	movlw	0
  6232   001786  6E68               	movwf	104,c	;volatile
  6233                           
  6234                           ;usb_device.c: 298:     UEP0 = 0;
  6235   001788  0E00               	movlw	0
  6236   00178A  6E70               	movwf	112,c	;volatile
  6237   00178C                     
  6238                           ;usb_device.c: 300:     memset((void*)&UEP1,0x00,(1));;
  6239   00178C  0E71               	movlw	113
  6240   00178E  6E01               	movwf	i2memset@dest^0,c
  6241   001790  0E0F               	movlw	15
  6242   001792  6E02               	movwf	(i2memset@dest+1)^0,c
  6243   001794  0E00               	movlw	0
  6244   001796  6E04               	movwf	(i2memset@c+1)^0,c
  6245   001798  0E00               	movlw	0
  6246   00179A  6E03               	movwf	i2memset@c^0,c
  6247   00179C  0E00               	movlw	0
  6248   00179E  6E06               	movwf	(i2memset@n+1)^0,c
  6249   0017A0  0E01               	movlw	1
  6250   0017A2  6E05               	movwf	i2memset@n^0,c
  6251   0017A4  EC43  F008         	call	i2_memset	;wreg free
  6252   0017A8                     
  6253                           ;usb_device.c: 302:     { UCFG = 0x10 | 0x00 | 0x04 | 0x02; UEIE = 0x9F; UIE = 0x39 | 0x
      +                          40 | 0x02; };
  6254   0017A8  0E16               	movlw	22
  6255   0017AA  6E6F               	movwf	111,c	;volatile
  6256   0017AC  0E9F               	movlw	159
  6257   0017AE  6E6B               	movwf	107,c	;volatile
  6258   0017B0  0E7B               	movlw	123
  6259   0017B2  6E69               	movwf	105,c	;volatile
  6260   0017B4                     
  6261                           ;usb_device.c: 311:     for(i = 0; i < (sizeof(BDT)/sizeof(BDT_ENTRY)); i++)
  6262   0017B4  0E00               	movlw	0
  6263   0017B6  6E0D               	movwf	i2USBDeviceInit@i^0,c
  6264   0017B8                     i2l4607:
  6265                           
  6266                           ;usb_device.c: 312:     {;usb_device.c: 313:         BDT[i].Val = 0x00;
  6267   0017B8  500D               	movf	i2USBDeviceInit@i^0,w,c
  6268   0017BA  0D04               	mullw	4
  6269   0017BC  0E00               	movlw	0
  6270   0017BE  24F3               	addwf	243,w,c
  6271   0017C0  6ED9               	movwf	fsr2l,c
  6272   0017C2  0E04               	movlw	4
  6273   0017C4  20F4               	addwfc	prodh,w,c
  6274   0017C6  6EDA               	movwf	fsr2h,c
  6275   0017C8  6ADE               	clrf	postinc2,c
  6276   0017CA  6ADE               	clrf	postinc2,c
  6277   0017CC  6ADE               	clrf	postinc2,c
  6278   0017CE  6ADD               	clrf	postdec2,c
  6279   0017D0                     
  6280                           ;usb_device.c: 314:     }
  6281   0017D0  2A0D               	incf	i2USBDeviceInit@i^0,f,c
  6282   0017D2  0E07               	movlw	7
  6283   0017D4  640D               	cpfsgt	i2USBDeviceInit@i^0,c
  6284   0017D6  EFEF  F00B         	goto	i2u336_41
  6285   0017DA  EFF1  F00B         	goto	i2u336_40
  6286   0017DE                     i2u336_41:
  6287   0017DE  EFDC  F00B         	goto	i2l4607
  6288   0017E2                     i2u336_40:
  6289   0017E2                     
  6290                           ;usb_device.c: 317:     UCONbits.PPBRST = 1;
  6291   0017E2  8C6D               	bsf	109,6,c	;volatile
  6292   0017E4                     
  6293                           ;usb_device.c: 320:     UADDR = 0x00;
  6294   0017E4  0E00               	movlw	0
  6295   0017E6  6E6E               	movwf	110,c	;volatile
  6296   0017E8                     
  6297                           ;usb_device.c: 323:     UCONbits.PKTDIS = 0;
  6298   0017E8  986D               	bcf	109,4,c	;volatile
  6299   0017EA                     
  6300                           ;usb_device.c: 326:     UCONbits.PPBRST = 0;
  6301   0017EA  9C6D               	bcf	109,6,c	;volatile
  6302   0017EC                     i2l4619:
  6303                           
  6304                           ;usb_device.c: 330:     {;usb_device.c: 331:         (UIR &= 0xF7);
  6305   0017EC  9668               	bcf	104,3,c	;volatile
  6306   0017EE                     
  6307                           ;usb_device.c: 333:         inPipes[0].info.Val = 0;
  6308   0017EE  0E00               	movlw	0
  6309   0017F0  0100               	movlb	0	; () banked
  6310   0017F2  6FDC               	movwf	(_inPipes+3)& (0+255),b
  6311   0017F4                     
  6312                           ; BSR set to: 0
  6313                           ;usb_device.c: 334:         outPipes[0].info.Val = 0;
  6314   0017F4  0E00               	movlw	0
  6315   0017F6  6FD4               	movwf	(_outPipes+3)& (0+255),b
  6316   0017F8                     
  6317                           ; BSR set to: 0
  6318                           ;usb_device.c: 335:         outPipes[0].wCount.Val = 0;
  6319   0017F8  0E00               	movlw	0
  6320   0017FA  6FD6               	movwf	(_outPipes+5)& (0+255),b
  6321   0017FC  0E00               	movlw	0
  6322   0017FE  6FD5               	movwf	(_outPipes+4)& (0+255),b
  6323   001800                     
  6324                           ; BSR set to: 0
  6325                           ;usb_device.c: 336:     }while(UIRbits.TRNIF == 1);
  6326   001800  B668               	btfsc	104,3,c	;volatile
  6327   001802  EF05  F00C         	goto	i2u337_41
  6328   001806  EF07  F00C         	goto	i2u337_40
  6329   00180A                     i2u337_41:
  6330   00180A  EFF6  F00B         	goto	i2l4619
  6331   00180E                     i2u337_40:
  6332   00180E                     
  6333                           ; BSR set to: 0
  6334                           ;usb_device.c: 340:     USBStatusStageEnabledFlag1 = 1;
  6335   00180E  0E01               	movlw	1
  6336   001810  6E3D               	movwf	_USBStatusStageEnabledFlag1^0,c	;volatile
  6337                           
  6338                           ;usb_device.c: 341:     USBStatusStageEnabledFlag2 = 1;
  6339   001812  0E01               	movlw	1
  6340   001814  6E3C               	movwf	_USBStatusStageEnabledFlag2^0,c	;volatile
  6341                           
  6342                           ;usb_device.c: 343:     USBDeferINDataStagePackets = 0;
  6343   001816  0E00               	movlw	0
  6344   001818  6E3B               	movwf	_USBDeferINDataStagePackets^0,c	;volatile
  6345                           
  6346                           ;usb_device.c: 344:     USBDeferOUTDataStagePackets = 0;
  6347   00181A  0E00               	movlw	0
  6348   00181C  6E3A               	movwf	_USBDeferOUTDataStagePackets^0,c	;volatile
  6349                           
  6350                           ;usb_device.c: 345:     USBBusIsSuspended = 0;
  6351   00181E  0E00               	movlw	0
  6352   001820  6FF5               	movwf	_USBBusIsSuspended& (0+255),b
  6353                           
  6354                           ;usb_device.c: 349:     for(i = 0; i < (uint8_t)(1 +1u); i++)
  6355   001822  0E00               	movlw	0
  6356   001824  6E0D               	movwf	i2USBDeviceInit@i^0,c
  6357   001826                     i2l4635:
  6358                           
  6359                           ;usb_device.c: 350:     {;usb_device.c: 351:         pBDTEntryIn[i] = 0u;
  6360   001826  500D               	movf	i2USBDeviceInit@i^0,w,c
  6361   001828  0D02               	mullw	2
  6362   00182A  0EE3               	movlw	low _pBDTEntryIn
  6363   00182C  24F3               	addwf	243,w,c
  6364   00182E  6ED9               	movwf	fsr2l,c
  6365   001830  0E00               	movlw	high _pBDTEntryIn
  6366   001832  20F4               	addwfc	prodh,w,c
  6367   001834  6EDA               	movwf	fsr2h,c
  6368   001836  0E00               	movlw	0
  6369   001838  6EDE               	movwf	postinc2,c
  6370   00183A  0E00               	movlw	0
  6371   00183C  6EDD               	movwf	postdec2,c
  6372                           
  6373                           ;usb_device.c: 352:         pBDTEntryOut[i] = 0u;
  6374   00183E  500D               	movf	i2USBDeviceInit@i^0,w,c
  6375   001840  0D02               	mullw	2
  6376   001842  0EE7               	movlw	low _pBDTEntryOut
  6377   001844  24F3               	addwf	243,w,c
  6378   001846  6ED9               	movwf	fsr2l,c
  6379   001848  0E00               	movlw	high _pBDTEntryOut
  6380   00184A  20F4               	addwfc	prodh,w,c
  6381   00184C  6EDA               	movwf	fsr2h,c
  6382   00184E  0E00               	movlw	0
  6383   001850  6EDE               	movwf	postinc2,c
  6384   001852  0E00               	movlw	0
  6385   001854  6EDD               	movwf	postdec2,c
  6386   001856                     
  6387                           ;usb_device.c: 353:         ep_data_in[i].Val = 0u;
  6388   001856  0EF1               	movlw	low _ep_data_in
  6389   001858  240D               	addwf	i2USBDeviceInit@i^0,w,c
  6390   00185A  6ED9               	movwf	fsr2l,c
  6391   00185C  6ADA               	clrf	fsr2h,c
  6392   00185E  0E00               	movlw	high _ep_data_in
  6393   001860  22DA               	addwfc	fsr2h,f,c
  6394   001862  0E00               	movlw	0
  6395   001864  6EDF               	movwf	indf2,c
  6396   001866                     
  6397                           ;usb_device.c: 354:         ep_data_out[i].Val = 0u;
  6398   001866  0EEF               	movlw	low _ep_data_out
  6399   001868  240D               	addwf	i2USBDeviceInit@i^0,w,c
  6400   00186A  6ED9               	movwf	fsr2l,c
  6401   00186C  6ADA               	clrf	fsr2h,c
  6402   00186E  0E00               	movlw	high _ep_data_out
  6403   001870  22DA               	addwfc	fsr2h,f,c
  6404   001872  0E00               	movlw	0
  6405   001874  6EDF               	movwf	indf2,c
  6406   001876                     
  6407                           ;usb_device.c: 355:     }
  6408   001876  2A0D               	incf	i2USBDeviceInit@i^0,f,c
  6409   001878  0E01               	movlw	1
  6410   00187A  640D               	cpfsgt	i2USBDeviceInit@i^0,c
  6411   00187C  EF42  F00C         	goto	i2u338_41
  6412   001880  EF44  F00C         	goto	i2u338_40
  6413   001884                     i2u338_41:
  6414   001884  EF13  F00C         	goto	i2l4635
  6415   001888                     i2u338_40:
  6416   001888                     
  6417                           ;usb_device.c: 358:     pBDTEntryIn[0] = (volatile BDT_ENTRY*)&BDT[2];
  6418   001888  0E08               	movlw	8
  6419   00188A  0100               	movlb	0	; () banked
  6420   00188C  6FE3               	movwf	_pBDTEntryIn& (0+255),b
  6421   00188E  0E04               	movlw	4
  6422   001890  6FE4               	movwf	(_pBDTEntryIn+1)& (0+255),b
  6423   001892                     
  6424                           ; BSR set to: 0
  6425                           ;usb_device.c: 360:     UEP0 = 0x06|0x10;
  6426   001892  0E16               	movlw	22
  6427   001894  6E70               	movwf	112,c	;volatile
  6428   001896                     
  6429                           ; BSR set to: 0
  6430                           ;usb_device.c: 362:     BDT[0].ADR = ((uint16_t)(&SetupPkt));
  6431   001896  0E04               	movlw	4
  6432   001898  0104               	movlb	4	; () banked
  6433   00189A  6F03               	movwf	3,b	;volatile
  6434   00189C  0E20               	movlw	32
  6435   00189E  6F02               	movwf	2,b	;volatile
  6436   0018A0                     
  6437                           ; BSR set to: 4
  6438                           ;usb_device.c: 363:     BDT[0].CNT = 8;
  6439   0018A0  0E08               	movlw	8
  6440   0018A2  6F01               	movwf	1,b	;volatile
  6441   0018A4                     
  6442                           ; BSR set to: 4
  6443                           ;usb_device.c: 364:     BDT[0].STAT.Val = 0x00|0x04;
  6444   0018A4  0E04               	movlw	4
  6445   0018A6  6F00               	movwf	0,b	;volatile
  6446   0018A8                     
  6447                           ; BSR set to: 4
  6448                           ;usb_device.c: 365:     BDT[0].STAT.Val |= 0x80;
  6449   0018A8  8F00               	bsf	0,7,b	;volatile
  6450   0018AA                     
  6451                           ; BSR set to: 4
  6452                           ;usb_device.c: 368:     USBActiveConfiguration = 0;
  6453   0018AA  0E00               	movlw	0
  6454   0018AC  6E4A               	movwf	_USBActiveConfiguration^0,c
  6455   0018AE                     
  6456                           ; BSR set to: 4
  6457                           ;usb_device.c: 370:     USB1msTickCount = 0;
  6458   0018AE  0E00               	movlw	0
  6459   0018B0  0100               	movlb	0	; () banked
  6460   0018B2  6FDF               	movwf	_USB1msTickCount& (0+255),b
  6461   0018B4  0E00               	movlw	0
  6462   0018B6  6FE0               	movwf	(_USB1msTickCount+1)& (0+255),b
  6463   0018B8  0E00               	movlw	0
  6464   0018BA  6FE1               	movwf	(_USB1msTickCount+2)& (0+255),b
  6465   0018BC  0E00               	movlw	0
  6466   0018BE  6FE2               	movwf	(_USB1msTickCount+3)& (0+255),b
  6467   0018C0                     
  6468                           ; BSR set to: 0
  6469                           ;usb_device.c: 371:     USBTicksSinceSuspendEnd = 0;
  6470   0018C0  0E00               	movlw	0
  6471   0018C2  6FF4               	movwf	_USBTicksSinceSuspendEnd& (0+255),b
  6472   0018C4                     
  6473                           ; BSR set to: 0
  6474                           ;usb_device.c: 374:     USBDeviceState = DETACHED_STATE;
  6475   0018C4  0E00               	movlw	0
  6476   0018C6  0101               	movlb	1	; () banked
  6477   0018C8  6F74               	movwf	_USBDeviceState& (0+255),b
  6478   0018CA                     
  6479                           ; BSR set to: 1
  6480   0018CA  0012               	return		;funcret
  6481   0018CC                     __end_ofi2_USBDeviceInit:
  6482                           	callstack 0
  6483                           
  6484 ;; *************** function _USBWakeFromSuspend *****************
  6485 ;; Defined at:
  6486 ;;		line 2310 in file "usb_device.c"
  6487 ;; Parameters:    Size  Location     Type
  6488 ;;		None
  6489 ;; Auto vars:     Size  Location     Type
  6490 ;;		None
  6491 ;; Return value:  Size  Location     Type
  6492 ;;                  1    wreg      void 
  6493 ;; Registers used:
  6494 ;;		wreg, fsr2l, fsr2h, status,2, status,0, prodl, prodh, cstack
  6495 ;; Tracked objects:
  6496 ;;		On entry : 0/0
  6497 ;;		On exit  : 0/0
  6498 ;;		Unchanged: 0/0
  6499 ;; Data sizes:     COMRAM   BANK0   BANK1   BANK2   BANK3   BANK4   BANK5   BANK6   BANK7
  6500 ;;      Params:         0       0       0       0       0       0       0       0       0
  6501 ;;      Locals:         0       0       0       0       0       0       0       0       0
  6502 ;;      Temps:          0       0       0       0       0       0       0       0       0
  6503 ;;      Totals:         0       0       0       0       0       0       0       0       0
  6504 ;;Total ram usage:        0 bytes
  6505 ;; Hardware stack levels used: 1
  6506 ;; Hardware stack levels required when called: 4
  6507 ;; This function calls:
  6508 ;;		_USER_USB_CALLBACK_EVENT_HANDLER
  6509 ;; This function is called by:
  6510 ;;		_USBDeviceTasks
  6511 ;; This function uses a non-reentrant model
  6512 ;;
  6513                           
  6514                           	psect	text31
  6515   002F3C                     __ptext31:
  6516                           	callstack 0
  6517   002F3C                     _USBWakeFromSuspend:
  6518                           	callstack 15
  6519   002F3C                     
  6520                           ;usb_device.c: 2312:     USBBusIsSuspended = 0;
  6521   002F3C  0E00               	movlw	0
  6522   002F3E  0100               	movlb	0	; () banked
  6523   002F40  6FF5               	movwf	_USBBusIsSuspended& (0+255),b
  6524   002F42                     
  6525                           ; BSR set to: 0
  6526                           ;usb_device.c: 2318:     USER_USB_CALLBACK_EVENT_HANDLER((USB_EVENT)EVENT_RESUME,0,0);
  6527   002F42  0E00               	movlw	0
  6528   002F44  6E10               	movwf	(USER_USB_CALLBACK_EVENT_HANDLER@event+1)^0,c
  6529   002F46  0E74               	movlw	116
  6530   002F48  6E0F               	movwf	USER_USB_CALLBACK_EVENT_HANDLER@event^0,c
  6531   002F4A  0E00               	movlw	0
  6532   002F4C  6E11               	movwf	USER_USB_CALLBACK_EVENT_HANDLER@pdata^0,c
  6533   002F4E  0E00               	movlw	0
  6534   002F50  6E12               	movwf	(USER_USB_CALLBACK_EVENT_HANDLER@pdata+1)^0,c
  6535   002F52  0E00               	movlw	0
  6536   002F54  6E14               	movwf	(USER_USB_CALLBACK_EVENT_HANDLER@size+1)^0,c
  6537   002F56  0E00               	movlw	0
  6538   002F58  6E13               	movwf	USER_USB_CALLBACK_EVENT_HANDLER@size^0,c
  6539   002F5A  ECDB  F014         	call	_USER_USB_CALLBACK_EVENT_HANDLER	;wreg free
  6540   002F5E                     
  6541                           ;usb_device.c: 2325:         UCONbits.SUSPND = 0;
  6542   002F5E  926D               	bcf	109,1,c	;volatile
  6543   002F60                     
  6544                           ;usb_device.c: 2330:     UIEbits.ACTVIE = 0;
  6545   002F60  9469               	bcf	105,2,c	;volatile
  6546                           
  6547                           ;usb_device.c: 2348:     while(UIRbits.ACTVIF)
  6548   002F62  EFB4  F017         	goto	i2l4487
  6549   002F66                     i2l4485:
  6550                           
  6551                           ;usb_device.c: 2350:     {;usb_device.c: 2351:         (UIR &= 0xFB);
  6552   002F66  9468               	bcf	104,2,c	;volatile
  6553   002F68                     i2l4487:
  6554                           
  6555                           ;usb_device.c: 2348:     while(UIRbits.ACTVIF)
  6556   002F68  B468               	btfsc	104,2,c	;volatile
  6557   002F6A  EFB9  F017         	goto	i2u322_41
  6558   002F6E  EFBB  F017         	goto	i2u322_40
  6559   002F72                     i2u322_41:
  6560   002F72  EFB3  F017         	goto	i2l4485
  6561   002F76                     i2u322_40:
  6562   002F76                     
  6563                           ;usb_device.c: 2354:     USBTicksSinceSuspendEnd = 0;
  6564   002F76  0E00               	movlw	0
  6565   002F78  0100               	movlb	0	; () banked
  6566   002F7A  6FF4               	movwf	_USBTicksSinceSuspendEnd& (0+255),b
  6567   002F7C                     
  6568                           ; BSR set to: 0
  6569   002F7C  0012               	return		;funcret
  6570   002F7E                     __end_of_USBWakeFromSuspend:
  6571                           	callstack 0
  6572                           
  6573 ;; *************** function _USBSuspend *****************
  6574 ;; Defined at:
  6575 ;;		line 2252 in file "usb_device.c"
  6576 ;; Parameters:    Size  Location     Type
  6577 ;;		None
  6578 ;; Auto vars:     Size  Location     Type
  6579 ;;		None
  6580 ;; Return value:  Size  Location     Type
  6581 ;;                  1    wreg      void 
  6582 ;; Registers used:
  6583 ;;		wreg, fsr2l, fsr2h, status,2, status,0, prodl, prodh, cstack
  6584 ;; Tracked objects:
  6585 ;;		On entry : 0/0
  6586 ;;		On exit  : 0/0
  6587 ;;		Unchanged: 0/0
  6588 ;; Data sizes:     COMRAM   BANK0   BANK1   BANK2   BANK3   BANK4   BANK5   BANK6   BANK7
  6589 ;;      Params:         0       0       0       0       0       0       0       0       0
  6590 ;;      Locals:         0       0       0       0       0       0       0       0       0
  6591 ;;      Temps:          0       0       0       0       0       0       0       0       0
  6592 ;;      Totals:         0       0       0       0       0       0       0       0       0
  6593 ;;Total ram usage:        0 bytes
  6594 ;; Hardware stack levels used: 1
  6595 ;; Hardware stack levels required when called: 4
  6596 ;; This function calls:
  6597 ;;		_USER_USB_CALLBACK_EVENT_HANDLER
  6598 ;; This function is called by:
  6599 ;;		_USBDeviceTasks
  6600 ;; This function uses a non-reentrant model
  6601 ;;
  6602                           
  6603                           	psect	text32
  6604   003082                     __ptext32:
  6605                           	callstack 0
  6606   003082                     _USBSuspend:
  6607                           	callstack 15
  6608   003082                     
  6609                           ;usb_device.c: 2277:     UIEbits.ACTVIE = 1;
  6610   003082  8469               	bsf	105,2,c	;volatile
  6611   003084                     
  6612                           ;usb_device.c: 2278:     (UIR &= 0xEF);
  6613   003084  9868               	bcf	104,4,c	;volatile
  6614   003086                     
  6615                           ;usb_device.c: 2281:         UCONbits.SUSPND = 1;
  6616   003086  826D               	bsf	109,1,c	;volatile
  6617   003088                     
  6618                           ;usb_device.c: 2284:     USBBusIsSuspended = 1;
  6619   003088  0E01               	movlw	1
  6620   00308A  0100               	movlb	0	; () banked
  6621   00308C  6FF5               	movwf	_USBBusIsSuspended& (0+255),b
  6622   00308E                     
  6623                           ; BSR set to: 0
  6624                           ;usb_device.c: 2285:     USBTicksSinceSuspendEnd = 0;
  6625   00308E  0E00               	movlw	0
  6626   003090  6FF4               	movwf	_USBTicksSinceSuspendEnd& (0+255),b
  6627   003092                     
  6628                           ; BSR set to: 0
  6629                           ;usb_device.c: 2292:     USER_USB_CALLBACK_EVENT_HANDLER((USB_EVENT)EVENT_SUSPEND,0,0);
  6630   003092  0E00               	movlw	0
  6631   003094  6E10               	movwf	(USER_USB_CALLBACK_EVENT_HANDLER@event+1)^0,c
  6632   003096  0E75               	movlw	117
  6633   003098  6E0F               	movwf	USER_USB_CALLBACK_EVENT_HANDLER@event^0,c
  6634   00309A  0E00               	movlw	0
  6635   00309C  6E11               	movwf	USER_USB_CALLBACK_EVENT_HANDLER@pdata^0,c
  6636   00309E  0E00               	movlw	0
  6637   0030A0  6E12               	movwf	(USER_USB_CALLBACK_EVENT_HANDLER@pdata+1)^0,c
  6638   0030A2  0E00               	movlw	0
  6639   0030A4  6E14               	movwf	(USER_USB_CALLBACK_EVENT_HANDLER@size+1)^0,c
  6640   0030A6  0E00               	movlw	0
  6641   0030A8  6E13               	movwf	USER_USB_CALLBACK_EVENT_HANDLER@size^0,c
  6642   0030AA  ECDB  F014         	call	_USER_USB_CALLBACK_EVENT_HANDLER	;wreg free
  6643   0030AE  0012               	return		;funcret
  6644   0030B0                     __end_of_USBSuspend:
  6645                           	callstack 0
  6646                           
  6647 ;; *************** function _USBStallHandler *****************
  6648 ;; Defined at:
  6649 ;;		line 2209 in file "usb_device.c"
  6650 ;; Parameters:    Size  Location     Type
  6651 ;;		None
  6652 ;; Auto vars:     Size  Location     Type
  6653 ;;		None
  6654 ;; Return value:  Size  Location     Type
  6655 ;;                  1    wreg      void 
  6656 ;; Registers used:
  6657 ;;		wreg, fsr2l, fsr2h, status,2, status,0
  6658 ;; Tracked objects:
  6659 ;;		On entry : 0/0
  6660 ;;		On exit  : 0/0
  6661 ;;		Unchanged: 0/0
  6662 ;; Data sizes:     COMRAM   BANK0   BANK1   BANK2   BANK3   BANK4   BANK5   BANK6   BANK7
  6663 ;;      Params:         0       0       0       0       0       0       0       0       0
  6664 ;;      Locals:         0       0       0       0       0       0       0       0       0
  6665 ;;      Temps:          1       0       0       0       0       0       0       0       0
  6666 ;;      Totals:         1       0       0       0       0       0       0       0       0
  6667 ;;Total ram usage:        1 bytes
  6668 ;; Hardware stack levels used: 1
  6669 ;; This function calls:
  6670 ;;		Nothing
  6671 ;; This function is called by:
  6672 ;;		_USBDeviceTasks
  6673 ;; This function uses a non-reentrant model
  6674 ;;
  6675                           
  6676                           	psect	text33
  6677   002D02                     __ptext33:
  6678                           	callstack 0
  6679   002D02                     _USBStallHandler:
  6680                           	callstack 19
  6681   002D02                     
  6682                           ;usb_device.c: 2221:     if(UEP0bits.EPSTALL == 1)
  6683   002D02  A070               	btfss	112,0,c	;volatile
  6684   002D04  EF86  F016         	goto	i2u325_41
  6685   002D08  EF88  F016         	goto	i2u325_40
  6686   002D0C                     i2u325_41:
  6687   002D0C  EFAF  F016         	goto	i2l535
  6688   002D10                     i2u325_40:
  6689   002D10                     
  6690                           ;usb_device.c: 2222:     {;usb_device.c: 2224:         if((pBDTEntryEP0OutCurrent->STAT.
      +                          Val == 0x80) && (pBDTEntryIn[0]->STAT.Val == (0x80|0x04)))
  6691   002D10  C036  FFD9         	movff	_pBDTEntryEP0OutCurrent,fsr2l
  6692   002D14  C037  FFDA         	movff	_pBDTEntryEP0OutCurrent+1,fsr2h
  6693   002D18  0E80               	movlw	128
  6694   002D1A  18DE               	xorwf	postinc2,w,c
  6695   002D1C  A4D8               	btfss	status,2,c
  6696   002D1E  EF93  F016         	goto	i2u326_41
  6697   002D22  EF95  F016         	goto	i2u326_40
  6698   002D26                     i2u326_41:
  6699   002D26  EFAE  F016         	goto	i2l4523
  6700   002D2A                     i2u326_40:
  6701   002D2A  C0E3  FFD9         	movff	_pBDTEntryIn,fsr2l
  6702   002D2E  C0E4  FFDA         	movff	_pBDTEntryIn+1,fsr2h
  6703   002D32  0E84               	movlw	132
  6704   002D34  18DE               	xorwf	postinc2,w,c
  6705   002D36  A4D8               	btfss	status,2,c
  6706   002D38  EFA0  F016         	goto	i2u327_41
  6707   002D3C  EFA2  F016         	goto	i2u327_40
  6708   002D40                     i2u327_41:
  6709   002D40  EFAE  F016         	goto	i2l4523
  6710   002D44                     i2u327_40:
  6711   002D44                     
  6712                           ;usb_device.c: 2225:         {;usb_device.c: 2227:             pBDTEntryEP0OutCurrent->S
      +                          TAT.Val = 0x00|(0x08 & 0x08)|0x04;
  6713   002D44  C036  FFD9         	movff	_pBDTEntryEP0OutCurrent,fsr2l
  6714   002D48  C037  FFDA         	movff	_pBDTEntryEP0OutCurrent+1,fsr2h
  6715   002D4C  0E0C               	movlw	12
  6716   002D4E  6EDF               	movwf	indf2,c
  6717   002D50                     
  6718                           ;usb_device.c: 2228:             pBDTEntryEP0OutCurrent->STAT.Val |= 0x80;
  6719   002D50  C036  FFD9         	movff	_pBDTEntryEP0OutCurrent,fsr2l
  6720   002D54  C037  FFDA         	movff	_pBDTEntryEP0OutCurrent+1,fsr2h
  6721   002D58  0E00               	movlw	0
  6722   002D5A  8EDB               	bsf	plusw2,7,c
  6723   002D5C                     i2l4523:
  6724                           
  6725                           ;usb_device.c: 2230:         UEP0bits.EPSTALL = 0;
  6726   002D5C  9070               	bcf	112,0,c	;volatile
  6727   002D5E                     i2l535:
  6728                           
  6729                           ;usb_device.c: 2233:     (UIR &= 0xDF);
  6730   002D5E  9A68               	bcf	104,5,c	;volatile
  6731   002D60  0012               	return		;funcret
  6732   002D62                     __end_of_USBStallHandler:
  6733                           	callstack 0
  6734                           
  6735 ;; *************** function _USBIncrement1msInternalTimers *****************
  6736 ;; Defined at:
  6737 ;;		line 2998 in file "usb_device.c"
  6738 ;; Parameters:    Size  Location     Type
  6739 ;;		None
  6740 ;; Auto vars:     Size  Location     Type
  6741 ;;		None
  6742 ;; Return value:  Size  Location     Type
  6743 ;;                  1    wreg      void 
  6744 ;; Registers used:
  6745 ;;		wreg, status,2, status,0
  6746 ;; Tracked objects:
  6747 ;;		On entry : 0/0
  6748 ;;		On exit  : 0/0
  6749 ;;		Unchanged: 0/0
  6750 ;; Data sizes:     COMRAM   BANK0   BANK1   BANK2   BANK3   BANK4   BANK5   BANK6   BANK7
  6751 ;;      Params:         0       0       0       0       0       0       0       0       0
  6752 ;;      Locals:         0       0       0       0       0       0       0       0       0
  6753 ;;      Temps:          0       0       0       0       0       0       0       0       0
  6754 ;;      Totals:         0       0       0       0       0       0       0       0       0
  6755 ;;Total ram usage:        0 bytes
  6756 ;; Hardware stack levels used: 1
  6757 ;; This function calls:
  6758 ;;		Nothing
  6759 ;; This function is called by:
  6760 ;;		_USBDeviceTasks
  6761 ;; This function uses a non-reentrant model
  6762 ;;
  6763                           
  6764                           	psect	text34
  6765   002FEC                     __ptext34:
  6766                           	callstack 0
  6767   002FEC                     _USBIncrement1msInternalTimers:
  6768                           	callstack 19
  6769   002FEC                     
  6770                           ;usb_device.c: 3006:     USB1msTickCount++;
  6771   002FEC  0E01               	movlw	1
  6772   002FEE  0100               	movlb	0	; () banked
  6773   002FF0  27DF               	addwf	_USB1msTickCount& (0+255),f,b
  6774   002FF2  0E00               	movlw	0
  6775   002FF4  23E0               	addwfc	(_USB1msTickCount+1)& (0+255),f,b
  6776   002FF6  23E1               	addwfc	(_USB1msTickCount+2)& (0+255),f,b
  6777   002FF8  23E2               	addwfc	(_USB1msTickCount+3)& (0+255),f,b
  6778   002FFA                     
  6779                           ; BSR set to: 0
  6780                           ;usb_device.c: 3007:     if(USBBusIsSuspended == 0)
  6781   002FFA  51F5               	movf	_USBBusIsSuspended& (0+255),w,b
  6782   002FFC  A4D8               	btfss	status,2,c
  6783   002FFE  EF03  F018         	goto	i2u323_41
  6784   003002  EF05  F018         	goto	i2u323_40
  6785   003006                     i2u323_41:
  6786   003006  EF0F  F018         	goto	i2l627
  6787   00300A                     i2u323_40:
  6788   00300A                     
  6789                           ; BSR set to: 0
  6790                           ;usb_device.c: 3008:     {;usb_device.c: 3009:         USBTicksSinceSuspendEnd++;
  6791   00300A  2BF4               	incf	_USBTicksSinceSuspendEnd& (0+255),f,b
  6792   00300C                     
  6793                           ; BSR set to: 0
  6794                           ;usb_device.c: 3011:         if(USBTicksSinceSuspendEnd == 0)
  6795   00300C  51F4               	movf	_USBTicksSinceSuspendEnd& (0+255),w,b
  6796   00300E  A4D8               	btfss	status,2,c
  6797   003010  EF0C  F018         	goto	i2u324_41
  6798   003014  EF0E  F018         	goto	i2u324_40
  6799   003018                     i2u324_41:
  6800   003018  EF0F  F018         	goto	i2l627
  6801   00301C                     i2u324_40:
  6802   00301C                     
  6803                           ; BSR set to: 0
  6804                           ;usb_device.c: 3012:         {;usb_device.c: 3013:             USBTicksSinceSuspendEnd =
      +                           255;
  6805   00301C  69F4               	setf	_USBTicksSinceSuspendEnd& (0+255),b
  6806   00301E                     i2l627:
  6807                           
  6808                           ; BSR set to: 0
  6809   00301E  0012               	return		;funcret
  6810   003020                     __end_of_USBIncrement1msInternalTimers:
  6811                           	callstack 0
  6812                           
  6813 ;; *************** function _USBCtrlEPService *****************
  6814 ;; Defined at:
  6815 ;;		line 2379 in file "usb_device.c"
  6816 ;; Parameters:    Size  Location     Type
  6817 ;;		None
  6818 ;; Auto vars:     Size  Location     Type
  6819 ;;		None
  6820 ;; Return value:  Size  Location     Type
  6821 ;;                  1    wreg      void 
  6822 ;; Registers used:
  6823 ;;		wreg, fsr1l, fsr1h, fsr2l, fsr2h, status,2, status,0, tblptrl, tblptrh, tblptru, prodl, prodh, cstack
  6824 ;; Tracked objects:
  6825 ;;		On entry : 0/0
  6826 ;;		On exit  : 0/0
  6827 ;;		Unchanged: 0/0
  6828 ;; Data sizes:     COMRAM   BANK0   BANK1   BANK2   BANK3   BANK4   BANK5   BANK6   BANK7
  6829 ;;      Params:         0       0       0       0       0       0       0       0       0
  6830 ;;      Locals:         0       0       0       0       0       0       0       0       0
  6831 ;;      Temps:          1       0       0       0       0       0       0       0       0
  6832 ;;      Totals:         1       0       0       0       0       0       0       0       0
  6833 ;;Total ram usage:        1 bytes
  6834 ;; Hardware stack levels used: 1
  6835 ;; Hardware stack levels required when called: 7
  6836 ;; This function calls:
  6837 ;;		_USBCtrlTrfInHandler
  6838 ;;		_USBCtrlTrfOutHandler
  6839 ;;		_USBCtrlTrfSetupHandler
  6840 ;;		_memcpy
  6841 ;; This function is called by:
  6842 ;;		_USBDeviceTasks
  6843 ;; This function uses a non-reentrant model
  6844 ;;
  6845                           
  6846                           	psect	text35
  6847   00279E                     __ptext35:
  6848                           	callstack 0
  6849   00279E                     _USBCtrlEPService:
  6850                           	callstack 12
  6851   00279E                     
  6852                           ;usb_device.c: 2389:     if((USTATcopy.Val & ~0x02) == 0x00)
  6853   00279E  C048  F020         	movff	_USTATcopy,??_USBCtrlEPService
  6854   0027A2  0EFD               	movlw	253
  6855   0027A4  1620               	andwf	??_USBCtrlEPService^0,f,c
  6856   0027A6  A4D8               	btfss	status,2,c
  6857   0027A8  EFD8  F013         	goto	i2u328_41
  6858   0027AC  EFDA  F013         	goto	i2u328_40
  6859   0027B0                     i2u328_41:
  6860   0027B0  EF1C  F014         	goto	i2l4541
  6861   0027B4                     i2u328_40:
  6862   0027B4                     
  6863                           ;usb_device.c: 2390:     {;usb_device.c: 2393:             pBDTEntryEP0OutCurrent = (vol
      +                          atile BDT_ENTRY*)&BDT[(USTATcopy.Val & 0x7E)>>1];
  6864   0027B4  C048  F020         	movff	_USTATcopy,??_USBCtrlEPService
  6865   0027B8  90D8               	bcf	status,0,c
  6866   0027BA  3220               	rrcf	??_USBCtrlEPService^0,f,c
  6867   0027BC  0E3F               	movlw	63
  6868   0027BE  1620               	andwf	??_USBCtrlEPService^0,f,c
  6869   0027C0  5020               	movf	??_USBCtrlEPService^0,w,c
  6870   0027C2  0D04               	mullw	4
  6871   0027C4  0E00               	movlw	0
  6872   0027C6  24F3               	addwf	243,w,c
  6873   0027C8  6E36               	movwf	_pBDTEntryEP0OutCurrent^0,c
  6874   0027CA  0E04               	movlw	4
  6875   0027CC  20F4               	addwfc	prodh,w,c
  6876   0027CE  6E37               	movwf	(_pBDTEntryEP0OutCurrent+1)^0,c
  6877   0027D0                     
  6878                           ;usb_device.c: 2401:         pBDTEntryEP0OutNext = pBDTEntryEP0OutCurrent;
  6879   0027D0  C036  F034         	movff	_pBDTEntryEP0OutCurrent,_pBDTEntryEP0OutNext
  6880   0027D4  C037  F035         	movff	_pBDTEntryEP0OutCurrent+1,_pBDTEntryEP0OutNext+1
  6881   0027D8                     
  6882                           ;usb_device.c: 2403:         pBDTEntryEP0OutNext = (volatile BDT_ENTRY*)(((uint16_t)pBDT
      +                          EntryEP0OutNext) ^ 0x0004);
  6883   0027D8  0E04               	movlw	4
  6884   0027DA  1834               	xorwf	_pBDTEntryEP0OutNext^0,w,c
  6885   0027DC  6E34               	movwf	_pBDTEntryEP0OutNext^0,c
  6886   0027DE  5035               	movf	(_pBDTEntryEP0OutNext+1)^0,w,c
  6887   0027E0  6E35               	movwf	(_pBDTEntryEP0OutNext+1)^0,c
  6888   0027E2                     
  6889                           ;usb_device.c: 2406:         if(pBDTEntryEP0OutCurrent->STAT.PID == 0xD)
  6890   0027E2  C036  FFD9         	movff	_pBDTEntryEP0OutCurrent,fsr2l
  6891   0027E6  C037  FFDA         	movff	_pBDTEntryEP0OutCurrent+1,fsr2h
  6892   0027EA  30DF               	rrcf	223,w,c
  6893   0027EC  32E8               	rrcf	wreg,f,c
  6894   0027EE  0B0F               	andlw	15
  6895   0027F0  0A0D               	xorlw	13
  6896   0027F2  A4D8               	btfss	status,2,c
  6897   0027F4  EFFE  F013         	goto	i2u329_41
  6898   0027F8  EF00  F014         	goto	i2u329_40
  6899   0027FC                     i2u329_41:
  6900   0027FC  EF18  F014         	goto	i2l4539
  6901   002800                     i2u329_40:
  6902   002800                     
  6903                           ;usb_device.c: 2407:         {;usb_device.c: 2412:             memcpy((uint8_t*)&SetupPk
      +                          t, (uint8_t*)((void *)(pBDTEntryEP0OutCurrent->ADR)), 8);
  6904   002800  0E20               	movlw	32
  6905   002802  6E01               	movwf	memcpy@d1^0,c
  6906   002804  0E04               	movlw	4
  6907   002806  6E02               	movwf	(memcpy@d1+1)^0,c
  6908   002808  EE20 F002          	lfsr	2,2
  6909   00280C  5036               	movf	_pBDTEntryEP0OutCurrent^0,w,c
  6910   00280E  26D9               	addwf	fsr2l,f,c
  6911   002810  5037               	movf	(_pBDTEntryEP0OutCurrent+1)^0,w,c
  6912   002812  22DA               	addwfc	fsr2h,f,c
  6913   002814  CFDE F003          	movff	postinc2,memcpy@s1
  6914   002818  CFDD F004          	movff	postdec2,memcpy@s1+1
  6915   00281C  0E00               	movlw	0
  6916   00281E  6E06               	movwf	(memcpy@n+1)^0,c
  6917   002820  0E08               	movlw	8
  6918   002822  6E05               	movwf	memcpy@n^0,c
  6919   002824  EC2C  F017         	call	_memcpy	;wreg free
  6920   002828                     
  6921                           ;usb_device.c: 2415:             USBCtrlTrfSetupHandler();
  6922   002828  EC85  F015         	call	_USBCtrlTrfSetupHandler	;wreg free
  6923                           
  6924                           ;usb_device.c: 2416:         }
  6925   00282C  EF28  F014         	goto	i2l554
  6926   002830                     i2l4539:
  6927                           
  6928                           ;usb_device.c: 2418:         {;usb_device.c: 2420:             USBCtrlTrfOutHandler();
  6929   002830  EC47  F016         	call	_USBCtrlTrfOutHandler	;wreg free
  6930   002834  EF28  F014         	goto	i2l554
  6931   002838                     i2l4541:
  6932   002838  5048               	movf	_USTATcopy^0,w,c
  6933   00283A  0BFD               	andlw	253
  6934   00283C  0A04               	xorlw	4
  6935   00283E  A4D8               	btfss	status,2,c
  6936   002840  EF24  F014         	goto	i2u330_41
  6937   002844  EF26  F014         	goto	i2u330_40
  6938   002848                     i2u330_41:
  6939   002848  EF28  F014         	goto	i2l554
  6940   00284C                     i2u330_40:
  6941   00284C                     
  6942                           ;usb_device.c: 2424:     {;usb_device.c: 2427:         USBCtrlTrfInHandler();
  6943   00284C  EC0A  F010         	call	_USBCtrlTrfInHandler	;wreg free
  6944   002850                     i2l554:
  6945   002850  0012               	return		;funcret
  6946   002852                     __end_of_USBCtrlEPService:
  6947                           	callstack 0
  6948                           
  6949 ;; *************** function _memcpy *****************
  6950 ;; Defined at:
  6951 ;;		line 4 in file "C:\Program Files\Microchip\xc8\v2.40\pic\sources\c99\common\memcpy.c"
  6952 ;; Parameters:    Size  Location     Type
  6953 ;;  d1              2    0[COMRAM] PTR void 
  6954 ;;		 -> SetupPkt(8), 
  6955 ;;  s1              2    2[COMRAM] PTR const void 
  6956 ;;		 -> CtrlTrfData(8), RAM(2047), SetupPkt(8), 
  6957 ;;  n               2    4[COMRAM] unsigned int 
  6958 ;; Auto vars:     Size  Location     Type
  6959 ;;  s               2    8[COMRAM] PTR const unsigned char 
  6960 ;;		 -> CtrlTrfData(8), RAM(2047), SetupPkt(8), 
  6961 ;;  d               2    6[COMRAM] PTR unsigned char 
  6962 ;;		 -> SetupPkt(8), 
  6963 ;;  tmp             1   10[COMRAM] unsigned char 
  6964 ;; Return value:  Size  Location     Type
  6965 ;;                  2    0[COMRAM] PTR void 
  6966 ;; Registers used:
  6967 ;;		wreg, fsr2l, fsr2h, status,2, status,0
  6968 ;; Tracked objects:
  6969 ;;		On entry : 0/0
  6970 ;;		On exit  : 0/0
  6971 ;;		Unchanged: 0/0
  6972 ;; Data sizes:     COMRAM   BANK0   BANK1   BANK2   BANK3   BANK4   BANK5   BANK6   BANK7
  6973 ;;      Params:         6       0       0       0       0       0       0       0       0
  6974 ;;      Locals:         5       0       0       0       0       0       0       0       0
  6975 ;;      Temps:          0       0       0       0       0       0       0       0       0
  6976 ;;      Totals:        11       0       0       0       0       0       0       0       0
  6977 ;;Total ram usage:       11 bytes
  6978 ;; Hardware stack levels used: 1
  6979 ;; This function calls:
  6980 ;;		Nothing
  6981 ;; This function is called by:
  6982 ;;		_USBCtrlEPService
  6983 ;; This function uses a non-reentrant model
  6984 ;;
  6985                           
  6986                           	psect	text36
  6987   002E58                     __ptext36:
  6988                           	callstack 0
  6989   002E58                     _memcpy:
  6990                           	callstack 18
  6991   002E58  C003  F009         	movff	memcpy@s1,memcpy@s
  6992   002E5C  C004  F00A         	movff	memcpy@s1+1,memcpy@s+1
  6993   002E60  C001  F007         	movff	memcpy@d1,memcpy@d
  6994   002E64  C002  F008         	movff	memcpy@d1+1,memcpy@d+1
  6995   002E68  EF46  F017         	goto	i2l4281
  6996   002E6C                     i2l4273:
  6997   002E6C  C009  FFD9         	movff	memcpy@s,fsr2l
  6998   002E70  C00A  FFDA         	movff	memcpy@s+1,fsr2h
  6999   002E74  50DF               	movf	indf2,w,c
  7000   002E76  6E0B               	movwf	memcpy@tmp^0,c
  7001   002E78  4A09               	infsnz	memcpy@s^0,f,c
  7002   002E7A  2A0A               	incf	(memcpy@s+1)^0,f,c
  7003   002E7C  C007  FFD9         	movff	memcpy@d,fsr2l
  7004   002E80  C008  FFDA         	movff	memcpy@d+1,fsr2h
  7005   002E84  C00B  FFDF         	movff	memcpy@tmp,indf2
  7006   002E88  4A07               	infsnz	memcpy@d^0,f,c
  7007   002E8A  2A08               	incf	(memcpy@d+1)^0,f,c
  7008   002E8C                     i2l4281:
  7009   002E8C  0605               	decf	memcpy@n^0,f,c
  7010   002E8E  A0D8               	btfss	status,0,c
  7011   002E90  0606               	decf	(memcpy@n+1)^0,f,c
  7012   002E92  2805               	incf	memcpy@n^0,w,c
  7013   002E94  E106               	bnz	i2u308_41
  7014   002E96  2806               	incf	(memcpy@n+1)^0,w,c
  7015   002E98  A4D8               	btfss	status,2,c
  7016   002E9A  EF51  F017         	goto	i2u308_41
  7017   002E9E  EF53  F017         	goto	i2u308_40
  7018   002EA2                     i2u308_41:
  7019   002EA2  EF36  F017         	goto	i2l4273
  7020   002EA6                     i2u308_40:
  7021   002EA6  0012               	return		;funcret
  7022   002EA8                     __end_of_memcpy:
  7023                           	callstack 0
  7024                           
  7025 ;; *************** function _USBCtrlTrfSetupHandler *****************
  7026 ;; Defined at:
  7027 ;;		line 2472 in file "usb_device.c"
  7028 ;; Parameters:    Size  Location     Type
  7029 ;;		None
  7030 ;; Auto vars:     Size  Location     Type
  7031 ;;		None
  7032 ;; Return value:  Size  Location     Type
  7033 ;;                  1    wreg      void 
  7034 ;; Registers used:
  7035 ;;		wreg, fsr1l, fsr1h, fsr2l, fsr2h, status,2, status,0, tblptrl, tblptrh, tblptru, prodl, prodh, cstack
  7036 ;; Tracked objects:
  7037 ;;		On entry : 0/0
  7038 ;;		On exit  : 0/0
  7039 ;;		Unchanged: 0/0
  7040 ;; Data sizes:     COMRAM   BANK0   BANK1   BANK2   BANK3   BANK4   BANK5   BANK6   BANK7
  7041 ;;      Params:         0       0       0       0       0       0       0       0       0
  7042 ;;      Locals:         0       0       0       0       0       0       0       0       0
  7043 ;;      Temps:          0       0       0       0       0       0       0       0       0
  7044 ;;      Totals:         0       0       0       0       0       0       0       0       0
  7045 ;;Total ram usage:        0 bytes
  7046 ;; Hardware stack levels used: 1
  7047 ;; Hardware stack levels required when called: 6
  7048 ;; This function calls:
  7049 ;;		_USBCheckStdRequest
  7050 ;;		_USBCtrlEPServiceComplete
  7051 ;;		_USER_USB_CALLBACK_EVENT_HANDLER
  7052 ;; This function is called by:
  7053 ;;		_USBCtrlEPService
  7054 ;; This function uses a non-reentrant model
  7055 ;;
  7056                           
  7057                           	psect	text37
  7058   002B0A                     __ptext37:
  7059                           	callstack 0
  7060   002B0A                     _USBCtrlTrfSetupHandler:
  7061                           	callstack 12
  7062   002B0A                     
  7063                           ;usb_device.c: 2477:     shortPacketStatus = 0;
  7064   002B0A  0E00               	movlw	0
  7065   002B0C  6E44               	movwf	_shortPacketStatus^0,c
  7066                           
  7067                           ;usb_device.c: 2478:     USBDeferStatusStagePacket = 0;
  7068   002B0E  0E00               	movlw	0
  7069   002B10  6E3E               	movwf	_USBDeferStatusStagePacket^0,c	;volatile
  7070                           
  7071                           ;usb_device.c: 2479:     USBDeferINDataStagePackets = 0;
  7072   002B12  0E00               	movlw	0
  7073   002B14  6E3B               	movwf	_USBDeferINDataStagePackets^0,c	;volatile
  7074                           
  7075                           ;usb_device.c: 2480:     USBDeferOUTDataStagePackets = 0;
  7076   002B16  0E00               	movlw	0
  7077   002B18  6E3A               	movwf	_USBDeferOUTDataStagePackets^0,c	;volatile
  7078                           
  7079                           ;usb_device.c: 2481:     BothEP0OutUOWNsSet = 0;
  7080   002B1A  0E00               	movlw	0
  7081   002B1C  6E40               	movwf	_BothEP0OutUOWNsSet^0,c
  7082                           
  7083                           ;usb_device.c: 2482:     controlTransferState = 0;
  7084   002B1E  0E00               	movlw	0
  7085   002B20  6E43               	movwf	_controlTransferState^0,c
  7086   002B22                     
  7087                           ;usb_device.c: 2491:     pBDTEntryIn[0]->STAT.Val &= ~(0x80);
  7088   002B22  C0E3  FFD9         	movff	_pBDTEntryIn,fsr2l
  7089   002B26  C0E4  FFDA         	movff	_pBDTEntryIn+1,fsr2h
  7090   002B2A  0E7F               	movlw	127
  7091   002B2C  16DF               	andwf	indf2,f,c
  7092   002B2E                     
  7093                           ;usb_device.c: 2493:     pBDTEntryIn[0] = (volatile BDT_ENTRY*)(((uint16_t)pBDTEntryIn[0
      +                          ]) ^ 0x0004);
  7094   002B2E  0E04               	movlw	4
  7095   002B30  0100               	movlb	0	; () banked
  7096   002B32  19E3               	xorwf	_pBDTEntryIn& (0+255),w,b
  7097   002B34  6FE3               	movwf	_pBDTEntryIn& (0+255),b
  7098   002B36  51E4               	movf	(_pBDTEntryIn+1)& (0+255),w,b
  7099   002B38  6FE4               	movwf	(_pBDTEntryIn+1)& (0+255),b
  7100   002B3A                     
  7101                           ; BSR set to: 0
  7102                           ;usb_device.c: 2494:     pBDTEntryIn[0]->STAT.Val &= ~(0x80);
  7103   002B3A  C0E3  FFD9         	movff	_pBDTEntryIn,fsr2l
  7104   002B3E  C0E4  FFDA         	movff	_pBDTEntryIn+1,fsr2h
  7105   002B42  0E7F               	movlw	127
  7106   002B44  16DF               	andwf	indf2,f,c
  7107   002B46                     
  7108                           ; BSR set to: 0
  7109                           ;usb_device.c: 2495:     pBDTEntryIn[0] = (volatile BDT_ENTRY*)(((uint16_t)pBDTEntryIn[0
      +                          ]) ^ 0x0004);
  7110   002B46  0E04               	movlw	4
  7111   002B48  19E3               	xorwf	_pBDTEntryIn& (0+255),w,b
  7112   002B4A  6FE3               	movwf	_pBDTEntryIn& (0+255),b
  7113   002B4C  51E4               	movf	(_pBDTEntryIn+1)& (0+255),w,b
  7114   002B4E  6FE4               	movwf	(_pBDTEntryIn+1)& (0+255),b
  7115   002B50                     
  7116                           ; BSR set to: 0
  7117                           ;usb_device.c: 2496:     pBDTEntryEP0OutNext->STAT.Val &= ~(0x80);
  7118   002B50  C034  FFD9         	movff	_pBDTEntryEP0OutNext,fsr2l
  7119   002B54  C035  FFDA         	movff	_pBDTEntryEP0OutNext+1,fsr2h
  7120   002B58  0E7F               	movlw	127
  7121   002B5A  16DF               	andwf	indf2,f,c
  7122   002B5C                     
  7123                           ; BSR set to: 0
  7124                           ;usb_device.c: 2498:     inPipes[0].info.Val = 0;
  7125   002B5C  0E00               	movlw	0
  7126   002B5E  6FDC               	movwf	(_inPipes+3)& (0+255),b
  7127   002B60                     
  7128                           ; BSR set to: 0
  7129                           ;usb_device.c: 2499:     inPipes[0].wCount.Val = 0;
  7130   002B60  0E00               	movlw	0
  7131   002B62  6FDE               	movwf	(_inPipes+5)& (0+255),b
  7132   002B64  0E00               	movlw	0
  7133   002B66  6FDD               	movwf	(_inPipes+4)& (0+255),b
  7134   002B68                     
  7135                           ; BSR set to: 0
  7136                           ;usb_device.c: 2500:     outPipes[0].info.Val = 0;
  7137   002B68  0E00               	movlw	0
  7138   002B6A  6FD4               	movwf	(_outPipes+3)& (0+255),b
  7139   002B6C                     
  7140                           ; BSR set to: 0
  7141                           ;usb_device.c: 2501:     outPipes[0].wCount.Val = 0;
  7142   002B6C  0E00               	movlw	0
  7143   002B6E  6FD6               	movwf	(_outPipes+5)& (0+255),b
  7144   002B70  0E00               	movlw	0
  7145   002B72  6FD5               	movwf	(_outPipes+4)& (0+255),b
  7146   002B74                     
  7147                           ; BSR set to: 0
  7148                           ;usb_device.c: 2507:     USBCheckStdRequest();
  7149   002B74  EC7A  F00F         	call	_USBCheckStdRequest	;wreg free
  7150   002B78                     
  7151                           ;usb_device.c: 2508:     USER_USB_CALLBACK_EVENT_HANDLER((USB_EVENT)EVENT_EP0_REQUEST,0,
      +                          0);
  7152   002B78  0E00               	movlw	0
  7153   002B7A  6E10               	movwf	(USER_USB_CALLBACK_EVENT_HANDLER@event+1)^0,c
  7154   002B7C  0E03               	movlw	3
  7155   002B7E  6E0F               	movwf	USER_USB_CALLBACK_EVENT_HANDLER@event^0,c
  7156   002B80  0E00               	movlw	0
  7157   002B82  6E11               	movwf	USER_USB_CALLBACK_EVENT_HANDLER@pdata^0,c
  7158   002B84  0E00               	movlw	0
  7159   002B86  6E12               	movwf	(USER_USB_CALLBACK_EVENT_HANDLER@pdata+1)^0,c
  7160   002B88  0E00               	movlw	0
  7161   002B8A  6E14               	movwf	(USER_USB_CALLBACK_EVENT_HANDLER@size+1)^0,c
  7162   002B8C  0E00               	movlw	0
  7163   002B8E  6E13               	movwf	USER_USB_CALLBACK_EVENT_HANDLER@size^0,c
  7164   002B90  ECDB  F014         	call	_USER_USB_CALLBACK_EVENT_HANDLER	;wreg free
  7165   002B94                     
  7166                           ;usb_device.c: 2521:     USBCtrlEPServiceComplete();
  7167   002B94  ECA9  F00D         	call	_USBCtrlEPServiceComplete	;wreg free
  7168   002B98  0012               	return		;funcret
  7169   002B9A                     __end_of_USBCtrlTrfSetupHandler:
  7170                           	callstack 0
  7171                           
  7172 ;; *************** function _USBCtrlEPServiceComplete *****************
  7173 ;; Defined at:
  7174 ;;		line 1620 in file "usb_device.c"
  7175 ;; Parameters:    Size  Location     Type
  7176 ;;		None
  7177 ;; Auto vars:     Size  Location     Type
  7178 ;;		None
  7179 ;; Return value:  Size  Location     Type
  7180 ;;                  1    wreg      void 
  7181 ;; Registers used:
  7182 ;;		wreg, fsr1l, fsr1h, fsr2l, fsr2h, status,2, status,0, tblptrl, tblptrh, tblptru, cstack
  7183 ;; Tracked objects:
  7184 ;;		On entry : 0/0
  7185 ;;		On exit  : 0/0
  7186 ;;		Unchanged: 0/0
  7187 ;; Data sizes:     COMRAM   BANK0   BANK1   BANK2   BANK3   BANK4   BANK5   BANK6   BANK7
  7188 ;;      Params:         0       0       0       0       0       0       0       0       0
  7189 ;;      Locals:         0       0       0       0       0       0       0       0       0
  7190 ;;      Temps:          0       0       0       0       0       0       0       0       0
  7191 ;;      Totals:         0       0       0       0       0       0       0       0       0
  7192 ;;Total ram usage:        0 bytes
  7193 ;; Hardware stack levels used: 1
  7194 ;; Hardware stack levels required when called: 2
  7195 ;; This function calls:
  7196 ;;		_USBCtrlEPAllowDataStage
  7197 ;;		_USBCtrlEPAllowStatusStage
  7198 ;; This function is called by:
  7199 ;;		_USBCtrlTrfSetupHandler
  7200 ;; This function uses a non-reentrant model
  7201 ;;
  7202                           
  7203                           	psect	text38
  7204   001B52                     __ptext38:
  7205                           	callstack 0
  7206   001B52                     _USBCtrlEPServiceComplete:
  7207                           	callstack 15
  7208   001B52                     
  7209                           ;usb_device.c: 1626:     UCONbits.PKTDIS = 0;
  7210   001B52  986D               	bcf	109,4,c	;volatile
  7211                           
  7212                           ;usb_device.c: 1632:     if(inPipes[0].info.bits.busy == 0)
  7213   001B54  0100               	movlb	0	; () banked
  7214   001B56  BFDC               	btfsc	(_inPipes+3)& (0+255),7,b
  7215   001B58  EFB0  F00D         	goto	i2u286_41
  7216   001B5C  EFB2  F00D         	goto	i2u286_40
  7217   001B60                     i2u286_41:
  7218   001B60  EFF7  F00D         	goto	i2l458
  7219   001B64                     i2u286_40:
  7220   001B64                     
  7221                           ; BSR set to: 0
  7222                           ;usb_device.c: 1633:     {;usb_device.c: 1634:         if(outPipes[0].info.bits.busy == 
      +                          1)
  7223   001B64  AFD4               	btfss	(_outPipes+3)& (0+255),7,b
  7224   001B66  EFB7  F00D         	goto	i2u287_41
  7225   001B6A  EFB9  F00D         	goto	i2u287_40
  7226   001B6E                     i2u287_41:
  7227   001B6E  EFCB  F00D         	goto	i2l4085
  7228   001B72                     i2u287_40:
  7229   001B72                     
  7230                           ; BSR set to: 0
  7231                           ;usb_device.c: 1635:         {;usb_device.c: 1636:             controlTransferState = 2;
  7232   001B72  0E02               	movlw	2
  7233   001B74  6E43               	movwf	_controlTransferState^0,c
  7234                           
  7235                           ;usb_device.c: 1647:             if(USBDeferOUTDataStagePackets == 0)
  7236   001B76  503A               	movf	_USBDeferOUTDataStagePackets^0,w,c	;volatile
  7237   001B78  A4D8               	btfss	status,2,c
  7238   001B7A  EFC1  F00D         	goto	i2u288_41
  7239   001B7E  EFC3  F00D         	goto	i2u288_40
  7240   001B82                     i2u288_41:
  7241   001B82  EFC5  F00D         	goto	i2l4081
  7242   001B86                     i2u288_40:
  7243   001B86                     
  7244                           ; BSR set to: 0
  7245                           ;usb_device.c: 1648:             {;usb_device.c: 1649:                 USBCtrlEPAllowDat
      +                          aStage();
  7246   001B86  EC29  F014         	call	_USBCtrlEPAllowDataStage	;wreg free
  7247   001B8A                     i2l4081:
  7248                           
  7249                           ;usb_device.c: 1654:             USBStatusStageEnabledFlag2 = 0;
  7250   001B8A  0E00               	movlw	0
  7251   001B8C  6E3C               	movwf	_USBStatusStageEnabledFlag2^0,c	;volatile
  7252   001B8E                     
  7253                           ;usb_device.c: 1655:             USBStatusStageEnabledFlag1 = 0;
  7254   001B8E  0E00               	movlw	0
  7255   001B90  6E3D               	movwf	_USBStatusStageEnabledFlag1^0,c	;volatile
  7256                           
  7257                           ;usb_device.c: 1656:         }
  7258   001B92  EF49  F00E         	goto	i2l468
  7259   001B96                     i2l4085:
  7260                           
  7261                           ; BSR set to: 0
  7262                           ;usb_device.c: 1658:         {;usb_device.c: 1663:             pBDTEntryEP0OutNext->CNT 
      +                          = 8;
  7263   001B96  EE20 F001          	lfsr	2,1
  7264   001B9A  5034               	movf	_pBDTEntryEP0OutNext^0,w,c
  7265   001B9C  26D9               	addwf	fsr2l,f,c
  7266   001B9E  5035               	movf	(_pBDTEntryEP0OutNext+1)^0,w,c
  7267   001BA0  22DA               	addwfc	fsr2h,f,c
  7268   001BA2  0E08               	movlw	8
  7269   001BA4  6EDF               	movwf	indf2,c
  7270                           
  7271                           ;usb_device.c: 1664:             pBDTEntryEP0OutNext->ADR = ((uint16_t)(&SetupPkt));
  7272   001BA6  EE20 F002          	lfsr	2,2
  7273   001BAA  5034               	movf	_pBDTEntryEP0OutNext^0,w,c
  7274   001BAC  26D9               	addwf	fsr2l,f,c
  7275   001BAE  5035               	movf	(_pBDTEntryEP0OutNext+1)^0,w,c
  7276   001BB0  22DA               	addwfc	fsr2h,f,c
  7277   001BB2  0E20               	movlw	32
  7278   001BB4  6EDE               	movwf	postinc2,c
  7279   001BB6  0E04               	movlw	4
  7280   001BB8  6EDD               	movwf	postdec2,c
  7281   001BBA                     
  7282                           ; BSR set to: 0
  7283                           ;usb_device.c: 1665:             pBDTEntryEP0OutNext->STAT.Val = 0x00|(0x08 & 0x08)|0x04
      +                          ;
  7284   001BBA  C034  FFD9         	movff	_pBDTEntryEP0OutNext,fsr2l
  7285   001BBE  C035  FFDA         	movff	_pBDTEntryEP0OutNext+1,fsr2h
  7286   001BC2  0E0C               	movlw	12
  7287   001BC4  6EDF               	movwf	indf2,c
  7288   001BC6                     
  7289                           ; BSR set to: 0
  7290                           ;usb_device.c: 1666:             pBDTEntryEP0OutNext->STAT.Val |= 0x80;
  7291   001BC6  C034  FFD9         	movff	_pBDTEntryEP0OutNext,fsr2l
  7292   001BCA  C035  FFDA         	movff	_pBDTEntryEP0OutNext+1,fsr2h
  7293   001BCE  0E00               	movlw	0
  7294   001BD0  8EDB               	bsf	plusw2,7,c
  7295                           
  7296                           ;usb_device.c: 1667:             pBDTEntryIn[0]->STAT.Val = 0x04;
  7297   001BD2  C0E3  FFD9         	movff	_pBDTEntryIn,fsr2l
  7298   001BD6  C0E4  FFDA         	movff	_pBDTEntryIn+1,fsr2h
  7299   001BDA  0E04               	movlw	4
  7300   001BDC  6EDF               	movwf	indf2,c
  7301   001BDE                     
  7302                           ; BSR set to: 0
  7303                           ;usb_device.c: 1668:             pBDTEntryIn[0]->STAT.Val |= 0x80;
  7304   001BDE  C0E3  FFD9         	movff	_pBDTEntryIn,fsr2l
  7305   001BE2  C0E4  FFDA         	movff	_pBDTEntryIn+1,fsr2h
  7306   001BE6  0E00               	movlw	0
  7307   001BE8  8EDB               	bsf	plusw2,7,c
  7308   001BEA  EF49  F00E         	goto	i2l468
  7309   001BEE                     i2l458:
  7310                           
  7311                           ; BSR set to: 0
  7312                           ;usb_device.c: 1672:     {;usb_device.c: 1673:   if(SetupPkt.DataDir == (0x80>>7))
  7313   001BEE  0104               	movlb	4	; () banked
  7314   001BF0  AF20               	btfss	32,7,b	;volatile
  7315   001BF2  EFFD  F00D         	goto	i2u289_41
  7316   001BF6  EFFF  F00D         	goto	i2u289_40
  7317   001BFA                     i2u289_41:
  7318   001BFA  EF1B  F00E         	goto	i2l4105
  7319   001BFE                     i2u289_40:
  7320   001BFE                     
  7321                           ; BSR set to: 4
  7322                           ;usb_device.c: 1674:   {;usb_device.c: 1675:    controlTransferState = 1;
  7323   001BFE  0E01               	movlw	1
  7324   001C00  6E43               	movwf	_controlTransferState^0,c
  7325                           
  7326                           ;usb_device.c: 1689:    if(USBDeferINDataStagePackets == 0)
  7327   001C02  503B               	movf	_USBDeferINDataStagePackets^0,w,c	;volatile
  7328   001C04  A4D8               	btfss	status,2,c
  7329   001C06  EF07  F00E         	goto	i2u290_41
  7330   001C0A  EF09  F00E         	goto	i2u290_40
  7331   001C0E                     i2u290_41:
  7332   001C0E  EF0B  F00E         	goto	i2l4097
  7333   001C12                     i2u290_40:
  7334   001C12                     
  7335                           ; BSR set to: 4
  7336                           ;usb_device.c: 1690:             {;usb_device.c: 1691:                 USBCtrlEPAllowDat
      +                          aStage();
  7337   001C12  EC29  F014         	call	_USBCtrlEPAllowDataStage	;wreg free
  7338   001C16                     i2l4097:
  7339                           
  7340                           ;usb_device.c: 1714:             USBStatusStageEnabledFlag2 = 0;
  7341   001C16  0E00               	movlw	0
  7342   001C18  6E3C               	movwf	_USBStatusStageEnabledFlag2^0,c	;volatile
  7343   001C1A                     
  7344                           ;usb_device.c: 1715:             USBStatusStageEnabledFlag1 = 0;
  7345   001C1A  0E00               	movlw	0
  7346   001C1C  6E3D               	movwf	_USBStatusStageEnabledFlag1^0,c	;volatile
  7347   001C1E                     
  7348                           ;usb_device.c: 1716:             if(USBDeferStatusStagePacket == 0)
  7349   001C1E  503E               	movf	_USBDeferStatusStagePacket^0,w,c	;volatile
  7350   001C20  A4D8               	btfss	status,2,c
  7351   001C22  EF15  F00E         	goto	i2u291_41
  7352   001C26  EF17  F00E         	goto	i2u291_40
  7353   001C2A                     i2u291_41:
  7354   001C2A  EF49  F00E         	goto	i2l468
  7355   001C2E                     i2u291_40:
  7356   001C2E                     i2l4103:
  7357                           
  7358                           ;usb_device.c: 1717:             {;usb_device.c: 1718:                 USBCtrlEPAllowSta
      +                          tusStage();
  7359   001C2E  EC10  F012         	call	_USBCtrlEPAllowStatusStage	;wreg free
  7360   001C32  EF49  F00E         	goto	i2l468
  7361   001C36                     i2l4105:
  7362                           
  7363                           ; BSR set to: 4
  7364                           ;usb_device.c: 1722:   {;usb_device.c: 1733:    controlTransferState = 2;
  7365   001C36  0E02               	movlw	2
  7366   001C38  6E43               	movwf	_controlTransferState^0,c
  7367   001C3A                     
  7368                           ; BSR set to: 4
  7369                           ;usb_device.c: 1736:    pBDTEntryEP0OutNext->CNT = 8;
  7370   001C3A  EE20 F001          	lfsr	2,1
  7371   001C3E  5034               	movf	_pBDTEntryEP0OutNext^0,w,c
  7372   001C40  26D9               	addwf	fsr2l,f,c
  7373   001C42  5035               	movf	(_pBDTEntryEP0OutNext+1)^0,w,c
  7374   001C44  22DA               	addwfc	fsr2h,f,c
  7375   001C46  0E08               	movlw	8
  7376   001C48  6EDF               	movwf	indf2,c
  7377   001C4A                     
  7378                           ; BSR set to: 4
  7379                           ;usb_device.c: 1737:    pBDTEntryEP0OutNext->ADR = ((uint16_t)(&SetupPkt));
  7380   001C4A  EE20 F002          	lfsr	2,2
  7381   001C4E  5034               	movf	_pBDTEntryEP0OutNext^0,w,c
  7382   001C50  26D9               	addwf	fsr2l,f,c
  7383   001C52  5035               	movf	(_pBDTEntryEP0OutNext+1)^0,w,c
  7384   001C54  22DA               	addwfc	fsr2h,f,c
  7385   001C56  0E20               	movlw	32
  7386   001C58  6EDE               	movwf	postinc2,c
  7387   001C5A  0E04               	movlw	4
  7388   001C5C  6EDD               	movwf	postdec2,c
  7389   001C5E                     
  7390                           ; BSR set to: 4
  7391                           ;usb_device.c: 1738:    pBDTEntryEP0OutNext->STAT.Val = 0x04;
  7392   001C5E  C034  FFD9         	movff	_pBDTEntryEP0OutNext,fsr2l
  7393   001C62  C035  FFDA         	movff	_pBDTEntryEP0OutNext+1,fsr2h
  7394   001C66  0E04               	movlw	4
  7395   001C68  6EDF               	movwf	indf2,c
  7396   001C6A                     
  7397                           ; BSR set to: 4
  7398                           ;usb_device.c: 1739:             pBDTEntryEP0OutNext->STAT.Val |= 0x80;
  7399   001C6A  C034  FFD9         	movff	_pBDTEntryEP0OutNext,fsr2l
  7400   001C6E  C035  FFDA         	movff	_pBDTEntryEP0OutNext+1,fsr2h
  7401   001C72  0E00               	movlw	0
  7402   001C74  8EDB               	bsf	plusw2,7,c
  7403   001C76                     
  7404                           ; BSR set to: 4
  7405                           ;usb_device.c: 1742:             USBStatusStageEnabledFlag2 = 0;
  7406   001C76  0E00               	movlw	0
  7407   001C78  6E3C               	movwf	_USBStatusStageEnabledFlag2^0,c	;volatile
  7408   001C7A                     
  7409                           ; BSR set to: 4
  7410                           ;usb_device.c: 1743:             USBStatusStageEnabledFlag1 = 0;
  7411   001C7A  0E00               	movlw	0
  7412   001C7C  6E3D               	movwf	_USBStatusStageEnabledFlag1^0,c	;volatile
  7413   001C7E                     
  7414                           ; BSR set to: 4
  7415                           ;usb_device.c: 1744:    if(USBDeferStatusStagePacket == 0)
  7416   001C7E  503E               	movf	_USBDeferStatusStagePacket^0,w,c	;volatile
  7417   001C80  A4D8               	btfss	status,2,c
  7418   001C82  EF45  F00E         	goto	i2u292_41
  7419   001C86  EF47  F00E         	goto	i2u292_40
  7420   001C8A                     i2u292_41:
  7421   001C8A  EF49  F00E         	goto	i2l468
  7422   001C8E                     i2u292_40:
  7423   001C8E  EF17  F00E         	goto	i2l4103
  7424   001C92                     i2l468:
  7425   001C92  0012               	return		;funcret
  7426   001C94                     __end_of_USBCtrlEPServiceComplete:
  7427                           	callstack 0
  7428                           
  7429 ;; *************** function _USBCtrlEPAllowDataStage *****************
  7430 ;; Defined at:
  7431 ;;		line 1492 in file "usb_device.c"
  7432 ;; Parameters:    Size  Location     Type
  7433 ;;		None
  7434 ;; Auto vars:     Size  Location     Type
  7435 ;;		None
  7436 ;; Return value:  Size  Location     Type
  7437 ;;                  1    wreg      void 
  7438 ;; Registers used:
  7439 ;;		wreg, fsr1l, fsr1h, fsr2l, fsr2h, status,2, status,0, tblptrl, tblptrh, tblptru, cstack
  7440 ;; Tracked objects:
  7441 ;;		On entry : 0/0
  7442 ;;		On exit  : 0/0
  7443 ;;		Unchanged: 0/0
  7444 ;; Data sizes:     COMRAM   BANK0   BANK1   BANK2   BANK3   BANK4   BANK5   BANK6   BANK7
  7445 ;;      Params:         0       0       0       0       0       0       0       0       0
  7446 ;;      Locals:         0       0       0       0       0       0       0       0       0
  7447 ;;      Temps:          0       0       0       0       0       0       0       0       0
  7448 ;;      Totals:         0       0       0       0       0       0       0       0       0
  7449 ;;Total ram usage:        0 bytes
  7450 ;; Hardware stack levels used: 1
  7451 ;; Hardware stack levels required when called: 1
  7452 ;; This function calls:
  7453 ;;		_USBCtrlTrfTxService
  7454 ;; This function is called by:
  7455 ;;		_USBCtrlEPServiceComplete
  7456 ;; This function uses a non-reentrant model
  7457 ;;
  7458                           
  7459                           	psect	text39
  7460   002852                     __ptext39:
  7461                           	callstack 0
  7462   002852                     _USBCtrlEPAllowDataStage:
  7463                           	callstack 15
  7464   002852                     
  7465                           ;usb_device.c: 1494:     USBDeferINDataStagePackets = 0;
  7466   002852  0E00               	movlw	0
  7467   002854  6E3B               	movwf	_USBDeferINDataStagePackets^0,c	;volatile
  7468                           
  7469                           ;usb_device.c: 1495:     USBDeferOUTDataStagePackets = 0;
  7470   002856  0E00               	movlw	0
  7471   002858  6E3A               	movwf	_USBDeferOUTDataStagePackets^0,c	;volatile
  7472   00285A                     
  7473                           ;usb_device.c: 1497:     if(controlTransferState == 2)
  7474   00285A  0E02               	movlw	2
  7475   00285C  1843               	xorwf	_controlTransferState^0,w,c
  7476   00285E  A4D8               	btfss	status,2,c
  7477   002860  EF34  F014         	goto	i2u243_41
  7478   002864  EF36  F014         	goto	i2u243_40
  7479   002868                     i2u243_41:
  7480   002868  EF56  F014         	goto	i2l3815
  7481   00286C                     i2u243_40:
  7482   00286C                     
  7483                           ;usb_device.c: 1498:     {;usb_device.c: 1500:         pBDTEntryEP0OutNext->CNT = 8;
  7484   00286C  EE20 F001          	lfsr	2,1
  7485   002870  5034               	movf	_pBDTEntryEP0OutNext^0,w,c
  7486   002872  26D9               	addwf	fsr2l,f,c
  7487   002874  5035               	movf	(_pBDTEntryEP0OutNext+1)^0,w,c
  7488   002876  22DA               	addwfc	fsr2h,f,c
  7489   002878  0E08               	movlw	8
  7490   00287A  6EDF               	movwf	indf2,c
  7491                           
  7492                           ;usb_device.c: 1501:         pBDTEntryEP0OutNext->ADR = ((uint16_t)(&CtrlTrfData));
  7493   00287C  EE20 F002          	lfsr	2,2
  7494   002880  5034               	movf	_pBDTEntryEP0OutNext^0,w,c
  7495   002882  26D9               	addwf	fsr2l,f,c
  7496   002884  5035               	movf	(_pBDTEntryEP0OutNext+1)^0,w,c
  7497   002886  22DA               	addwfc	fsr2h,f,c
  7498   002888  0E28               	movlw	40
  7499   00288A  6EDE               	movwf	postinc2,c
  7500   00288C  0E04               	movlw	4
  7501   00288E  6EDD               	movwf	postdec2,c
  7502   002890                     
  7503                           ;usb_device.c: 1502:         pBDTEntryEP0OutNext->STAT.Val = 0x40|(0x08 & 0x08);
  7504   002890  C034  FFD9         	movff	_pBDTEntryEP0OutNext,fsr2l
  7505   002894  C035  FFDA         	movff	_pBDTEntryEP0OutNext+1,fsr2h
  7506   002898  0E48               	movlw	72
  7507   00289A  6EDF               	movwf	indf2,c
  7508   00289C                     
  7509                           ;usb_device.c: 1503:         pBDTEntryEP0OutNext->STAT.Val |= 0x80;
  7510   00289C  C034  FFD9         	movff	_pBDTEntryEP0OutNext,fsr2l
  7511   0028A0  C035  FFDA         	movff	_pBDTEntryEP0OutNext+1,fsr2h
  7512   0028A4  0E00               	movlw	0
  7513   0028A6  8EDB               	bsf	plusw2,7,c
  7514                           
  7515                           ;usb_device.c: 1504:     }
  7516   0028A8  EF82  F014         	goto	i2l450
  7517   0028AC                     i2l3815:
  7518                           
  7519                           ;usb_device.c: 1506:     {;usb_device.c: 1509:   if(SetupPkt.wLength < inPipes[0].wCount
      +                          .Val)
  7520   0028AC  0100               	movlb	0	; () banked
  7521   0028AE  51DD               	movf	(_inPipes+4)& (0+255),w,b
  7522   0028B0  0104               	movlb	4	; () banked
  7523   0028B2  5D26               	subwf	38,w,b	;volatile
  7524   0028B4  0100               	movlb	0	; () banked
  7525   0028B6  51DE               	movf	(_inPipes+5)& (0+255),w,b
  7526   0028B8  0104               	movlb	4	; () banked
  7527   0028BA  5927               	subwfb	39,w,b	;volatile
  7528   0028BC  B0D8               	btfsc	status,0,c
  7529   0028BE  EF63  F014         	goto	i2u244_41
  7530   0028C2  EF65  F014         	goto	i2u244_40
  7531   0028C6                     i2u244_41:
  7532   0028C6  EF69  F014         	goto	i2l3819
  7533   0028CA                     i2u244_40:
  7534   0028CA                     
  7535                           ; BSR set to: 4
  7536                           ;usb_device.c: 1510:   {;usb_device.c: 1511:    inPipes[0].wCount.Val = SetupPkt.wLength
      +                          ;
  7537   0028CA  C426 F0DD          	movff	1062,_inPipes+4	;volatile
  7538   0028CE  C427 F0DE          	movff	1063,_inPipes+5	;volatile
  7539   0028D2                     i2l3819:
  7540                           
  7541                           ; BSR set to: 4
  7542                           ;usb_device.c: 1513:   USBCtrlTrfTxService();
  7543   0028D2  EC92  F010         	call	_USBCtrlTrfTxService	;wreg free
  7544   0028D6                     
  7545                           ;usb_device.c: 1518:   pBDTEntryIn[0]->ADR = ((uint16_t)(&CtrlTrfData));
  7546   0028D6  0100               	movlb	0	; () banked
  7547   0028D8  EE20 F002          	lfsr	2,2
  7548   0028DC  51E3               	movf	_pBDTEntryIn& (0+255),w,b
  7549   0028DE  26D9               	addwf	fsr2l,f,c
  7550   0028E0  51E4               	movf	(_pBDTEntryIn+1)& (0+255),w,b
  7551   0028E2  22DA               	addwfc	fsr2h,f,c
  7552   0028E4  0E28               	movlw	40
  7553   0028E6  6EDE               	movwf	postinc2,c
  7554   0028E8  0E04               	movlw	4
  7555   0028EA  6EDD               	movwf	postdec2,c
  7556   0028EC                     
  7557                           ; BSR set to: 0
  7558                           ;usb_device.c: 1519:   pBDTEntryIn[0]->STAT.Val = 0x40|(0x08 & 0x08);
  7559   0028EC  C0E3  FFD9         	movff	_pBDTEntryIn,fsr2l
  7560   0028F0  C0E4  FFDA         	movff	_pBDTEntryIn+1,fsr2h
  7561   0028F4  0E48               	movlw	72
  7562   0028F6  6EDF               	movwf	indf2,c
  7563   0028F8                     
  7564                           ; BSR set to: 0
  7565                           ;usb_device.c: 1520:         pBDTEntryIn[0]->STAT.Val |= 0x80;
  7566   0028F8  C0E3  FFD9         	movff	_pBDTEntryIn,fsr2l
  7567   0028FC  C0E4  FFDA         	movff	_pBDTEntryIn+1,fsr2h
  7568   002900  0E00               	movlw	0
  7569   002902  8EDB               	bsf	plusw2,7,c
  7570   002904                     i2l450:
  7571   002904  0012               	return		;funcret
  7572   002906                     __end_of_USBCtrlEPAllowDataStage:
  7573                           	callstack 0
  7574                           
  7575 ;; *************** function _USBCheckStdRequest *****************
  7576 ;; Defined at:
  7577 ;;		line 2693 in file "usb_device.c"
  7578 ;; Parameters:    Size  Location     Type
  7579 ;;		None
  7580 ;; Auto vars:     Size  Location     Type
  7581 ;;		None
  7582 ;; Return value:  Size  Location     Type
  7583 ;;                  1    wreg      void 
  7584 ;; Registers used:
  7585 ;;		wreg, fsr1l, fsr1h, fsr2l, fsr2h, status,2, status,0, tblptrl, tblptrh, tblptru, prodl, prodh, cstack
  7586 ;; Tracked objects:
  7587 ;;		On entry : 0/0
  7588 ;;		On exit  : 0/0
  7589 ;;		Unchanged: 0/0
  7590 ;; Data sizes:     COMRAM   BANK0   BANK1   BANK2   BANK3   BANK4   BANK5   BANK6   BANK7
  7591 ;;      Params:         0       0       0       0       0       0       0       0       0
  7592 ;;      Locals:         0       0       0       0       0       0       0       0       0
  7593 ;;      Temps:          2       0       0       0       0       0       0       0       0
  7594 ;;      Totals:         2       0       0       0       0       0       0       0       0
  7595 ;;Total ram usage:        2 bytes
  7596 ;; Hardware stack levels used: 1
  7597 ;; Hardware stack levels required when called: 5
  7598 ;; This function calls:
  7599 ;;		_USBStdFeatureReqHandler
  7600 ;;		_USBStdGetDscHandler
  7601 ;;		_USBStdGetStatusHandler
  7602 ;;		_USBStdSetCfgHandler
  7603 ;;		_USER_USB_CALLBACK_EVENT_HANDLER
  7604 ;; This function is called by:
  7605 ;;		_USBCtrlTrfSetupHandler
  7606 ;; This function uses a non-reentrant model
  7607 ;;
  7608                           
  7609                           	psect	text40
  7610   001EF4                     __ptext40:
  7611                           	callstack 0
  7612   001EF4                     _USBCheckStdRequest:
  7613                           	callstack 12
  7614   001EF4                     
  7615                           ;usb_device.c: 2695:     if(SetupPkt.RequestType != (0x00>>5)) return;
  7616   001EF4  0104               	movlb	4	; () banked
  7617   001EF6  3920               	swapf	32,w,b	;volatile
  7618   001EF8  32E8               	rrcf	wreg,f,c
  7619   001EFA  0B03               	andlw	3
  7620   001EFC  0900               	iorlw	0
  7621   001EFE  B4D8               	btfsc	status,2,c
  7622   001F00  EF84  F00F         	goto	i2u298_41
  7623   001F04  EF86  F00F         	goto	i2u298_40
  7624   001F08                     i2u298_41:
  7625   001F08  EFD0  F00F         	goto	i2l4203
  7626   001F0C                     i2u298_40:
  7627   001F0C  EF09  F010         	goto	i2l582
  7628   001F10                     i2l584:
  7629                           
  7630                           ; BSR set to: 4
  7631                           ;usb_device.c: 2700:             inPipes[0].info.bits.busy = 1;
  7632   001F10  0100               	movlb	0	; () banked
  7633   001F12  8FDC               	bsf	(_inPipes+3)& (0+255),7,b
  7634   001F14                     
  7635                           ; BSR set to: 0
  7636                           ;usb_device.c: 2701:             USBDeviceState = ADR_PENDING_STATE;
  7637   001F14  0E08               	movlw	8
  7638   001F16  0101               	movlb	1	; () banked
  7639   001F18  6F74               	movwf	_USBDeviceState& (0+255),b
  7640                           
  7641                           ;usb_device.c: 2703:             break;
  7642   001F1A  EF09  F010         	goto	i2l582
  7643   001F1E                     i2l4173:
  7644                           
  7645                           ; BSR set to: 4
  7646                           ;usb_device.c: 2705:             USBStdGetDscHandler();
  7647   001F1E  EC68  F00A         	call	_USBStdGetDscHandler	;wreg free
  7648                           
  7649                           ;usb_device.c: 2706:             break;
  7650   001F22  EF09  F010         	goto	i2l582
  7651   001F26                     i2l4175:
  7652                           
  7653                           ; BSR set to: 4
  7654                           ;usb_device.c: 2708:             USBStdSetCfgHandler();
  7655   001F26  EC89  F012         	call	_USBStdSetCfgHandler	;wreg free
  7656                           
  7657                           ;usb_device.c: 2709:             break;
  7658   001F2A  EF09  F010         	goto	i2l582
  7659   001F2E                     i2l4177:
  7660                           
  7661                           ; BSR set to: 4
  7662                           ;usb_device.c: 2711:             inPipes[0].pSrc.bRam = (uint8_t*)&USBActiveConfiguratio
      +                          n;
  7663   001F2E  0E4A               	movlw	low _USBActiveConfiguration
  7664   001F30  0100               	movlb	0	; () banked
  7665   001F32  6FD9               	movwf	_inPipes& (0+255),b
  7666   001F34  0E00               	movlw	high _USBActiveConfiguration
  7667   001F36  6FDA               	movwf	(_inPipes+1)& (0+255),b
  7668   001F38                     i2l4179:
  7669                           
  7670                           ; BSR set to: 0
  7671                           ;usb_device.c: 2712:             inPipes[0].info.bits.ctrl_trf_mem = 0x01;
  7672   001F38  81DC               	bsf	(_inPipes+3)& (0+255),0,b
  7673   001F3A                     
  7674                           ; BSR set to: 0
  7675                           ;usb_device.c: 2713:             inPipes[0].wCount.v[0] = 1;
  7676   001F3A  0E01               	movlw	1
  7677   001F3C  6FDD               	movwf	(_inPipes+4)& (0+255),b
  7678   001F3E                     
  7679                           ; BSR set to: 0
  7680                           ;usb_device.c: 2714:             inPipes[0].info.bits.busy = 1;
  7681   001F3E  8FDC               	bsf	(_inPipes+3)& (0+255),7,b
  7682                           
  7683                           ;usb_device.c: 2715:             break;
  7684   001F40  EF09  F010         	goto	i2l582
  7685   001F44                     i2l4185:
  7686                           
  7687                           ; BSR set to: 4
  7688                           ;usb_device.c: 2717:             USBStdGetStatusHandler();
  7689   001F44  ECE9  F00E         	call	_USBStdGetStatusHandler	;wreg free
  7690                           
  7691                           ;usb_device.c: 2718:             break;
  7692   001F48  EF09  F010         	goto	i2l582
  7693   001F4C                     i2l4187:
  7694                           
  7695                           ; BSR set to: 4
  7696                           ;usb_device.c: 2721:             USBStdFeatureReqHandler();
  7697   001F4C  ECF4  F002         	call	_USBStdFeatureReqHandler	;wreg free
  7698                           
  7699                           ;usb_device.c: 2722:             break;
  7700   001F50  EF09  F010         	goto	i2l582
  7701   001F54                     i2l4189:
  7702                           
  7703                           ; BSR set to: 4
  7704                           ;usb_device.c: 2724:             inPipes[0].pSrc.bRam = (uint8_t*)&USBAlternateInterface
      +                          [SetupPkt.bIntfID];
  7705   001F54  0E49               	movlw	low _USBAlternateInterface
  7706   001F56  2524               	addwf	36,w,b	;volatile
  7707   001F58  0100               	movlb	0	; () banked
  7708   001F5A  6FD9               	movwf	_inPipes& (0+255),b
  7709   001F5C  6BDA               	clrf	(_inPipes+1)& (0+255),b
  7710   001F5E  0E00               	movlw	high _USBAlternateInterface
  7711   001F60  23DA               	addwfc	(_inPipes+1)& (0+255),f,b
  7712   001F62  EF9C  F00F         	goto	i2l4179
  7713   001F66                     i2l593:
  7714                           
  7715                           ; BSR set to: 4
  7716                           ;usb_device.c: 2730:             inPipes[0].info.bits.busy = 1;
  7717   001F66  0100               	movlb	0	; () banked
  7718   001F68  8FDC               	bsf	(_inPipes+3)& (0+255),7,b
  7719   001F6A                     
  7720                           ; BSR set to: 0
  7721                           ;usb_device.c: 2731:             USBAlternateInterface[SetupPkt.bIntfID] = SetupPkt.bAlt
      +                          ID;
  7722   001F6A  0E49               	movlw	low _USBAlternateInterface
  7723   001F6C  0104               	movlb	4	; () banked
  7724   001F6E  2524               	addwf	36,w,b	;volatile
  7725   001F70  6ED9               	movwf	fsr2l,c
  7726   001F72  6ADA               	clrf	fsr2h,c
  7727   001F74  0E00               	movlw	high _USBAlternateInterface
  7728   001F76  22DA               	addwfc	fsr2h,f,c
  7729   001F78  C422 FFDF          	movff	1058,indf2	;volatile
  7730                           
  7731                           ;usb_device.c: 2732:             break;
  7732   001F7C  EF09  F010         	goto	i2l582
  7733   001F80                     i2l4199:
  7734                           
  7735                           ; BSR set to: 4
  7736                           ;usb_device.c: 2734:             USER_USB_CALLBACK_EVENT_HANDLER((USB_EVENT)EVENT_SET_DE
      +                          SCRIPTOR,0,0);
  7737   001F80  0E00               	movlw	0
  7738   001F82  6E10               	movwf	(USER_USB_CALLBACK_EVENT_HANDLER@event+1)^0,c
  7739   001F84  0E02               	movlw	2
  7740   001F86  6E0F               	movwf	USER_USB_CALLBACK_EVENT_HANDLER@event^0,c
  7741   001F88  0E00               	movlw	0
  7742   001F8A  6E11               	movwf	USER_USB_CALLBACK_EVENT_HANDLER@pdata^0,c
  7743   001F8C  0E00               	movlw	0
  7744   001F8E  6E12               	movwf	(USER_USB_CALLBACK_EVENT_HANDLER@pdata+1)^0,c
  7745   001F90  0E00               	movlw	0
  7746   001F92  6E14               	movwf	(USER_USB_CALLBACK_EVENT_HANDLER@size+1)^0,c
  7747   001F94  0E00               	movlw	0
  7748   001F96  6E13               	movwf	USER_USB_CALLBACK_EVENT_HANDLER@size^0,c
  7749   001F98  ECDB  F014         	call	_USER_USB_CALLBACK_EVENT_HANDLER	;wreg free
  7750                           
  7751                           ;usb_device.c: 2735:             break;
  7752   001F9C  EF09  F010         	goto	i2l582
  7753   001FA0                     i2l4203:
  7754                           
  7755                           ; BSR set to: 4
  7756   001FA0  5121               	movf	33,w,b	;volatile
  7757   001FA2  6E1E               	movwf	??_USBCheckStdRequest^0,c
  7758   001FA4  6A1F               	clrf	(??_USBCheckStdRequest+1)^0,c
  7759                           
  7760                           ; Switch on 2 bytes has been partitioned into a top level switch of size 1, and 1 sub-sw
      +                          itches
  7761                           ; Switch size 1, requested type "simple"
  7762                           ; Number of cases is 1, Range of values is 0 to 0
  7763                           ; switch strategies available:
  7764                           ; Name         Instructions Cycles
  7765                           ; simple_byte            4     3 (average)
  7766                           ;	Chosen strategy is simple_byte
  7767   001FA6  501F               	movf	(??_USBCheckStdRequest+1)^0,w,c
  7768   001FA8  0A00               	xorlw	0	; case 0
  7769   001FAA  B4D8               	btfsc	status,2,c
  7770   001FAC  EFDA  F00F         	goto	i2l6185
  7771   001FB0  EF09  F010         	goto	i2l582
  7772   001FB4                     i2l6185:
  7773                           
  7774                           ; BSR set to: 4
  7775                           ; Switch size 1, requested type "simple"
  7776                           ; Number of cases is 11, Range of values is 0 to 12
  7777                           ; switch strategies available:
  7778                           ; Name         Instructions Cycles
  7779                           ; simple_byte           34    18 (average)
  7780                           ;	Chosen strategy is simple_byte
  7781   001FB4  501E               	movf	??_USBCheckStdRequest^0,w,c
  7782   001FB6  0A00               	xorlw	0	; case 0
  7783   001FB8  B4D8               	btfsc	status,2,c
  7784   001FBA  EFA2  F00F         	goto	i2l4185
  7785   001FBE  0A01               	xorlw	1	; case 1
  7786   001FC0  B4D8               	btfsc	status,2,c
  7787   001FC2  EFA6  F00F         	goto	i2l4187
  7788   001FC6  0A02               	xorlw	2	; case 3
  7789   001FC8  B4D8               	btfsc	status,2,c
  7790   001FCA  EFA6  F00F         	goto	i2l4187
  7791   001FCE  0A06               	xorlw	6	; case 5
  7792   001FD0  B4D8               	btfsc	status,2,c
  7793   001FD2  EF88  F00F         	goto	i2l584
  7794   001FD6  0A03               	xorlw	3	; case 6
  7795   001FD8  B4D8               	btfsc	status,2,c
  7796   001FDA  EF8F  F00F         	goto	i2l4173
  7797   001FDE  0A01               	xorlw	1	; case 7
  7798   001FE0  B4D8               	btfsc	status,2,c
  7799   001FE2  EFC0  F00F         	goto	i2l4199
  7800   001FE6  0A0F               	xorlw	15	; case 8
  7801   001FE8  B4D8               	btfsc	status,2,c
  7802   001FEA  EF97  F00F         	goto	i2l4177
  7803   001FEE  0A01               	xorlw	1	; case 9
  7804   001FF0  B4D8               	btfsc	status,2,c
  7805   001FF2  EF93  F00F         	goto	i2l4175
  7806   001FF6  0A03               	xorlw	3	; case 10
  7807   001FF8  B4D8               	btfsc	status,2,c
  7808   001FFA  EFAA  F00F         	goto	i2l4189
  7809   001FFE  0A01               	xorlw	1	; case 11
  7810   002000  B4D8               	btfsc	status,2,c
  7811   002002  EFB3  F00F         	goto	i2l593
  7812   002006  0A07               	xorlw	7	; case 12
  7813   002008  B4D8               	btfsc	status,2,c
  7814   00200A  EF09  F010         	goto	i2l582
  7815   00200E  EF09  F010         	goto	i2l582
  7816   002012                     i2l582:
  7817   002012  0012               	return		;funcret
  7818   002014                     __end_of_USBCheckStdRequest:
  7819                           	callstack 0
  7820                           
  7821 ;; *************** function _USBStdSetCfgHandler *****************
  7822 ;; Defined at:
  7823 ;;		line 1972 in file "usb_device.c"
  7824 ;; Parameters:    Size  Location     Type
  7825 ;;		None
  7826 ;; Auto vars:     Size  Location     Type
  7827 ;;  i               1   22[COMRAM] unsigned char 
  7828 ;; Return value:  Size  Location     Type
  7829 ;;                  1    wreg      void 
  7830 ;; Registers used:
  7831 ;;		wreg, fsr2l, fsr2h, status,2, status,0, prodl, prodh, cstack
  7832 ;; Tracked objects:
  7833 ;;		On entry : 0/0
  7834 ;;		On exit  : 0/0
  7835 ;;		Unchanged: 0/0
  7836 ;; Data sizes:     COMRAM   BANK0   BANK1   BANK2   BANK3   BANK4   BANK5   BANK6   BANK7
  7837 ;;      Params:         0       0       0       0       0       0       0       0       0
  7838 ;;      Locals:         1       0       0       0       0       0       0       0       0
  7839 ;;      Temps:          0       0       0       0       0       0       0       0       0
  7840 ;;      Totals:         1       0       0       0       0       0       0       0       0
  7841 ;;Total ram usage:        1 bytes
  7842 ;; Hardware stack levels used: 1
  7843 ;; Hardware stack levels required when called: 4
  7844 ;; This function calls:
  7845 ;;		_USER_USB_CALLBACK_EVENT_HANDLER
  7846 ;;		i2_memset
  7847 ;; This function is called by:
  7848 ;;		_USBCheckStdRequest
  7849 ;; This function uses a non-reentrant model
  7850 ;;
  7851                           
  7852                           	psect	text41
  7853   002512                     __ptext41:
  7854                           	callstack 0
  7855   002512                     _USBStdSetCfgHandler:
  7856                           	callstack 12
  7857   002512                     
  7858                           ;usb_device.c: 1974:     uint8_t i;;usb_device.c: 1977:     inPipes[0].info.bits.busy = 
      +                          1;
  7859   002512  0100               	movlb	0	; () banked
  7860   002514  8FDC               	bsf	(_inPipes+3)& (0+255),7,b
  7861   002516                     
  7862                           ; BSR set to: 0
  7863                           ;usb_device.c: 1980:     memset((void*)&UEP1,0x00,(1));;
  7864   002516  0E71               	movlw	113
  7865   002518  6E01               	movwf	i2memset@dest^0,c
  7866   00251A  0E0F               	movlw	15
  7867   00251C  6E02               	movwf	(i2memset@dest+1)^0,c
  7868   00251E  0E00               	movlw	0
  7869   002520  6E04               	movwf	(i2memset@c+1)^0,c
  7870   002522  0E00               	movlw	0
  7871   002524  6E03               	movwf	i2memset@c^0,c
  7872   002526  0E00               	movlw	0
  7873   002528  6E06               	movwf	(i2memset@n+1)^0,c
  7874   00252A  0E01               	movlw	1
  7875   00252C  6E05               	movwf	i2memset@n^0,c
  7876   00252E  EC43  F008         	call	i2_memset	;wreg free
  7877                           
  7878                           ;usb_device.c: 1983:     memset((void*)&BDT[0], 0x00, sizeof(BDT));
  7879   002532  0E00               	movlw	0
  7880   002534  6E01               	movwf	i2memset@dest^0,c
  7881   002536  0E04               	movlw	4
  7882   002538  6E02               	movwf	(i2memset@dest+1)^0,c
  7883   00253A  0E00               	movlw	0
  7884   00253C  6E04               	movwf	(i2memset@c+1)^0,c
  7885   00253E  0E00               	movlw	0
  7886   002540  6E03               	movwf	i2memset@c^0,c
  7887   002542  0E00               	movlw	0
  7888   002544  6E06               	movwf	(i2memset@n+1)^0,c
  7889   002546  0E20               	movlw	32
  7890   002548  6E05               	movwf	i2memset@n^0,c
  7891   00254A  EC43  F008         	call	i2_memset	;wreg free
  7892   00254E                     
  7893                           ;usb_device.c: 1986:     UCONbits.PPBRST = 1;
  7894   00254E  8C6D               	bsf	109,6,c	;volatile
  7895   002550                     
  7896                           ;usb_device.c: 1991:  for(i = 0; i < (uint8_t)(1 +1u); i++)
  7897   002550  0E00               	movlw	0
  7898   002552  6E17               	movwf	USBStdSetCfgHandler@i^0,c
  7899   002554                     i2l3839:
  7900                           
  7901                           ;usb_device.c: 1992:  {;usb_device.c: 1993:   ep_data_in[i].Val = 0u;
  7902   002554  0EF1               	movlw	low _ep_data_in
  7903   002556  2417               	addwf	USBStdSetCfgHandler@i^0,w,c
  7904   002558  6ED9               	movwf	fsr2l,c
  7905   00255A  6ADA               	clrf	fsr2h,c
  7906   00255C  0E00               	movlw	high _ep_data_in
  7907   00255E  22DA               	addwfc	fsr2h,f,c
  7908   002560  0E00               	movlw	0
  7909   002562  6EDF               	movwf	indf2,c
  7910                           
  7911                           ;usb_device.c: 1994:         ep_data_out[i].Val = 0u;
  7912   002564  0EEF               	movlw	low _ep_data_out
  7913   002566  2417               	addwf	USBStdSetCfgHandler@i^0,w,c
  7914   002568  6ED9               	movwf	fsr2l,c
  7915   00256A  6ADA               	clrf	fsr2h,c
  7916   00256C  0E00               	movlw	high _ep_data_out
  7917   00256E  22DA               	addwfc	fsr2h,f,c
  7918   002570  0E00               	movlw	0
  7919   002572  6EDF               	movwf	indf2,c
  7920   002574                     
  7921                           ;usb_device.c: 1995:  }
  7922   002574  2A17               	incf	USBStdSetCfgHandler@i^0,f,c
  7923   002576  0E01               	movlw	1
  7924   002578  6417               	cpfsgt	USBStdSetCfgHandler@i^0,c
  7925   00257A  EFC1  F012         	goto	i2u245_41
  7926   00257E  EFC3  F012         	goto	i2u245_40
  7927   002582                     i2u245_41:
  7928   002582  EFAA  F012         	goto	i2l3839
  7929   002586                     i2u245_40:
  7930   002586                     
  7931                           ;usb_device.c: 1998:     memset((void*)&USBAlternateInterface,0x00,1);
  7932   002586  0E49               	movlw	low _USBAlternateInterface
  7933   002588  6E01               	movwf	i2memset@dest^0,c
  7934   00258A  0E00               	movlw	high _USBAlternateInterface
  7935   00258C  6E02               	movwf	(i2memset@dest+1)^0,c
  7936   00258E  0E00               	movlw	0
  7937   002590  6E04               	movwf	(i2memset@c+1)^0,c
  7938   002592  0E00               	movlw	0
  7939   002594  6E03               	movwf	i2memset@c^0,c
  7940   002596  0E00               	movlw	0
  7941   002598  6E06               	movwf	(i2memset@n+1)^0,c
  7942   00259A  0E01               	movlw	1
  7943   00259C  6E05               	movwf	i2memset@n^0,c
  7944   00259E  EC43  F008         	call	i2_memset	;wreg free
  7945   0025A2                     
  7946                           ;usb_device.c: 2001:     UCONbits.PPBRST = 0;
  7947   0025A2  9C6D               	bcf	109,6,c	;volatile
  7948   0025A4                     
  7949                           ;usb_device.c: 2003:     pBDTEntryIn[0] = (volatile BDT_ENTRY*)&BDT[2];
  7950   0025A4  0E08               	movlw	8
  7951   0025A6  0100               	movlb	0	; () banked
  7952   0025A8  6FE3               	movwf	_pBDTEntryIn& (0+255),b
  7953   0025AA  0E04               	movlw	4
  7954   0025AC  6FE4               	movwf	(_pBDTEntryIn+1)& (0+255),b
  7955   0025AE                     
  7956                           ; BSR set to: 0
  7957                           ;usb_device.c: 2006:     pBDTEntryEP0OutCurrent = (volatile BDT_ENTRY*)&BDT[0];
  7958   0025AE  0E00               	movlw	0
  7959   0025B0  6E36               	movwf	_pBDTEntryEP0OutCurrent^0,c
  7960   0025B2  0E04               	movlw	4
  7961   0025B4  6E37               	movwf	(_pBDTEntryEP0OutCurrent+1)^0,c
  7962   0025B6                     
  7963                           ; BSR set to: 0
  7964                           ;usb_device.c: 2007:     pBDTEntryEP0OutNext = pBDTEntryEP0OutCurrent;
  7965   0025B6  C036  F034         	movff	_pBDTEntryEP0OutCurrent,_pBDTEntryEP0OutNext
  7966   0025BA  C037  F035         	movff	_pBDTEntryEP0OutCurrent+1,_pBDTEntryEP0OutNext+1
  7967   0025BE                     
  7968                           ; BSR set to: 0
  7969                           ;usb_device.c: 2010:     USBActiveConfiguration = SetupPkt.bConfigurationValue;
  7970   0025BE  C422 F04A          	movff	1058,_USBActiveConfiguration	;volatile
  7971   0025C2                     
  7972                           ; BSR set to: 0
  7973                           ;usb_device.c: 2013:     if(USBActiveConfiguration == 0)
  7974   0025C2  504A               	movf	_USBActiveConfiguration^0,w,c
  7975   0025C4  A4D8               	btfss	status,2,c
  7976   0025C6  EFE7  F012         	goto	i2u246_41
  7977   0025CA  EFE9  F012         	goto	i2u246_40
  7978   0025CE                     i2u246_41:
  7979   0025CE  EFEE  F012         	goto	i2l3861
  7980   0025D2                     i2u246_40:
  7981   0025D2                     
  7982                           ; BSR set to: 0
  7983                           ;usb_device.c: 2014:     {;usb_device.c: 2016:         USBDeviceState = ADDRESS_STATE;
  7984   0025D2  0E10               	movlw	16
  7985   0025D4  0101               	movlb	1	; () banked
  7986   0025D6  6F74               	movwf	_USBDeviceState& (0+255),b
  7987                           
  7988                           ;usb_device.c: 2017:     }
  7989   0025D8  EFFF  F012         	goto	i2l503
  7990   0025DC                     i2l3861:
  7991                           
  7992                           ; BSR set to: 0
  7993                           ;usb_device.c: 2019:     {;usb_device.c: 2021:         USER_USB_CALLBACK_EVENT_HANDLER((
      +                          USB_EVENT)EVENT_CONFIGURED,(void*)&USBActiveConfiguration,1);
  7994   0025DC  0E00               	movlw	0
  7995   0025DE  6E10               	movwf	(USER_USB_CALLBACK_EVENT_HANDLER@event+1)^0,c
  7996   0025E0  0E01               	movlw	1
  7997   0025E2  6E0F               	movwf	USER_USB_CALLBACK_EVENT_HANDLER@event^0,c
  7998   0025E4  0E4A               	movlw	low _USBActiveConfiguration
  7999   0025E6  6E11               	movwf	USER_USB_CALLBACK_EVENT_HANDLER@pdata^0,c
  8000   0025E8  0E00               	movlw	high _USBActiveConfiguration
  8001   0025EA  6E12               	movwf	(USER_USB_CALLBACK_EVENT_HANDLER@pdata+1)^0,c
  8002   0025EC  0E00               	movlw	0
  8003   0025EE  6E14               	movwf	(USER_USB_CALLBACK_EVENT_HANDLER@size+1)^0,c
  8004   0025F0  0E01               	movlw	1
  8005   0025F2  6E13               	movwf	USER_USB_CALLBACK_EVENT_HANDLER@size^0,c
  8006   0025F4  ECDB  F014         	call	_USER_USB_CALLBACK_EVENT_HANDLER	;wreg free
  8007   0025F8                     
  8008                           ;usb_device.c: 2026:         USBDeviceState = CONFIGURED_STATE;
  8009   0025F8  0E20               	movlw	32
  8010   0025FA  0101               	movlb	1	; () banked
  8011   0025FC  6F74               	movwf	_USBDeviceState& (0+255),b
  8012   0025FE                     i2l503:
  8013                           
  8014                           ; BSR set to: 1
  8015   0025FE  0012               	return		;funcret
  8016   002600                     __end_of_USBStdSetCfgHandler:
  8017                           	callstack 0
  8018                           
  8019 ;; *************** function i2_memset *****************
  8020 ;; Defined at:
  8021 ;;		line 4 in file "C:\Program Files\Microchip\xc8\v2.40\pic\sources\c99\common\memset.c"
  8022 ;; Parameters:    Size  Location     Type
  8023 ;;  dest            2    0[COMRAM] PTR void 
  8024 ;;		 -> USBAlternateInterface(1), BDT(32), UEP1(1), 
  8025 ;;  c               2    2[COMRAM] int 
  8026 ;;  n               2    4[COMRAM] unsigned int 
  8027 ;; Auto vars:     Size  Location     Type
  8028 ;;  s               2   10[COMRAM] PTR unsigned char 
  8029 ;;		 -> USBAlternateInterface(1), BDT(32), UEP1(1), 
  8030 ;;  k               2    8[COMRAM] unsigned int 
  8031 ;; Return value:  Size  Location     Type
  8032 ;;                  2    0[COMRAM] PTR void 
  8033 ;; Registers used:
  8034 ;;		wreg, fsr2l, fsr2h, status,2, status,0
  8035 ;; Tracked objects:
  8036 ;;		On entry : 0/0
  8037 ;;		On exit  : 0/0
  8038 ;;		Unchanged: 0/0
  8039 ;; Data sizes:     COMRAM   BANK0   BANK1   BANK2   BANK3   BANK4   BANK5   BANK6   BANK7
  8040 ;;      Params:         6       0       0       0       0       0       0       0       0
  8041 ;;      Locals:         4       0       0       0       0       0       0       0       0
  8042 ;;      Temps:          2       0       0       0       0       0       0       0       0
  8043 ;;      Totals:        12       0       0       0       0       0       0       0       0
  8044 ;;Total ram usage:       12 bytes
  8045 ;; Hardware stack levels used: 1
  8046 ;; This function calls:
  8047 ;;		Nothing
  8048 ;; This function is called by:
  8049 ;;		_USBStdSetCfgHandler
  8050 ;;		i2_USBDeviceInit
  8051 ;; This function uses a non-reentrant model
  8052 ;;
  8053                           
  8054                           	psect	text42
  8055   001086                     __ptext42:
  8056                           	callstack 0
  8057   001086                     i2_memset:
  8058                           	callstack 18
  8059   001086  C001  F00B         	movff	i2memset@dest,i2memset@s
  8060   00108A  C002  F00C         	movff	i2memset@dest+1,i2memset@s+1
  8061   00108E  5005               	movf	i2memset@n^0,w,c
  8062   001090  1006               	iorwf	(i2memset@n+1)^0,w,c
  8063   001092  A4D8               	btfss	status,2,c
  8064   001094  EF4E  F008         	goto	i2u234_41
  8065   001098  EF50  F008         	goto	i2u234_40
  8066   00109C                     i2u234_41:
  8067   00109C  EF52  F008         	goto	i2l3743
  8068   0010A0                     i2u234_40:
  8069   0010A0  EFFD  F008         	goto	i2l1463
  8070   0010A4                     i2l3743:
  8071   0010A4  C00B  FFD9         	movff	i2memset@s,fsr2l
  8072   0010A8  C00C  FFDA         	movff	i2memset@s+1,fsr2h
  8073   0010AC  C003  FFDF         	movff	i2memset@c,indf2
  8074   0010B0  5005               	movf	i2memset@n^0,w,c
  8075   0010B2  240B               	addwf	i2memset@s^0,w,c
  8076   0010B4  6E07               	movwf	??i2_memset^0,c
  8077   0010B6  5006               	movf	(i2memset@n+1)^0,w,c
  8078   0010B8  200C               	addwfc	(i2memset@s+1)^0,w,c
  8079   0010BA  6E08               	movwf	(??i2_memset+1)^0,c
  8080   0010BC  0EFF               	movlw	255
  8081   0010BE  2407               	addwf	??i2_memset^0,w,c
  8082   0010C0  6ED9               	movwf	fsr2l,c
  8083   0010C2  0EFF               	movlw	255
  8084   0010C4  2008               	addwfc	(??i2_memset+1)^0,w,c
  8085   0010C6  6EDA               	movwf	fsr2h,c
  8086   0010C8  C003  FFDF         	movff	i2memset@c,indf2
  8087   0010CC  5006               	movf	(i2memset@n+1)^0,w,c
  8088   0010CE  E107               	bnz	i2u235_41
  8089   0010D0  0E03               	movlw	3
  8090   0010D2  5C05               	subwf	i2memset@n^0,w,c
  8091   0010D4  B0D8               	btfsc	status,0,c
  8092   0010D6  EF6F  F008         	goto	i2u235_41
  8093   0010DA  EF71  F008         	goto	i2u235_40
  8094   0010DE                     i2u235_41:
  8095   0010DE  EF73  F008         	goto	i2l3749
  8096   0010E2                     i2u235_40:
  8097   0010E2  EFFD  F008         	goto	i2l1463
  8098   0010E6                     i2l3749:
  8099   0010E6  EE20 F001          	lfsr	2,1
  8100   0010EA  500B               	movf	i2memset@s^0,w,c
  8101   0010EC  26D9               	addwf	fsr2l,f,c
  8102   0010EE  500C               	movf	(i2memset@s+1)^0,w,c
  8103   0010F0  22DA               	addwfc	fsr2h,f,c
  8104   0010F2  C003  FFDF         	movff	i2memset@c,indf2
  8105   0010F6  EE20 F002          	lfsr	2,2
  8106   0010FA  500B               	movf	i2memset@s^0,w,c
  8107   0010FC  26D9               	addwf	fsr2l,f,c
  8108   0010FE  500C               	movf	(i2memset@s+1)^0,w,c
  8109   001100  22DA               	addwfc	fsr2h,f,c
  8110   001102  C003  FFDF         	movff	i2memset@c,indf2
  8111   001106  5005               	movf	i2memset@n^0,w,c
  8112   001108  240B               	addwf	i2memset@s^0,w,c
  8113   00110A  6E07               	movwf	??i2_memset^0,c
  8114   00110C  5006               	movf	(i2memset@n+1)^0,w,c
  8115   00110E  200C               	addwfc	(i2memset@s+1)^0,w,c
  8116   001110  6E08               	movwf	(??i2_memset+1)^0,c
  8117   001112  0EFE               	movlw	254
  8118   001114  2407               	addwf	??i2_memset^0,w,c
  8119   001116  6ED9               	movwf	fsr2l,c
  8120   001118  0EFF               	movlw	255
  8121   00111A  2008               	addwfc	(??i2_memset+1)^0,w,c
  8122   00111C  6EDA               	movwf	fsr2h,c
  8123   00111E  C003  FFDF         	movff	i2memset@c,indf2
  8124   001122  5005               	movf	i2memset@n^0,w,c
  8125   001124  240B               	addwf	i2memset@s^0,w,c
  8126   001126  6E07               	movwf	??i2_memset^0,c
  8127   001128  5006               	movf	(i2memset@n+1)^0,w,c
  8128   00112A  200C               	addwfc	(i2memset@s+1)^0,w,c
  8129   00112C  6E08               	movwf	(??i2_memset+1)^0,c
  8130   00112E  0EFD               	movlw	253
  8131   001130  2407               	addwf	??i2_memset^0,w,c
  8132   001132  6ED9               	movwf	fsr2l,c
  8133   001134  0EFF               	movlw	255
  8134   001136  2008               	addwfc	(??i2_memset+1)^0,w,c
  8135   001138  6EDA               	movwf	fsr2h,c
  8136   00113A  C003  FFDF         	movff	i2memset@c,indf2
  8137   00113E  5006               	movf	(i2memset@n+1)^0,w,c
  8138   001140  E107               	bnz	i2u236_41
  8139   001142  0E07               	movlw	7
  8140   001144  5C05               	subwf	i2memset@n^0,w,c
  8141   001146  B0D8               	btfsc	status,0,c
  8142   001148  EFA8  F008         	goto	i2u236_41
  8143   00114C  EFAA  F008         	goto	i2u236_40
  8144   001150                     i2u236_41:
  8145   001150  EFAC  F008         	goto	i2l3755
  8146   001154                     i2u236_40:
  8147   001154  EFFD  F008         	goto	i2l1463
  8148   001158                     i2l3755:
  8149   001158  EE20 F003          	lfsr	2,3
  8150   00115C  500B               	movf	i2memset@s^0,w,c
  8151   00115E  26D9               	addwf	fsr2l,f,c
  8152   001160  500C               	movf	(i2memset@s+1)^0,w,c
  8153   001162  22DA               	addwfc	fsr2h,f,c
  8154   001164  C003  FFDF         	movff	i2memset@c,indf2
  8155   001168  5005               	movf	i2memset@n^0,w,c
  8156   00116A  240B               	addwf	i2memset@s^0,w,c
  8157   00116C  6E07               	movwf	??i2_memset^0,c
  8158   00116E  5006               	movf	(i2memset@n+1)^0,w,c
  8159   001170  200C               	addwfc	(i2memset@s+1)^0,w,c
  8160   001172  6E08               	movwf	(??i2_memset+1)^0,c
  8161   001174  0EFC               	movlw	252
  8162   001176  2407               	addwf	??i2_memset^0,w,c
  8163   001178  6ED9               	movwf	fsr2l,c
  8164   00117A  0EFF               	movlw	255
  8165   00117C  2008               	addwfc	(??i2_memset+1)^0,w,c
  8166   00117E  6EDA               	movwf	fsr2h,c
  8167   001180  C003  FFDF         	movff	i2memset@c,indf2
  8168   001184  5006               	movf	(i2memset@n+1)^0,w,c
  8169   001186  E107               	bnz	i2u237_41
  8170   001188  0E09               	movlw	9
  8171   00118A  5C05               	subwf	i2memset@n^0,w,c
  8172   00118C  B0D8               	btfsc	status,0,c
  8173   00118E  EFCB  F008         	goto	i2u237_41
  8174   001192  EFCD  F008         	goto	i2u237_40
  8175   001196                     i2u237_41:
  8176   001196  EFCF  F008         	goto	i2l3761
  8177   00119A                     i2u237_40:
  8178   00119A  EFFD  F008         	goto	i2l1463
  8179   00119E                     i2l3761:
  8180   00119E  C00B  F007         	movff	i2memset@s,??i2_memset
  8181   0011A2  C00C  F008         	movff	i2memset@s+1,??i2_memset+1
  8182   0011A6  1E07               	comf	??i2_memset^0,f,c
  8183   0011A8  1E08               	comf	(??i2_memset+1)^0,f,c
  8184   0011AA  4A07               	infsnz	??i2_memset^0,f,c
  8185   0011AC  2A08               	incf	(??i2_memset+1)^0,f,c
  8186   0011AE  0E03               	movlw	3
  8187   0011B0  1407               	andwf	??i2_memset^0,w,c
  8188   0011B2  6E09               	movwf	i2memset@k^0,c
  8189   0011B4  6A0A               	clrf	(i2memset@k+1)^0,c
  8190   0011B6  5009               	movf	i2memset@k^0,w,c
  8191   0011B8  260B               	addwf	i2memset@s^0,f,c
  8192   0011BA  500A               	movf	(i2memset@k+1)^0,w,c
  8193   0011BC  220C               	addwfc	(i2memset@s+1)^0,f,c
  8194   0011BE  5009               	movf	i2memset@k^0,w,c
  8195   0011C0  5E05               	subwf	i2memset@n^0,f,c
  8196   0011C2  500A               	movf	(i2memset@k+1)^0,w,c
  8197   0011C4  5A06               	subwfb	(i2memset@n+1)^0,f,c
  8198   0011C6  0EFC               	movlw	252
  8199   0011C8  1605               	andwf	i2memset@n^0,f,c
  8200   0011CA  0EFF               	movlw	255
  8201   0011CC  1606               	andwf	(i2memset@n+1)^0,f,c
  8202   0011CE  EFF4  F008         	goto	i2l3769
  8203   0011D2                     i2l3763:
  8204   0011D2  C00B  FFD9         	movff	i2memset@s,fsr2l
  8205   0011D6  C00C  FFDA         	movff	i2memset@s+1,fsr2h
  8206   0011DA  C003  FFDF         	movff	i2memset@c,indf2
  8207   0011DE  0605               	decf	i2memset@n^0,f,c
  8208   0011E0  A0D8               	btfss	status,0,c
  8209   0011E2  0606               	decf	(i2memset@n+1)^0,f,c
  8210   0011E4  4A0B               	infsnz	i2memset@s^0,f,c
  8211   0011E6  2A0C               	incf	(i2memset@s+1)^0,f,c
  8212   0011E8                     i2l3769:
  8213   0011E8  5005               	movf	i2memset@n^0,w,c
  8214   0011EA  1006               	iorwf	(i2memset@n+1)^0,w,c
  8215   0011EC  A4D8               	btfss	status,2,c
  8216   0011EE  EFFB  F008         	goto	i2u238_41
  8217   0011F2  EFFD  F008         	goto	i2u238_40
  8218   0011F6                     i2u238_41:
  8219   0011F6  EFE9  F008         	goto	i2l3763
  8220   0011FA                     i2u238_40:
  8221   0011FA                     i2l1463:
  8222   0011FA  0012               	return		;funcret
  8223   0011FC                     __end_ofi2_memset:
  8224                           	callstack 0
  8225                           
  8226 ;; *************** function _USBStdGetStatusHandler *****************
  8227 ;; Defined at:
  8228 ;;		line 2133 in file "usb_device.c"
  8229 ;; Parameters:    Size  Location     Type
  8230 ;;		None
  8231 ;; Auto vars:     Size  Location     Type
  8232 ;;  p               2    2[COMRAM] PTR struct __BDT
  8233 ;;		 -> RAM(2047), BDT(32), NULL(0), 
  8234 ;; Return value:  Size  Location     Type
  8235 ;;                  1    wreg      void 
  8236 ;; Registers used:
  8237 ;;		wreg, fsr2l, fsr2h, status,2, status,0, prodl, prodh
  8238 ;; Tracked objects:
  8239 ;;		On entry : 0/0
  8240 ;;		On exit  : 0/0
  8241 ;;		Unchanged: 0/0
  8242 ;; Data sizes:     COMRAM   BANK0   BANK1   BANK2   BANK3   BANK4   BANK5   BANK6   BANK7
  8243 ;;      Params:         0       0       0       0       0       0       0       0       0
  8244 ;;      Locals:         2       0       0       0       0       0       0       0       0
  8245 ;;      Temps:          2       0       0       0       0       0       0       0       0
  8246 ;;      Totals:         4       0       0       0       0       0       0       0       0
  8247 ;;Total ram usage:        4 bytes
  8248 ;; Hardware stack levels used: 1
  8249 ;; This function calls:
  8250 ;;		Nothing
  8251 ;; This function is called by:
  8252 ;;		_USBCheckStdRequest
  8253 ;; This function uses a non-reentrant model
  8254 ;;
  8255                           
  8256                           	psect	text43
  8257   001DD2                     __ptext43:
  8258                           	callstack 0
  8259   001DD2                     _USBStdGetStatusHandler:
  8260                           	callstack 16
  8261   001DD2                     
  8262                           ;usb_device.c: 2135:     CtrlTrfData[0] = 0;
  8263   001DD2  0E00               	movlw	0
  8264   001DD4  0104               	movlb	4	; () banked
  8265   001DD6  6F28               	movwf	40,b	;volatile
  8266                           
  8267                           ;usb_device.c: 2136:     CtrlTrfData[1] = 0;
  8268   001DD8  0E00               	movlw	0
  8269   001DDA  6F29               	movwf	41,b	;volatile
  8270                           
  8271                           ;usb_device.c: 2138:     switch(SetupPkt.Recipient)
  8272   001DDC  EF50  F00F         	goto	i2l3925
  8273   001DE0                     i2l521:
  8274                           
  8275                           ; BSR set to: 4
  8276                           ;usb_device.c: 2141:             inPipes[0].info.bits.busy = 1;
  8277   001DE0  0100               	movlb	0	; () banked
  8278   001DE2  8FDC               	bsf	(_inPipes+3)& (0+255),7,b
  8279   001DE4                     
  8280                           ; BSR set to: 0
  8281                           ;usb_device.c: 2151:             if(RemoteWakeup == 1)
  8282   001DE4  0442               	decf	_RemoteWakeup^0,w,c
  8283   001DE6  A4D8               	btfss	status,2,c
  8284   001DE8  EFF8  F00E         	goto	i2u253_41
  8285   001DEC  EFFA  F00E         	goto	i2u253_40
  8286   001DF0                     i2u253_41:
  8287   001DF0  EF6A  F00F         	goto	i2l524
  8288   001DF4                     i2u253_40:
  8289   001DF4                     
  8290                           ; BSR set to: 0
  8291                           ;usb_device.c: 2152:             {;usb_device.c: 2153:                 CtrlTrfData[0]|=0
      +                          x02;
  8292   001DF4  0104               	movlb	4	; () banked
  8293   001DF6  8328               	bsf	40,1,b	;volatile
  8294   001DF8  EF6A  F00F         	goto	i2l524
  8295   001DFC                     i2l525:
  8296                           
  8297                           ; BSR set to: 4
  8298                           ;usb_device.c: 2157:             inPipes[0].info.bits.busy = 1;
  8299   001DFC  0100               	movlb	0	; () banked
  8300   001DFE  8FDC               	bsf	(_inPipes+3)& (0+255),7,b
  8301                           
  8302                           ;usb_device.c: 2158:             break;
  8303   001E00  EF6A  F00F         	goto	i2l524
  8304   001E04                     i2l526:
  8305                           
  8306                           ; BSR set to: 4
  8307                           ;usb_device.c: 2160:             inPipes[0].info.bits.busy = 1;
  8308   001E04  0100               	movlb	0	; () banked
  8309   001E06  8FDC               	bsf	(_inPipes+3)& (0+255),7,b
  8310   001E08                     
  8311                           ; BSR set to: 0
  8312                           ;usb_device.c: 2164:             if(SetupPkt.EPNum != 0)
  8313   001E08  0104               	movlb	4	; () banked
  8314   001E0A  5124               	movf	36,w,b	;volatile
  8315   001E0C  0B0F               	andlw	15
  8316   001E0E  0900               	iorlw	0
  8317   001E10  B4D8               	btfsc	status,2,c
  8318   001E12  EF0D  F00F         	goto	i2u254_41
  8319   001E16  EF0F  F00F         	goto	i2u254_40
  8320   001E1A                     i2u254_41:
  8321   001E1A  EF6A  F00F         	goto	i2l524
  8322   001E1E                     i2u254_40:
  8323   001E1E                     
  8324                           ; BSR set to: 4
  8325                           ;usb_device.c: 2165:             {;usb_device.c: 2166:                 BDT_ENTRY *p;;usb
      +                          _device.c: 2168:                 if(SetupPkt.EPDir == 0)
  8326   001E1E  BF24               	btfsc	36,7,b	;volatile
  8327   001E20  EF14  F00F         	goto	i2u255_41
  8328   001E24  EF16  F00F         	goto	i2u255_40
  8329   001E28                     i2u255_41:
  8330   001E28  EF27  F00F         	goto	i2l3915
  8331   001E2C                     i2u255_40:
  8332   001E2C                     
  8333                           ; BSR set to: 4
  8334                           ;usb_device.c: 2169:                 {;usb_device.c: 2170:                     p = (BDT_
      +                          ENTRY*)pBDTEntryOut[SetupPkt.EPNum];
  8335   001E2C  5124               	movf	36,w,b	;volatile
  8336   001E2E  0B0F               	andlw	15
  8337   001E30  6E01               	movwf	??_USBStdGetStatusHandler^0,c
  8338   001E32  5001               	movf	??_USBStdGetStatusHandler^0,w,c
  8339   001E34  0D02               	mullw	2
  8340   001E36  0EE7               	movlw	low _pBDTEntryOut
  8341   001E38  24F3               	addwf	243,w,c
  8342   001E3A  6ED9               	movwf	fsr2l,c
  8343   001E3C  0E00               	movlw	high _pBDTEntryOut
  8344   001E3E  20F4               	addwfc	prodh,w,c
  8345   001E40  6EDA               	movwf	fsr2h,c
  8346   001E42  CFDE F003          	movff	postinc2,USBStdGetStatusHandler@p
  8347   001E46  CFDD F004          	movff	postdec2,USBStdGetStatusHandler@p+1
  8348                           
  8349                           ;usb_device.c: 2171:                 }
  8350   001E4A  EF36  F00F         	goto	i2l3917
  8351   001E4E                     i2l3915:
  8352                           
  8353                           ; BSR set to: 4
  8354                           ;usb_device.c: 2173:                 {;usb_device.c: 2174:                     p = (BDT_
      +                          ENTRY*)pBDTEntryIn[SetupPkt.EPNum];
  8355   001E4E  5124               	movf	36,w,b	;volatile
  8356   001E50  0B0F               	andlw	15
  8357   001E52  6E01               	movwf	??_USBStdGetStatusHandler^0,c
  8358   001E54  5001               	movf	??_USBStdGetStatusHandler^0,w,c
  8359   001E56  0D02               	mullw	2
  8360   001E58  0EE3               	movlw	low _pBDTEntryIn
  8361   001E5A  24F3               	addwf	243,w,c
  8362   001E5C  6ED9               	movwf	fsr2l,c
  8363   001E5E  0E00               	movlw	high _pBDTEntryIn
  8364   001E60  20F4               	addwfc	prodh,w,c
  8365   001E62  6EDA               	movwf	fsr2h,c
  8366   001E64  CFDE F003          	movff	postinc2,USBStdGetStatusHandler@p
  8367   001E68  CFDD F004          	movff	postdec2,USBStdGetStatusHandler@p+1
  8368   001E6C                     i2l3917:
  8369                           
  8370                           ; BSR set to: 4
  8371                           ;usb_device.c: 2177:                 if((p->STAT.UOWN == 1) && (p->STAT.BSTALL == 1))
  8372   001E6C  C003  FFD9         	movff	USBStdGetStatusHandler@p,fsr2l
  8373   001E70  C004  FFDA         	movff	USBStdGetStatusHandler@p+1,fsr2h
  8374   001E74  AEDF               	btfss	indf2,7,c
  8375   001E76  EF3F  F00F         	goto	i2u256_41
  8376   001E7A  EF41  F00F         	goto	i2u256_40
  8377   001E7E                     i2u256_41:
  8378   001E7E  EF6A  F00F         	goto	i2l524
  8379   001E82                     i2u256_40:
  8380   001E82                     
  8381                           ; BSR set to: 4
  8382   001E82  C003  FFD9         	movff	USBStdGetStatusHandler@p,fsr2l
  8383   001E86  C004  FFDA         	movff	USBStdGetStatusHandler@p+1,fsr2h
  8384   001E8A  A4DF               	btfss	indf2,2,c
  8385   001E8C  EF4A  F00F         	goto	i2u257_41
  8386   001E90  EF4C  F00F         	goto	i2u257_40
  8387   001E94                     i2u257_41:
  8388   001E94  EF6A  F00F         	goto	i2l524
  8389   001E98                     i2u257_40:
  8390   001E98                     
  8391                           ; BSR set to: 4
  8392                           ;usb_device.c: 2178:                 {;usb_device.c: 2179:                     CtrlTrfDa
      +                          ta[0]=0x01;
  8393   001E98  0E01               	movlw	1
  8394   001E9A  6F28               	movwf	40,b	;volatile
  8395   001E9C  EF6A  F00F         	goto	i2l524
  8396   001EA0                     i2l3925:
  8397                           
  8398                           ; BSR set to: 4
  8399   001EA0  5120               	movf	32,w,b	;volatile
  8400   001EA2  0B1F               	andlw	31
  8401   001EA4  6E01               	movwf	??_USBStdGetStatusHandler^0,c
  8402   001EA6  6A02               	clrf	(??_USBStdGetStatusHandler+1)^0,c
  8403                           
  8404                           ; Switch on 2 bytes has been partitioned into a top level switch of size 1, and 1 sub-sw
      +                          itches
  8405                           ; Switch size 1, requested type "simple"
  8406                           ; Number of cases is 1, Range of values is 0 to 0
  8407                           ; switch strategies available:
  8408                           ; Name         Instructions Cycles
  8409                           ; simple_byte            4     3 (average)
  8410                           ;	Chosen strategy is simple_byte
  8411   001EA8  5002               	movf	(??_USBStdGetStatusHandler+1)^0,w,c
  8412   001EAA  0A00               	xorlw	0	; case 0
  8413   001EAC  B4D8               	btfsc	status,2,c
  8414   001EAE  EF5B  F00F         	goto	i2l6187
  8415   001EB2  EF6A  F00F         	goto	i2l524
  8416   001EB6                     i2l6187:
  8417                           
  8418                           ; BSR set to: 4
  8419                           ; Switch size 1, requested type "simple"
  8420                           ; Number of cases is 3, Range of values is 0 to 2
  8421                           ; switch strategies available:
  8422                           ; Name         Instructions Cycles
  8423                           ; simple_byte           10     6 (average)
  8424                           ;	Chosen strategy is simple_byte
  8425   001EB6  5001               	movf	??_USBStdGetStatusHandler^0,w,c
  8426   001EB8  0A00               	xorlw	0	; case 0
  8427   001EBA  B4D8               	btfsc	status,2,c
  8428   001EBC  EFF0  F00E         	goto	i2l521
  8429   001EC0  0A01               	xorlw	1	; case 1
  8430   001EC2  B4D8               	btfsc	status,2,c
  8431   001EC4  EFFE  F00E         	goto	i2l525
  8432   001EC8  0A03               	xorlw	3	; case 2
  8433   001ECA  B4D8               	btfsc	status,2,c
  8434   001ECC  EF02  F00F         	goto	i2l526
  8435   001ED0  EF6A  F00F         	goto	i2l524
  8436   001ED4                     i2l524:
  8437                           
  8438                           ;usb_device.c: 2185:     if(inPipes[0].info.bits.busy == 1)
  8439   001ED4  0100               	movlb	0	; () banked
  8440   001ED6  AFDC               	btfss	(_inPipes+3)& (0+255),7,b
  8441   001ED8  EF70  F00F         	goto	i2u258_41
  8442   001EDC  EF72  F00F         	goto	i2u258_40
  8443   001EE0                     i2u258_41:
  8444   001EE0  EF79  F00F         	goto	i2l532
  8445   001EE4                     i2u258_40:
  8446   001EE4                     
  8447                           ; BSR set to: 0
  8448                           ;usb_device.c: 2186:     {;usb_device.c: 2187:         inPipes[0].pSrc.bRam = (uint8_t*)
      +                          &CtrlTrfData;
  8449   001EE4  0E28               	movlw	40
  8450   001EE6  6FD9               	movwf	_inPipes& (0+255),b
  8451   001EE8  0E04               	movlw	4
  8452   001EEA  6FDA               	movwf	(_inPipes+1)& (0+255),b
  8453   001EEC                     
  8454                           ; BSR set to: 0
  8455                           ;usb_device.c: 2188:         inPipes[0].info.bits.ctrl_trf_mem = 0x01;
  8456   001EEC  81DC               	bsf	(_inPipes+3)& (0+255),0,b
  8457   001EEE                     
  8458                           ; BSR set to: 0
  8459                           ;usb_device.c: 2189:         inPipes[0].wCount.v[0] = 2;
  8460   001EEE  0E02               	movlw	2
  8461   001EF0  6FDD               	movwf	(_inPipes+4)& (0+255),b
  8462   001EF2                     i2l532:
  8463                           
  8464                           ; BSR set to: 0
  8465   001EF2  0012               	return		;funcret
  8466   001EF4                     __end_of_USBStdGetStatusHandler:
  8467                           	callstack 0
  8468                           
  8469 ;; *************** function _USBStdGetDscHandler *****************
  8470 ;; Defined at:
  8471 ;;		line 2047 in file "usb_device.c"
  8472 ;; Parameters:    Size  Location     Type
  8473 ;;		None
  8474 ;; Auto vars:     Size  Location     Type
  8475 ;;		None
  8476 ;; Return value:  Size  Location     Type
  8477 ;;                  1    wreg      void 
  8478 ;; Registers used:
  8479 ;;		wreg, fsr1l, fsr1h, status,2, status,0, tblptrl, tblptrh, tblptru, prodl, prodh
  8480 ;; Tracked objects:
  8481 ;;		On entry : 0/0
  8482 ;;		On exit  : 0/0
  8483 ;;		Unchanged: 0/0
  8484 ;; Data sizes:     COMRAM   BANK0   BANK1   BANK2   BANK3   BANK4   BANK5   BANK6   BANK7
  8485 ;;      Params:         0       0       0       0       0       0       0       0       0
  8486 ;;      Locals:         0       0       0       0       0       0       0       0       0
  8487 ;;      Temps:          2       0       0       0       0       0       0       0       0
  8488 ;;      Totals:         2       0       0       0       0       0       0       0       0
  8489 ;;Total ram usage:        2 bytes
  8490 ;; Hardware stack levels used: 1
  8491 ;; This function calls:
  8492 ;;		Nothing
  8493 ;; This function is called by:
  8494 ;;		_USBCheckStdRequest
  8495 ;; This function uses a non-reentrant model
  8496 ;;
  8497                           
  8498                           	psect	text44
  8499   0014D0                     __ptext44:
  8500                           	callstack 0
  8501   0014D0                     _USBStdGetDscHandler:
  8502                           	callstack 16
  8503   0014D0                     
  8504                           ;usb_device.c: 2049:     if(SetupPkt.bmRequestType == 0x80)
  8505   0014D0  0E80               	movlw	128
  8506   0014D2  0104               	movlb	4	; () banked
  8507   0014D4  1920               	xorwf	32,w,b	;volatile
  8508   0014D6  A4D8               	btfss	status,2,c
  8509   0014D8  EF70  F00A         	goto	i2u247_41
  8510   0014DC  EF72  F00A         	goto	i2u247_40
  8511   0014E0                     i2u247_41:
  8512   0014E0  EF17  F00B         	goto	i2l517
  8513   0014E4                     i2u247_40:
  8514   0014E4                     
  8515                           ; BSR set to: 4
  8516                           ;usb_device.c: 2050:     {;usb_device.c: 2051:         inPipes[0].info.Val = 0x00 | 0x80
      +                           | 0x40;
  8517   0014E4  0EC0               	movlw	192
  8518   0014E6  0100               	movlb	0	; () banked
  8519   0014E8  6FDC               	movwf	(_inPipes+3)& (0+255),b
  8520                           
  8521                           ;usb_device.c: 2053:         switch(SetupPkt.bDescriptorType)
  8522   0014EA  EFFD  F00A         	goto	i2l3895
  8523   0014EE                     i2l3869:
  8524                           
  8525                           ; BSR set to: 4
  8526                           ;usb_device.c: 2059:                     inPipes[0].pSrc.bRom = (const uint8_t*)&device_
      +                          dsc;
  8527   0014EE  0E0D               	movlw	low _device_dsc
  8528   0014F0  0100               	movlb	0	; () banked
  8529   0014F2  6FD9               	movwf	_inPipes& (0+255),b
  8530   0014F4  0E7C               	movlw	high _device_dsc
  8531   0014F6  6FDA               	movwf	(_inPipes+1)& (0+255),b
  8532   0014F8                     
  8533                           ; BSR set to: 0
  8534                           ;usb_device.c: 2061:                 inPipes[0].wCount.Val = sizeof(device_dsc);
  8535   0014F8  0E00               	movlw	0
  8536   0014FA  6FDE               	movwf	(_inPipes+5)& (0+255),b
  8537   0014FC  0E12               	movlw	18
  8538   0014FE  6FDD               	movwf	(_inPipes+4)& (0+255),b
  8539                           
  8540                           ;usb_device.c: 2062:                 break;
  8541   001500  EF17  F00B         	goto	i2l517
  8542   001504                     i2l3873:
  8543                           
  8544                           ; BSR set to: 4
  8545                           ;usb_device.c: 2067:                 if(SetupPkt.bDscIndex < 1)
  8546   001504  5122               	movf	34,w,b	;volatile
  8547   001506  A4D8               	btfss	status,2,c
  8548   001508  EF88  F00A         	goto	i2u248_41
  8549   00150C  EF8A  F00A         	goto	i2u248_40
  8550   001510                     i2u248_41:
  8551   001510  EFCB  F00A         	goto	i2l3881
  8552   001514                     i2u248_40:
  8553   001514                     
  8554                           ; BSR set to: 4
  8555                           ;usb_device.c: 2068:                 {;usb_device.c: 2072:                         inPip
      +                          es[0].pSrc.bRom = *(USB_CD_Ptr+SetupPkt.bDscIndex);
  8556   001514  5122               	movf	34,w,b	;volatile
  8557   001516  0D02               	mullw	2
  8558   001518  0E63               	movlw	low _USB_CD_Ptr
  8559   00151A  24F3               	addwf	243,w,c
  8560   00151C  6EF6               	movwf	tblptrl,c
  8561   00151E  0E7B               	movlw	high _USB_CD_Ptr
  8562   001520  20F4               	addwfc	244,w,c
  8563   001522  6EF7               	movwf	tblptrh,c
  8564   001524                     	if	0	;There are less than 3 active tblptr bytes
  8565   001524                     	endif
  8566   001524  0009               	tblrd		*+
  8567   001526  CFF5 F0D9          	movff	tablat,_inPipes
  8568   00152A  000A               	tblrd		*-
  8569   00152C  CFF5 F0DA          	movff	tablat,_inPipes+1
  8570   001530                     
  8571                           ; BSR set to: 4
  8572                           ;usb_device.c: 2078:                     inPipes[0].wCount.byte.LB = *(inPipes[0].pSrc.b
      +                          Rom+2);
  8573   001530  0E02               	movlw	2
  8574   001532  0100               	movlb	0	; () banked
  8575   001534  25D9               	addwf	_inPipes& (0+255),w,b
  8576   001536  6E01               	movwf	??_USBStdGetDscHandler^0,c
  8577   001538  0E00               	movlw	0
  8578   00153A  21DA               	addwfc	(_inPipes+1)& (0+255),w,b
  8579   00153C  6E02               	movwf	(??_USBStdGetDscHandler+1)^0,c
  8580   00153E  C001  FFF6         	movff	??_USBStdGetDscHandler,tblptrl
  8581   001542  C002  FFF7         	movff	??_USBStdGetDscHandler+1,tblptrh
  8582   001546  6AF8               	clrf	tblptru,c
  8583   001548  0E07               	movlw	(high __ramtop+-1)
  8584   00154A  64F7               	cpfsgt	tblptrh,c
  8585   00154C  D003               	bra	i2u249_47
  8586   00154E  0008               	tblrd		*
  8587   001550  50F5               	movf	tablat,w,c
  8588   001552  D005               	bra	i2u249_40
  8589   001554                     i2u249_47:
  8590   001554  CFF6 FFE1          	movff	tblptrl,fsr1l
  8591   001558  CFF7 FFE2          	movff	tblptrh,fsr1h
  8592   00155C  50E7               	movf	indf1,w,c
  8593   00155E                     i2u249_40:
  8594   00155E  0100               	movlb	0	; () banked
  8595   001560  6FDD               	movwf	(_inPipes+4)& (0+255),b
  8596   001562                     
  8597                           ; BSR set to: 0
  8598                           ;usb_device.c: 2079:                     inPipes[0].wCount.byte.HB = *(inPipes[0].pSrc.b
      +                          Rom+3);
  8599   001562  0E03               	movlw	3
  8600   001564  25D9               	addwf	_inPipes& (0+255),w,b
  8601   001566  6E01               	movwf	??_USBStdGetDscHandler^0,c
  8602   001568  0E00               	movlw	0
  8603   00156A  21DA               	addwfc	(_inPipes+1)& (0+255),w,b
  8604   00156C  6E02               	movwf	(??_USBStdGetDscHandler+1)^0,c
  8605   00156E  C001  FFF6         	movff	??_USBStdGetDscHandler,tblptrl
  8606   001572  C002  FFF7         	movff	??_USBStdGetDscHandler+1,tblptrh
  8607   001576  6AF8               	clrf	tblptru,c
  8608   001578  0E07               	movlw	(high __ramtop+-1)
  8609   00157A  64F7               	cpfsgt	tblptrh,c
  8610   00157C  D003               	bra	i2u250_47
  8611   00157E  0008               	tblrd		*
  8612   001580  50F5               	movf	tablat,w,c
  8613   001582  D005               	bra	i2u250_40
  8614   001584                     i2u250_47:
  8615   001584  CFF6 FFE1          	movff	tblptrl,fsr1l
  8616   001588  CFF7 FFE2          	movff	tblptrh,fsr1h
  8617   00158C  50E7               	movf	indf1,w,c
  8618   00158E                     i2u250_40:
  8619   00158E  0100               	movlb	0	; () banked
  8620   001590  6FDE               	movwf	(_inPipes+5)& (0+255),b
  8621                           
  8622                           ;usb_device.c: 2080:                 }
  8623   001592  EF17  F00B         	goto	i2l517
  8624   001596                     i2l3881:
  8625                           
  8626                           ; BSR set to: 4
  8627                           ;usb_device.c: 2082:     {;usb_device.c: 2083:      inPipes[0].info.Val = 0;
  8628   001596  0E00               	movlw	0
  8629   001598  0100               	movlb	0	; () banked
  8630   00159A  6FDC               	movwf	(_inPipes+3)& (0+255),b
  8631   00159C  EF17  F00B         	goto	i2l517
  8632   0015A0                     i2l3883:
  8633                           
  8634                           ; BSR set to: 4
  8635                           ;usb_device.c: 2090:                 if(SetupPkt.bDscIndex<3)
  8636   0015A0  0E03               	movlw	3
  8637   0015A2  6122               	cpfslt	34,b	;volatile
  8638   0015A4  EFD6  F00A         	goto	i2u251_41
  8639   0015A8  EFD8  F00A         	goto	i2u251_40
  8640   0015AC                     i2u251_41:
  8641   0015AC  EFCB  F00A         	goto	i2l3881
  8642   0015B0                     i2u251_40:
  8643   0015B0                     
  8644                           ; BSR set to: 4
  8645                           ;usb_device.c: 2091:                 {;usb_device.c: 2093:                     inPipes[0
      +                          ].pSrc.bRom = *(USB_SD_Ptr+SetupPkt.bDscIndex);
  8646   0015B0  5122               	movf	34,w,b	;volatile
  8647   0015B2  0D02               	mullw	2
  8648   0015B4  0E5D               	movlw	low _USB_SD_Ptr
  8649   0015B6  24F3               	addwf	243,w,c
  8650   0015B8  6EF6               	movwf	tblptrl,c
  8651   0015BA  0E7B               	movlw	high _USB_SD_Ptr
  8652   0015BC  20F4               	addwfc	244,w,c
  8653   0015BE  6EF7               	movwf	tblptrh,c
  8654   0015C0                     	if	0	;There are less than 3 active tblptr bytes
  8655   0015C0                     	endif
  8656   0015C0  0009               	tblrd		*+
  8657   0015C2  CFF5 F0D9          	movff	tablat,_inPipes
  8658   0015C6  000A               	tblrd		*-
  8659   0015C8  CFF5 F0DA          	movff	tablat,_inPipes+1
  8660   0015CC                     
  8661                           ; BSR set to: 4
  8662                           ;usb_device.c: 2095:                     inPipes[0].wCount.Val = *inPipes[0].pSrc.bRom;
  8663   0015CC  C0D9  FFF6         	movff	_inPipes,tblptrl
  8664   0015D0  C0DA  FFF7         	movff	_inPipes+1,tblptrh
  8665   0015D4  6AF8               	clrf	tblptru,c
  8666   0015D6  0E07               	movlw	(high __ramtop+-1)
  8667   0015D8  64F7               	cpfsgt	tblptrh,c
  8668   0015DA  D003               	bra	i2u252_47
  8669   0015DC  0008               	tblrd		*
  8670   0015DE  50F5               	movf	tablat,w,c
  8671   0015E0  D005               	bra	i2u252_40
  8672   0015E2                     i2u252_47:
  8673   0015E2  CFF6 FFE1          	movff	tblptrl,fsr1l
  8674   0015E6  CFF7 FFE2          	movff	tblptrh,fsr1h
  8675   0015EA  50E7               	movf	indf1,w,c
  8676   0015EC                     i2u252_40:
  8677   0015EC  6E01               	movwf	??_USBStdGetDscHandler^0,c
  8678   0015EE  5001               	movf	??_USBStdGetDscHandler^0,w,c
  8679   0015F0  0100               	movlb	0	; () banked
  8680   0015F2  6FDD               	movwf	(_inPipes+4)& (0+255),b
  8681   0015F4  6BDE               	clrf	(_inPipes+5)& (0+255),b
  8682                           
  8683                           ;usb_device.c: 2096:                 }
  8684   0015F6  EF17  F00B         	goto	i2l517
  8685   0015FA                     i2l3895:
  8686                           
  8687                           ; BSR set to: 0
  8688   0015FA  0104               	movlb	4	; () banked
  8689   0015FC  5123               	movf	35,w,b	;volatile
  8690   0015FE  6E01               	movwf	??_USBStdGetDscHandler^0,c
  8691   001600  6A02               	clrf	(??_USBStdGetDscHandler+1)^0,c
  8692                           
  8693                           ; Switch on 2 bytes has been partitioned into a top level switch of size 1, and 1 sub-sw
      +                          itches
  8694                           ; Switch size 1, requested type "simple"
  8695                           ; Number of cases is 1, Range of values is 0 to 0
  8696                           ; switch strategies available:
  8697                           ; Name         Instructions Cycles
  8698                           ; simple_byte            4     3 (average)
  8699                           ;	Chosen strategy is simple_byte
  8700   001602  5002               	movf	(??_USBStdGetDscHandler+1)^0,w,c
  8701   001604  0A00               	xorlw	0	; case 0
  8702   001606  B4D8               	btfsc	status,2,c
  8703   001608  EF08  F00B         	goto	i2l6189
  8704   00160C  EFCB  F00A         	goto	i2l3881
  8705   001610                     i2l6189:
  8706                           
  8707                           ; BSR set to: 4
  8708                           ; Switch size 1, requested type "simple"
  8709                           ; Number of cases is 3, Range of values is 1 to 3
  8710                           ; switch strategies available:
  8711                           ; Name         Instructions Cycles
  8712                           ; simple_byte           10     6 (average)
  8713                           ;	Chosen strategy is simple_byte
  8714   001610  5001               	movf	??_USBStdGetDscHandler^0,w,c
  8715   001612  0A01               	xorlw	1	; case 1
  8716   001614  B4D8               	btfsc	status,2,c
  8717   001616  EF77  F00A         	goto	i2l3869
  8718   00161A  0A03               	xorlw	3	; case 2
  8719   00161C  B4D8               	btfsc	status,2,c
  8720   00161E  EF82  F00A         	goto	i2l3873
  8721   001622  0A01               	xorlw	1	; case 3
  8722   001624  B4D8               	btfsc	status,2,c
  8723   001626  EFD0  F00A         	goto	i2l3883
  8724   00162A  EFCB  F00A         	goto	i2l3881
  8725   00162E                     i2l517:
  8726   00162E  0012               	return		;funcret
  8727   001630                     __end_of_USBStdGetDscHandler:
  8728                           	callstack 0
  8729                           
  8730 ;; *************** function _USBStdFeatureReqHandler *****************
  8731 ;; Defined at:
  8732 ;;		line 2761 in file "usb_device.c"
  8733 ;; Parameters:    Size  Location     Type
  8734 ;;		None
  8735 ;; Auto vars:     Size  Location     Type
  8736 ;;  p               2   27[COMRAM] PTR struct __BDT
  8737 ;;		 -> RAM(2047), BDT(32), NULL(0), 
  8738 ;;  pUEP            2   24[COMRAM] PTR unsigned char 
  8739 ;;		 -> UEP0(1), 
  8740 ;;  current_ep_d    1   26[COMRAM] struct .
  8741 ;; Return value:  Size  Location     Type
  8742 ;;                  1    wreg      void 
  8743 ;; Registers used:
  8744 ;;		wreg, fsr2l, fsr2h, status,2, status,0, prodl, prodh, cstack
  8745 ;; Tracked objects:
  8746 ;;		On entry : 0/0
  8747 ;;		On exit  : 0/0
  8748 ;;		Unchanged: 0/0
  8749 ;; Data sizes:     COMRAM   BANK0   BANK1   BANK2   BANK3   BANK4   BANK5   BANK6   BANK7
  8750 ;;      Params:         0       0       0       0       0       0       0       0       0
  8751 ;;      Locals:         5       0       0       0       0       0       0       0       0
  8752 ;;      Temps:          2       0       0       0       0       0       0       0       0
  8753 ;;      Totals:         7       0       0       0       0       0       0       0       0
  8754 ;;Total ram usage:        7 bytes
  8755 ;; Hardware stack levels used: 1
  8756 ;; Hardware stack levels required when called: 4
  8757 ;; This function calls:
  8758 ;;		_USER_USB_CALLBACK_EVENT_HANDLER
  8759 ;; This function is called by:
  8760 ;;		_USBCheckStdRequest
  8761 ;; This function uses a non-reentrant model
  8762 ;;
  8763                           
  8764                           	psect	text45
  8765   0005E8                     __ptext45:
  8766                           	callstack 0
  8767   0005E8                     _USBStdFeatureReqHandler:
  8768                           	callstack 12
  8769   0005E8                     
  8770                           ;usb_device.c: 2763:     BDT_ENTRY *p;;usb_device.c: 2764:     EP_STATUS current_ep_data
      +                          ;;usb_device.c: 2768:         unsigned char* pUEP;;usb_device.c: 2772:     if((SetupPkt.
      +                          bFeature == 1)&&
  8771   0005E8  0104               	movlb	4	; () banked
  8772   0005EA  0522               	decf	34,w,b	;volatile
  8773   0005EC  A4D8               	btfss	status,2,c
  8774   0005EE  EFFB  F002         	goto	i2u259_41
  8775   0005F2  EFFD  F002         	goto	i2u259_40
  8776   0005F6                     i2u259_41:
  8777   0005F6  EF19  F003         	goto	i2l599
  8778   0005FA                     i2u259_40:
  8779   0005FA                     
  8780                           ; BSR set to: 4
  8781   0005FA  5120               	movf	32,w,b	;volatile
  8782   0005FC  0B1F               	andlw	31
  8783   0005FE  0900               	iorlw	0
  8784   000600  A4D8               	btfss	status,2,c
  8785   000602  EF05  F003         	goto	i2u260_41
  8786   000606  EF07  F003         	goto	i2u260_40
  8787   00060A                     i2u260_41:
  8788   00060A  EF19  F003         	goto	i2l599
  8789   00060E                     i2u260_40:
  8790   00060E                     
  8791                           ; BSR set to: 4
  8792                           ;usb_device.c: 2774:     {;usb_device.c: 2775:         inPipes[0].info.bits.busy = 1;
  8793   00060E  0100               	movlb	0	; () banked
  8794   000610  8FDC               	bsf	(_inPipes+3)& (0+255),7,b
  8795   000612                     
  8796                           ; BSR set to: 0
  8797                           ;usb_device.c: 2776:         if(SetupPkt.bRequest == 3)
  8798   000612  0E03               	movlw	3
  8799   000614  0104               	movlb	4	; () banked
  8800   000616  1921               	xorwf	33,w,b	;volatile
  8801   000618  A4D8               	btfss	status,2,c
  8802   00061A  EF11  F003         	goto	i2u261_41
  8803   00061E  EF13  F003         	goto	i2u261_40
  8804   000622                     i2u261_41:
  8805   000622  EF17  F003         	goto	i2l3947
  8806   000626                     i2u261_40:
  8807   000626                     
  8808                           ; BSR set to: 4
  8809                           ;usb_device.c: 2777:             RemoteWakeup = 1;
  8810   000626  0E01               	movlw	1
  8811   000628  6E42               	movwf	_RemoteWakeup^0,c
  8812   00062A  EF19  F003         	goto	i2l599
  8813   00062E                     i2l3947:
  8814                           
  8815                           ; BSR set to: 4
  8816                           ;usb_device.c: 2779:             RemoteWakeup = 0;
  8817   00062E  0E00               	movlw	0
  8818   000630  6E42               	movwf	_RemoteWakeup^0,c
  8819   000632                     i2l599:
  8820                           
  8821                           ; BSR set to: 4
  8822                           ;usb_device.c: 2783:     if((SetupPkt.bFeature == 0)&&
  8823   000632  5122               	movf	34,w,b	;volatile
  8824   000634  A4D8               	btfss	status,2,c
  8825   000636  EF1F  F003         	goto	i2u262_41
  8826   00063A  EF21  F003         	goto	i2u262_40
  8827   00063E                     i2u262_41:
  8828   00063E  EFA2  F004         	goto	i2l622
  8829   000642                     i2u262_40:
  8830   000642                     
  8831                           ; BSR set to: 4
  8832   000642  5120               	movf	32,w,b	;volatile
  8833   000644  0B1F               	andlw	31
  8834   000646  0A02               	xorlw	2
  8835   000648  A4D8               	btfss	status,2,c
  8836   00064A  EF29  F003         	goto	i2u263_41
  8837   00064E  EF2B  F003         	goto	i2u263_40
  8838   000652                     i2u263_41:
  8839   000652  EFA2  F004         	goto	i2l622
  8840   000656                     i2u263_40:
  8841   000656                     
  8842                           ; BSR set to: 4
  8843   000656  5124               	movf	36,w,b	;volatile
  8844   000658  0B0F               	andlw	15
  8845   00065A  0900               	iorlw	0
  8846   00065C  B4D8               	btfsc	status,2,c
  8847   00065E  EF33  F003         	goto	i2u264_41
  8848   000662  EF35  F003         	goto	i2u264_40
  8849   000666                     i2u264_41:
  8850   000666  EFA2  F004         	goto	i2l622
  8851   00066A                     i2u264_40:
  8852   00066A                     
  8853                           ; BSR set to: 4
  8854   00066A  5124               	movf	36,w,b	;volatile
  8855   00066C  0B0F               	andlw	15
  8856   00066E  6E17               	movwf	??_USBStdFeatureReqHandler^0,c
  8857   000670  0E02               	movlw	2
  8858   000672  6017               	cpfslt	??_USBStdFeatureReqHandler^0,c
  8859   000674  EF3E  F003         	goto	i2u265_41
  8860   000678  EF40  F003         	goto	i2u265_40
  8861   00067C                     i2u265_41:
  8862   00067C  EFA2  F004         	goto	i2l622
  8863   000680                     i2u265_40:
  8864   000680                     
  8865                           ; BSR set to: 4
  8866   000680  0E20               	movlw	32
  8867   000682  0101               	movlb	1	; () banked
  8868   000684  1974               	xorwf	_USBDeviceState& (0+255),w,b
  8869   000686  A4D8               	btfss	status,2,c
  8870   000688  EF48  F003         	goto	i2u266_41
  8871   00068C  EF4A  F003         	goto	i2u266_40
  8872   000690                     i2u266_41:
  8873   000690  EFA2  F004         	goto	i2l622
  8874   000694                     i2u266_40:
  8875   000694                     
  8876                           ; BSR set to: 1
  8877                           ;usb_device.c: 2787:     {;usb_device.c: 2790:   inPipes[0].info.bits.busy = 1;
  8878   000694  0100               	movlb	0	; () banked
  8879   000696  8FDC               	bsf	(_inPipes+3)& (0+255),7,b
  8880                           
  8881                           ;usb_device.c: 2793:         if(SetupPkt.EPDir == 0)
  8882   000698  0104               	movlb	4	; () banked
  8883   00069A  BF24               	btfsc	36,7,b	;volatile
  8884   00069C  EF52  F003         	goto	i2u267_41
  8885   0006A0  EF54  F003         	goto	i2u267_40
  8886   0006A4                     i2u267_41:
  8887   0006A4  EF71  F003         	goto	i2l3963
  8888   0006A8                     i2u267_40:
  8889   0006A8                     
  8890                           ; BSR set to: 4
  8891                           ;usb_device.c: 2794:         {;usb_device.c: 2795:             p = (BDT_ENTRY*)pBDTEntry
      +                          Out[SetupPkt.EPNum];
  8892   0006A8  5124               	movf	36,w,b	;volatile
  8893   0006AA  0B0F               	andlw	15
  8894   0006AC  6E17               	movwf	??_USBStdFeatureReqHandler^0,c
  8895   0006AE  5017               	movf	??_USBStdFeatureReqHandler^0,w,c
  8896   0006B0  0D02               	mullw	2
  8897   0006B2  0EE7               	movlw	low _pBDTEntryOut
  8898   0006B4  24F3               	addwf	243,w,c
  8899   0006B6  6ED9               	movwf	fsr2l,c
  8900   0006B8  0E00               	movlw	high _pBDTEntryOut
  8901   0006BA  20F4               	addwfc	prodh,w,c
  8902   0006BC  6EDA               	movwf	fsr2h,c
  8903   0006BE  CFDE F01C          	movff	postinc2,USBStdFeatureReqHandler@p
  8904   0006C2  CFDD F01D          	movff	postdec2,USBStdFeatureReqHandler@p+1
  8905   0006C6                     
  8906                           ; BSR set to: 4
  8907                           ;usb_device.c: 2796:             current_ep_data.Val = ep_data_out[SetupPkt.EPNum].Val;
  8908   0006C6  5124               	movf	36,w,b	;volatile
  8909   0006C8  0B0F               	andlw	15
  8910   0006CA  6E17               	movwf	??_USBStdFeatureReqHandler^0,c
  8911   0006CC  6A18               	clrf	(??_USBStdFeatureReqHandler+1)^0,c
  8912   0006CE  0EEF               	movlw	low _ep_data_out
  8913   0006D0  2417               	addwf	??_USBStdFeatureReqHandler^0,w,c
  8914   0006D2  6ED9               	movwf	fsr2l,c
  8915   0006D4  0E00               	movlw	high _ep_data_out
  8916   0006D6  2018               	addwfc	(??_USBStdFeatureReqHandler+1)^0,w,c
  8917   0006D8  6EDA               	movwf	fsr2h,c
  8918   0006DA  50DF               	movf	indf2,w,c
  8919   0006DC  6E1B               	movwf	USBStdFeatureReqHandler@current_ep_data^0,c
  8920                           
  8921                           ;usb_device.c: 2797:         }
  8922   0006DE  EF8C  F003         	goto	i2l3967
  8923   0006E2                     i2l3963:
  8924                           
  8925                           ; BSR set to: 4
  8926                           ;usb_device.c: 2799:         {;usb_device.c: 2800:             p = (BDT_ENTRY*)pBDTEntry
      +                          In[SetupPkt.EPNum];
  8927   0006E2  5124               	movf	36,w,b	;volatile
  8928   0006E4  0B0F               	andlw	15
  8929   0006E6  6E17               	movwf	??_USBStdFeatureReqHandler^0,c
  8930   0006E8  5017               	movf	??_USBStdFeatureReqHandler^0,w,c
  8931   0006EA  0D02               	mullw	2
  8932   0006EC  0EE3               	movlw	low _pBDTEntryIn
  8933   0006EE  24F3               	addwf	243,w,c
  8934   0006F0  6ED9               	movwf	fsr2l,c
  8935   0006F2  0E00               	movlw	high _pBDTEntryIn
  8936   0006F4  20F4               	addwfc	prodh,w,c
  8937   0006F6  6EDA               	movwf	fsr2h,c
  8938   0006F8  CFDE F01C          	movff	postinc2,USBStdFeatureReqHandler@p
  8939   0006FC  CFDD F01D          	movff	postdec2,USBStdFeatureReqHandler@p+1
  8940   000700                     
  8941                           ; BSR set to: 4
  8942                           ;usb_device.c: 2801:             current_ep_data.Val = ep_data_in[SetupPkt.EPNum].Val;
  8943   000700  5124               	movf	36,w,b	;volatile
  8944   000702  0B0F               	andlw	15
  8945   000704  6E17               	movwf	??_USBStdFeatureReqHandler^0,c
  8946   000706  6A18               	clrf	(??_USBStdFeatureReqHandler+1)^0,c
  8947   000708  0EF1               	movlw	low _ep_data_in
  8948   00070A  2417               	addwf	??_USBStdFeatureReqHandler^0,w,c
  8949   00070C  6ED9               	movwf	fsr2l,c
  8950   00070E  0E00               	movlw	high _ep_data_in
  8951   000710  2018               	addwfc	(??_USBStdFeatureReqHandler+1)^0,w,c
  8952   000712  6EDA               	movwf	fsr2h,c
  8953   000714  50DF               	movf	indf2,w,c
  8954   000716  6E1B               	movwf	USBStdFeatureReqHandler@current_ep_data^0,c
  8955   000718                     i2l3967:
  8956                           
  8957                           ; BSR set to: 4
  8958                           ;usb_device.c: 2808:             if(current_ep_data.bits.ping_pong_state == 0)
  8959   000718  B01B               	btfsc	USBStdFeatureReqHandler@current_ep_data^0,0,c
  8960   00071A  EF91  F003         	goto	i2u268_41
  8961   00071E  EF93  F003         	goto	i2u268_40
  8962   000722                     i2u268_41:
  8963   000722  EF9B  F003         	goto	i2l3971
  8964   000726                     i2u268_40:
  8965   000726                     
  8966                           ; BSR set to: 4
  8967                           ;usb_device.c: 2809:             {;usb_device.c: 2810:                 p = (BDT_ENTRY*)(
      +                          ((uint16_t)p) & (~0x0004));
  8968   000726  0EFB               	movlw	251
  8969   000728  141C               	andwf	USBStdFeatureReqHandler@p^0,w,c
  8970   00072A  6E1C               	movwf	USBStdFeatureReqHandler@p^0,c
  8971   00072C  0EFF               	movlw	255
  8972   00072E  141D               	andwf	(USBStdFeatureReqHandler@p+1)^0,w,c
  8973   000730  6E1D               	movwf	(USBStdFeatureReqHandler@p+1)^0,c
  8974                           
  8975                           ;usb_device.c: 2811:             }
  8976   000732  EFA0  F003         	goto	i2l3973
  8977   000736                     i2l3971:
  8978                           
  8979                           ; BSR set to: 4
  8980                           ;usb_device.c: 2813:             {;usb_device.c: 2814:                 p = (BDT_ENTRY*)(
      +                          ((uint16_t)p) | 0x0004);
  8981   000736  0E04               	movlw	4
  8982   000738  101C               	iorwf	USBStdFeatureReqHandler@p^0,w,c
  8983   00073A  6E1C               	movwf	USBStdFeatureReqHandler@p^0,c
  8984   00073C  501D               	movf	(USBStdFeatureReqHandler@p+1)^0,w,c
  8985   00073E  6E1D               	movwf	(USBStdFeatureReqHandler@p+1)^0,c
  8986   000740                     i2l3973:
  8987                           
  8988                           ; BSR set to: 4
  8989                           ;usb_device.c: 2820:         if(SetupPkt.EPDir == 0)
  8990   000740  BF24               	btfsc	36,7,b	;volatile
  8991   000742  EFA5  F003         	goto	i2u269_41
  8992   000746  EFA7  F003         	goto	i2u269_40
  8993   00074A                     i2u269_41:
  8994   00074A  EFB8  F003         	goto	i2l3977
  8995   00074E                     i2u269_40:
  8996   00074E                     
  8997                           ; BSR set to: 4
  8998                           ;usb_device.c: 2821:         {;usb_device.c: 2822:             pBDTEntryOut[SetupPkt.EPN
      +                          um] = (volatile BDT_ENTRY *)p;
  8999   00074E  5124               	movf	36,w,b	;volatile
  9000   000750  0B0F               	andlw	15
  9001   000752  6E17               	movwf	??_USBStdFeatureReqHandler^0,c
  9002   000754  5017               	movf	??_USBStdFeatureReqHandler^0,w,c
  9003   000756  0D02               	mullw	2
  9004   000758  0EE7               	movlw	low _pBDTEntryOut
  9005   00075A  24F3               	addwf	243,w,c
  9006   00075C  6ED9               	movwf	fsr2l,c
  9007   00075E  0E00               	movlw	high _pBDTEntryOut
  9008   000760  20F4               	addwfc	prodh,w,c
  9009   000762  6EDA               	movwf	fsr2h,c
  9010   000764  C01C  FFDE         	movff	USBStdFeatureReqHandler@p,postinc2
  9011   000768  C01D  FFDD         	movff	USBStdFeatureReqHandler@p+1,postdec2
  9012                           
  9013                           ;usb_device.c: 2823:         }
  9014   00076C  EFC7  F003         	goto	i2l3979
  9015   000770                     i2l3977:
  9016                           
  9017                           ; BSR set to: 4
  9018                           ;usb_device.c: 2825:         {;usb_device.c: 2826:             pBDTEntryIn[SetupPkt.EPNu
      +                          m] = (volatile BDT_ENTRY *)p;
  9019   000770  5124               	movf	36,w,b	;volatile
  9020   000772  0B0F               	andlw	15
  9021   000774  6E17               	movwf	??_USBStdFeatureReqHandler^0,c
  9022   000776  5017               	movf	??_USBStdFeatureReqHandler^0,w,c
  9023   000778  0D02               	mullw	2
  9024   00077A  0EE3               	movlw	low _pBDTEntryIn
  9025   00077C  24F3               	addwf	243,w,c
  9026   00077E  6ED9               	movwf	fsr2l,c
  9027   000780  0E00               	movlw	high _pBDTEntryIn
  9028   000782  20F4               	addwfc	prodh,w,c
  9029   000784  6EDA               	movwf	fsr2h,c
  9030   000786  C01C  FFDE         	movff	USBStdFeatureReqHandler@p,postinc2
  9031   00078A  C01D  FFDD         	movff	USBStdFeatureReqHandler@p+1,postdec2
  9032   00078E                     i2l3979:
  9033                           
  9034                           ; BSR set to: 4
  9035                           ;usb_device.c: 2830:         if(SetupPkt.bRequest == 3)
  9036   00078E  0E03               	movlw	3
  9037   000790  1921               	xorwf	33,w,b	;volatile
  9038   000792  A4D8               	btfss	status,2,c
  9039   000794  EFCE  F003         	goto	i2u270_41
  9040   000798  EFD0  F003         	goto	i2u270_40
  9041   00079C                     i2u270_41:
  9042   00079C  EF0A  F004         	goto	i2l3989
  9043   0007A0                     i2u270_40:
  9044   0007A0                     
  9045                           ; BSR set to: 4
  9046                           ;usb_device.c: 2831:         {;usb_device.c: 2832:             if(p->STAT.UOWN == 1)
  9047   0007A0  C01C  FFD9         	movff	USBStdFeatureReqHandler@p,fsr2l
  9048   0007A4  C01D  FFDA         	movff	USBStdFeatureReqHandler@p+1,fsr2h
  9049   0007A8  AEDF               	btfss	indf2,7,c
  9050   0007AA  EFD9  F003         	goto	i2u271_41
  9051   0007AE  EFDB  F003         	goto	i2u271_40
  9052   0007B2                     i2u271_41:
  9053   0007B2  EFFC  F003         	goto	i2l610
  9054   0007B6                     i2u271_40:
  9055   0007B6                     
  9056                           ; BSR set to: 4
  9057                           ;usb_device.c: 2833:             {;usb_device.c: 2836:                 if(SetupPkt.EPDir
      +                           == 0)
  9058   0007B6  BF24               	btfsc	36,7,b	;volatile
  9059   0007B8  EFE0  F003         	goto	i2u272_41
  9060   0007BC  EFE2  F003         	goto	i2u272_40
  9061   0007C0                     i2u272_41:
  9062   0007C0  EFF0  F003         	goto	i2l3987
  9063   0007C4                     i2u272_40:
  9064   0007C4                     
  9065                           ; BSR set to: 4
  9066                           ;usb_device.c: 2837:                 {;usb_device.c: 2838:                     ep_data_o
      +                          ut[SetupPkt.EPNum].bits.transfer_terminated = 1;
  9067   0007C4  5124               	movf	36,w,b	;volatile
  9068   0007C6  0B0F               	andlw	15
  9069   0007C8  6E17               	movwf	??_USBStdFeatureReqHandler^0,c
  9070   0007CA  6A18               	clrf	(??_USBStdFeatureReqHandler+1)^0,c
  9071   0007CC  0EEF               	movlw	low _ep_data_out
  9072   0007CE  2417               	addwf	??_USBStdFeatureReqHandler^0,w,c
  9073   0007D0  6ED9               	movwf	fsr2l,c
  9074   0007D2  0E00               	movlw	high _ep_data_out
  9075   0007D4  2018               	addwfc	(??_USBStdFeatureReqHandler+1)^0,w,c
  9076   0007D6  6EDA               	movwf	fsr2h,c
  9077   0007D8  0100               	movlb	0	; () banked
  9078   0007DA  82DF               	bsf	indf2,1,c
  9079                           
  9080                           ;usb_device.c: 2839:                 }
  9081   0007DC  EFFC  F003         	goto	i2l610
  9082   0007E0                     i2l3987:
  9083                           
  9084                           ; BSR set to: 4
  9085                           ;usb_device.c: 2841:                 {;usb_device.c: 2842:                     ep_data_i
      +                          n[SetupPkt.EPNum].bits.transfer_terminated = 1;
  9086   0007E0  5124               	movf	36,w,b	;volatile
  9087   0007E2  0B0F               	andlw	15
  9088   0007E4  6E17               	movwf	??_USBStdFeatureReqHandler^0,c
  9089   0007E6  6A18               	clrf	(??_USBStdFeatureReqHandler+1)^0,c
  9090   0007E8  0EF1               	movlw	low _ep_data_in
  9091   0007EA  2417               	addwf	??_USBStdFeatureReqHandler^0,w,c
  9092   0007EC  6ED9               	movwf	fsr2l,c
  9093   0007EE  0E00               	movlw	high _ep_data_in
  9094   0007F0  2018               	addwfc	(??_USBStdFeatureReqHandler+1)^0,w,c
  9095   0007F2  6EDA               	movwf	fsr2h,c
  9096   0007F4  0100               	movlb	0	; () banked
  9097   0007F6  82DF               	bsf	indf2,1,c
  9098   0007F8                     i2l610:
  9099                           
  9100                           ;usb_device.c: 2847:             p->STAT.Val |= 0x04;
  9101   0007F8  C01C  FFD9         	movff	USBStdFeatureReqHandler@p,fsr2l
  9102   0007FC  C01D  FFDA         	movff	USBStdFeatureReqHandler@p+1,fsr2h
  9103   000800  0E00               	movlw	0
  9104   000802  84DB               	bsf	plusw2,2,c
  9105                           
  9106                           ;usb_device.c: 2848:             p->STAT.Val |= 0x80;
  9107   000804  C01C  FFD9         	movff	USBStdFeatureReqHandler@p,fsr2l
  9108   000808  C01D  FFDA         	movff	USBStdFeatureReqHandler@p+1,fsr2h
  9109   00080C  0E00               	movlw	0
  9110   00080E  8EDB               	bsf	plusw2,7,c
  9111                           
  9112                           ;usb_device.c: 2849:         }
  9113   000810  EFA2  F004         	goto	i2l622
  9114   000814                     i2l3989:
  9115                           
  9116                           ; BSR set to: 4
  9117                           ;usb_device.c: 2851:         {;usb_device.c: 2855:                 p = (BDT_ENTRY*)(((ui
      +                          nt16_t)p) ^ 0x0004);
  9118   000814  0E04               	movlw	4
  9119   000816  181C               	xorwf	USBStdFeatureReqHandler@p^0,w,c
  9120   000818  6E1C               	movwf	USBStdFeatureReqHandler@p^0,c
  9121   00081A  501D               	movf	(USBStdFeatureReqHandler@p+1)^0,w,c
  9122   00081C  6E1D               	movwf	(USBStdFeatureReqHandler@p+1)^0,c
  9123   00081E                     
  9124                           ; BSR set to: 4
  9125                           ;usb_device.c: 2857:                 if(p->STAT.UOWN == 1)
  9126   00081E  C01C  FFD9         	movff	USBStdFeatureReqHandler@p,fsr2l
  9127   000822  C01D  FFDA         	movff	USBStdFeatureReqHandler@p+1,fsr2h
  9128   000826  AEDF               	btfss	indf2,7,c
  9129   000828  EF18  F004         	goto	i2u273_41
  9130   00082C  EF1A  F004         	goto	i2u273_40
  9131   000830                     i2u273_41:
  9132   000830  EF36  F004         	goto	i2l3999
  9133   000834                     i2u273_40:
  9134   000834                     
  9135                           ; BSR set to: 4
  9136                           ;usb_device.c: 2858:                 {;usb_device.c: 2861:                     p->STAT.V
      +                          al &= (~0x80);
  9137   000834  C01C  FFD9         	movff	USBStdFeatureReqHandler@p,fsr2l
  9138   000838  C01D  FFDA         	movff	USBStdFeatureReqHandler@p+1,fsr2h
  9139   00083C  0E7F               	movlw	127
  9140   00083E  16DF               	andwf	indf2,f,c
  9141   000840                     
  9142                           ; BSR set to: 4
  9143                           ;usb_device.c: 2862:                     p->STAT.Val |= 0x40;
  9144   000840  C01C  FFD9         	movff	USBStdFeatureReqHandler@p,fsr2l
  9145   000844  C01D  FFDA         	movff	USBStdFeatureReqHandler@p+1,fsr2h
  9146   000848  0E00               	movlw	0
  9147   00084A  8CDB               	bsf	plusw2,6,c
  9148   00084C                     
  9149                           ; BSR set to: 4
  9150                           ;usb_device.c: 2863:                     USER_USB_CALLBACK_EVENT_HANDLER((USB_EVENT)EVEN
      +                          T_TRANSFER_TERMINATED,p,sizeof(p));
  9151   00084C  0E00               	movlw	0
  9152   00084E  6E10               	movwf	(USER_USB_CALLBACK_EVENT_HANDLER@event+1)^0,c
  9153   000850  0E05               	movlw	5
  9154   000852  6E0F               	movwf	USER_USB_CALLBACK_EVENT_HANDLER@event^0,c
  9155   000854  C01C  F011         	movff	USBStdFeatureReqHandler@p,USER_USB_CALLBACK_EVENT_HANDLER@pdata
  9156   000858  C01D  F012         	movff	USBStdFeatureReqHandler@p+1,USER_USB_CALLBACK_EVENT_HANDLER@pdata+1
  9157   00085C  0E00               	movlw	0
  9158   00085E  6E14               	movwf	(USER_USB_CALLBACK_EVENT_HANDLER@size+1)^0,c
  9159   000860  0E02               	movlw	2
  9160   000862  6E13               	movwf	USER_USB_CALLBACK_EVENT_HANDLER@size^0,c
  9161   000864  ECDB  F014         	call	_USER_USB_CALLBACK_EVENT_HANDLER	;wreg free
  9162                           
  9163                           ;usb_device.c: 2864:                 }
  9164   000868  EF3C  F004         	goto	i2l4001
  9165   00086C                     i2l3999:
  9166                           
  9167                           ; BSR set to: 4
  9168                           ;usb_device.c: 2866:                 {;usb_device.c: 2868:      p->STAT.Val |= 0x40;
  9169   00086C  C01C  FFD9         	movff	USBStdFeatureReqHandler@p,fsr2l
  9170   000870  C01D  FFDA         	movff	USBStdFeatureReqHandler@p+1,fsr2h
  9171   000874  0E00               	movlw	0
  9172   000876  8CDB               	bsf	plusw2,6,c
  9173   000878                     i2l4001:
  9174                           
  9175                           ;usb_device.c: 2873:                 p = (BDT_ENTRY*)(((uint16_t)p) ^ 0x0004);
  9176   000878  0E04               	movlw	4
  9177   00087A  181C               	xorwf	USBStdFeatureReqHandler@p^0,w,c
  9178   00087C  6E1C               	movwf	USBStdFeatureReqHandler@p^0,c
  9179   00087E  501D               	movf	(USBStdFeatureReqHandler@p+1)^0,w,c
  9180   000880  6E1D               	movwf	(USBStdFeatureReqHandler@p+1)^0,c
  9181   000882                     
  9182                           ;usb_device.c: 2879:                 if((current_ep_data.bits.transfer_terminated != 0) 
      +                          || (p->STAT.UOWN == 1))
  9183   000882  B21B               	btfsc	USBStdFeatureReqHandler@current_ep_data^0,1,c
  9184   000884  EF46  F004         	goto	i2u274_41
  9185   000888  EF48  F004         	goto	i2u274_40
  9186   00088C                     i2u274_41:
  9187   00088C  EF53  F004         	goto	i2l618
  9188   000890                     i2u274_40:
  9189   000890  C01C  FFD9         	movff	USBStdFeatureReqHandler@p,fsr2l
  9190   000894  C01D  FFDA         	movff	USBStdFeatureReqHandler@p+1,fsr2h
  9191   000898  AEDF               	btfss	indf2,7,c
  9192   00089A  EF51  F004         	goto	i2u275_41
  9193   00089E  EF53  F004         	goto	i2u275_40
  9194   0008A2                     i2u275_41:
  9195   0008A2  EF8B  F004         	goto	i2l4015
  9196   0008A6                     i2u275_40:
  9197   0008A6                     i2l618:
  9198                           
  9199                           ;usb_device.c: 2880:                 {;usb_device.c: 2881:                     if(SetupP
      +                          kt.EPDir == 0)
  9200   0008A6  0104               	movlb	4	; () banked
  9201   0008A8  BF24               	btfsc	36,7,b	;volatile
  9202   0008AA  EF59  F004         	goto	i2u276_41
  9203   0008AE  EF5B  F004         	goto	i2u276_40
  9204   0008B2                     i2u276_41:
  9205   0008B2  EF69  F004         	goto	i2l4009
  9206   0008B6                     i2u276_40:
  9207   0008B6                     
  9208                           ; BSR set to: 4
  9209                           ;usb_device.c: 2882:                     {;usb_device.c: 2883:                         e
      +                          p_data_out[SetupPkt.EPNum].bits.transfer_terminated = 0;
  9210   0008B6  5124               	movf	36,w,b	;volatile
  9211   0008B8  0B0F               	andlw	15
  9212   0008BA  6E17               	movwf	??_USBStdFeatureReqHandler^0,c
  9213   0008BC  6A18               	clrf	(??_USBStdFeatureReqHandler+1)^0,c
  9214   0008BE  0EEF               	movlw	low _ep_data_out
  9215   0008C0  2417               	addwf	??_USBStdFeatureReqHandler^0,w,c
  9216   0008C2  6ED9               	movwf	fsr2l,c
  9217   0008C4  0E00               	movlw	high _ep_data_out
  9218   0008C6  2018               	addwfc	(??_USBStdFeatureReqHandler+1)^0,w,c
  9219   0008C8  6EDA               	movwf	fsr2h,c
  9220   0008CA  0100               	movlb	0	; () banked
  9221   0008CC  92DF               	bcf	indf2,1,c
  9222                           
  9223                           ;usb_device.c: 2884:                     }
  9224   0008CE  EF75  F004         	goto	i2l4011
  9225   0008D2                     i2l4009:
  9226                           
  9227                           ; BSR set to: 4
  9228                           ;usb_device.c: 2886:                     {;usb_device.c: 2887:                         e
      +                          p_data_in[SetupPkt.EPNum].bits.transfer_terminated = 0;
  9229   0008D2  5124               	movf	36,w,b	;volatile
  9230   0008D4  0B0F               	andlw	15
  9231   0008D6  6E17               	movwf	??_USBStdFeatureReqHandler^0,c
  9232   0008D8  6A18               	clrf	(??_USBStdFeatureReqHandler+1)^0,c
  9233   0008DA  0EF1               	movlw	low _ep_data_in
  9234   0008DC  2417               	addwf	??_USBStdFeatureReqHandler^0,w,c
  9235   0008DE  6ED9               	movwf	fsr2l,c
  9236   0008E0  0E00               	movlw	high _ep_data_in
  9237   0008E2  2018               	addwfc	(??_USBStdFeatureReqHandler+1)^0,w,c
  9238   0008E4  6EDA               	movwf	fsr2h,c
  9239   0008E6  0100               	movlb	0	; () banked
  9240   0008E8  92DF               	bcf	indf2,1,c
  9241   0008EA                     i2l4011:
  9242                           
  9243                           ; BSR set to: 0
  9244                           ;usb_device.c: 2890:                     p->STAT.Val &= ~(0x80 | 0x40 | 0x04);
  9245   0008EA  C01C  FFD9         	movff	USBStdFeatureReqHandler@p,fsr2l
  9246   0008EE  C01D  FFDA         	movff	USBStdFeatureReqHandler@p+1,fsr2h
  9247   0008F2  0E3B               	movlw	59
  9248   0008F4  16DF               	andwf	indf2,f,c
  9249   0008F6                     
  9250                           ; BSR set to: 0
  9251                           ;usb_device.c: 2893:                     USER_USB_CALLBACK_EVENT_HANDLER((USB_EVENT)EVEN
      +                          T_TRANSFER_TERMINATED,p,sizeof(p));
  9252   0008F6  0E00               	movlw	0
  9253   0008F8  6E10               	movwf	(USER_USB_CALLBACK_EVENT_HANDLER@event+1)^0,c
  9254   0008FA  0E05               	movlw	5
  9255   0008FC  6E0F               	movwf	USER_USB_CALLBACK_EVENT_HANDLER@event^0,c
  9256   0008FE  C01C  F011         	movff	USBStdFeatureReqHandler@p,USER_USB_CALLBACK_EVENT_HANDLER@pdata
  9257   000902  C01D  F012         	movff	USBStdFeatureReqHandler@p+1,USER_USB_CALLBACK_EVENT_HANDLER@pdata+1
  9258   000906  0E00               	movlw	0
  9259   000908  6E14               	movwf	(USER_USB_CALLBACK_EVENT_HANDLER@size+1)^0,c
  9260   00090A  0E02               	movlw	2
  9261   00090C  6E13               	movwf	USER_USB_CALLBACK_EVENT_HANDLER@size^0,c
  9262   00090E  ECDB  F014         	call	_USER_USB_CALLBACK_EVENT_HANDLER	;wreg free
  9263                           
  9264                           ;usb_device.c: 2894:                 }
  9265   000912  EF91  F004         	goto	i2l4017
  9266   000916                     i2l4015:
  9267                           
  9268                           ;usb_device.c: 2896:                 {;usb_device.c: 2898:                     p->STAT.V
      +                          al &= ~(0x80 | 0x40 | 0x04);
  9269   000916  C01C  FFD9         	movff	USBStdFeatureReqHandler@p,fsr2l
  9270   00091A  C01D  FFDA         	movff	USBStdFeatureReqHandler@p+1,fsr2h
  9271   00091E  0E3B               	movlw	59
  9272   000920  16DF               	andwf	indf2,f,c
  9273   000922                     i2l4017:
  9274                           
  9275                           ;usb_device.c: 2946:                 pUEP = (unsigned char*)(&UEP0+SetupPkt.EPNum);
  9276   000922  0104               	movlb	4	; () banked
  9277   000924  5124               	movf	36,w,b	;volatile
  9278   000926  0B0F               	andlw	15
  9279   000928  6E17               	movwf	??_USBStdFeatureReqHandler^0,c
  9280   00092A  6A18               	clrf	(??_USBStdFeatureReqHandler+1)^0,c
  9281   00092C  0E70               	movlw	112
  9282   00092E  2417               	addwf	??_USBStdFeatureReqHandler^0,w,c
  9283   000930  6E19               	movwf	USBStdFeatureReqHandler@pUEP^0,c
  9284   000932  0E0F               	movlw	15
  9285   000934  2018               	addwfc	(??_USBStdFeatureReqHandler+1)^0,w,c
  9286   000936  6E1A               	movwf	(USBStdFeatureReqHandler@pUEP+1)^0,c
  9287   000938                     
  9288                           ; BSR set to: 4
  9289                           ;usb_device.c: 2950:             *pUEP &= ~0x0001;
  9290   000938  C019  FFD9         	movff	USBStdFeatureReqHandler@pUEP,fsr2l
  9291   00093C  C01A  FFDA         	movff	USBStdFeatureReqHandler@pUEP+1,fsr2h
  9292   000940  0EFE               	movlw	254
  9293   000942  16DF               	andwf	indf2,f,c
  9294   000944                     i2l622:
  9295   000944  0012               	return		;funcret
  9296   000946                     __end_of_USBStdFeatureReqHandler:
  9297                           	callstack 0
  9298                           
  9299 ;; *************** function _USER_USB_CALLBACK_EVENT_HANDLER *****************
  9300 ;; Defined at:
  9301 ;;		line 437 in file "main.c"
  9302 ;; Parameters:    Size  Location     Type
  9303 ;;  event           2   14[COMRAM] enum E46
  9304 ;;  pdata           2   16[COMRAM] PTR void 
  9305 ;;		 -> RAM(2047), USTATcopy(1), USBActiveConfiguration(1), BDT(32), 
  9306 ;;		 -> NULL(0), 
  9307 ;;  size            2   18[COMRAM] unsigned short 
  9308 ;; Auto vars:     Size  Location     Type
  9309 ;;		None
  9310 ;; Return value:  Size  Location     Type
  9311 ;;                  1    wreg      _Bool 
  9312 ;; Registers used:
  9313 ;;		wreg, fsr2l, fsr2h, status,2, status,0, prodl, prodh, cstack
  9314 ;; Tracked objects:
  9315 ;;		On entry : 0/0
  9316 ;;		On exit  : 0/0
  9317 ;;		Unchanged: 0/0
  9318 ;; Data sizes:     COMRAM   BANK0   BANK1   BANK2   BANK3   BANK4   BANK5   BANK6   BANK7
  9319 ;;      Params:         6       0       0       0       0       0       0       0       0
  9320 ;;      Locals:         0       0       0       0       0       0       0       0       0
  9321 ;;      Temps:          2       0       0       0       0       0       0       0       0
  9322 ;;      Totals:         8       0       0       0       0       0       0       0       0
  9323 ;;Total ram usage:        8 bytes
  9324 ;; Hardware stack levels used: 1
  9325 ;; Hardware stack levels required when called: 3
  9326 ;; This function calls:
  9327 ;;		_USBCBCheckOtherReq
  9328 ;;		_USBCBErrorHandler
  9329 ;;		_USBCBInitEP
  9330 ;;		_USBCBStdSetDscHandler
  9331 ;;		_USBCBSuspend
  9332 ;;		_USBCBWakeFromSuspend
  9333 ;;		_USBCB_SOF_Handler
  9334 ;; This function is called by:
  9335 ;;		_USBDeviceTasks
  9336 ;;		_USBStdSetCfgHandler
  9337 ;;		_USBSuspend
  9338 ;;		_USBWakeFromSuspend
  9339 ;;		_USBCtrlTrfSetupHandler
  9340 ;;		_USBCheckStdRequest
  9341 ;;		_USBStdFeatureReqHandler
  9342 ;; This function uses a non-reentrant model
  9343 ;;
  9344                           
  9345                           	psect	text46
  9346   0029B6                     __ptext46:
  9347                           	callstack 0
  9348   0029B6                     _USER_USB_CALLBACK_EVENT_HANDLER:
  9349                           	callstack 16
  9350   0029B6  EFFC  F014         	goto	i2l3677
  9351   0029BA                     i2l3661:
  9352   0029BA  EC58  F018         	call	_USBCBInitEP	;wreg free
  9353   0029BE  EF31  F015         	goto	i2l231
  9354   0029C2                     i2l3663:
  9355   0029C2  ECAC  F018         	call	_USBCBStdSetDscHandler	;wreg free
  9356   0029C6  EF31  F015         	goto	i2l231
  9357   0029CA                     i2l3665:
  9358   0029CA  ECA5  F018         	call	_USBCBCheckOtherReq	;wreg free
  9359   0029CE  EF31  F015         	goto	i2l231
  9360   0029D2                     i2l3667:
  9361   0029D2  ECA9  F018         	call	_USBCB_SOF_Handler	;wreg free
  9362   0029D6  EF31  F015         	goto	i2l231
  9363   0029DA                     i2l3669:
  9364   0029DA  ECAB  F018         	call	_USBCBSuspend	;wreg free
  9365   0029DE  EF31  F015         	goto	i2l231
  9366   0029E2                     i2l3671:
  9367   0029E2  ECAA  F018         	call	_USBCBWakeFromSuspend	;wreg free
  9368   0029E6  EF31  F015         	goto	i2l231
  9369   0029EA                     i2l3673:
  9370   0029EA  ECAD  F018         	call	_USBCBErrorHandler	;wreg free
  9371   0029EE  EF31  F015         	goto	i2l231
  9372   0029F2                     i2l229:
  9373   0029F2  F000               	nop	
  9374   0029F4  EF31  F015         	goto	i2l231
  9375   0029F8                     i2l3677:
  9376   0029F8  C00F  F015         	movff	USER_USB_CALLBACK_EVENT_HANDLER@event,??_USER_USB_CALLBACK_EVENT_HANDLER
  9377   0029FC  C010  F016         	movff	USER_USB_CALLBACK_EVENT_HANDLER@event+1,??_USER_USB_CALLBACK_EVENT_HANDLER+1
  9378                           
  9379                           ; Switch on 2 bytes has been partitioned into a top level switch of size 1, and 2 sub-sw
      +                          itches
  9380                           ; Switch size 1, requested type "simple"
  9381                           ; Number of cases is 2, Range of values is 0 to 127
  9382                           ; switch strategies available:
  9383                           ; Name         Instructions Cycles
  9384                           ; simple_byte            7     4 (average)
  9385                           ;	Chosen strategy is simple_byte
  9386   002A00  5016               	movf	(??_USER_USB_CALLBACK_EVENT_HANDLER+1)^0,w,c
  9387   002A02  0A00               	xorlw	0	; case 0
  9388   002A04  B4D8               	btfsc	status,2,c
  9389   002A06  EF0B  F015         	goto	i2l6191
  9390   002A0A  0A7F               	xorlw	127	; case 127
  9391   002A0C  B4D8               	btfsc	status,2,c
  9392   002A0E  EF2A  F015         	goto	i2l6193
  9393   002A12  EF31  F015         	goto	i2l231
  9394   002A16                     i2l6191:
  9395                           
  9396                           ; Switch size 1, requested type "simple"
  9397                           ; Number of cases is 7, Range of values is 1 to 117
  9398                           ; switch strategies available:
  9399                           ; Name         Instructions Cycles
  9400                           ; simple_byte           22    12 (average)
  9401                           ;	Chosen strategy is simple_byte
  9402   002A16  5015               	movf	??_USER_USB_CALLBACK_EVENT_HANDLER^0,w,c
  9403   002A18  0A01               	xorlw	1	; case 1
  9404   002A1A  B4D8               	btfsc	status,2,c
  9405   002A1C  EFDD  F014         	goto	i2l3661
  9406   002A20  0A03               	xorlw	3	; case 2
  9407   002A22  B4D8               	btfsc	status,2,c
  9408   002A24  EFE1  F014         	goto	i2l3663
  9409   002A28  0A01               	xorlw	1	; case 3
  9410   002A2A  B4D8               	btfsc	status,2,c
  9411   002A2C  EFE5  F014         	goto	i2l3665
  9412   002A30  0A71               	xorlw	113	; case 114
  9413   002A32  B4D8               	btfsc	status,2,c
  9414   002A34  EFF9  F014         	goto	i2l229
  9415   002A38  0A01               	xorlw	1	; case 115
  9416   002A3A  B4D8               	btfsc	status,2,c
  9417   002A3C  EFE9  F014         	goto	i2l3667
  9418   002A40  0A07               	xorlw	7	; case 116
  9419   002A42  B4D8               	btfsc	status,2,c
  9420   002A44  EFF1  F014         	goto	i2l3671
  9421   002A48  0A01               	xorlw	1	; case 117
  9422   002A4A  B4D8               	btfsc	status,2,c
  9423   002A4C  EFED  F014         	goto	i2l3669
  9424   002A50  EF31  F015         	goto	i2l231
  9425   002A54                     i2l6193:
  9426                           
  9427                           ; Switch size 1, requested type "simple"
  9428                           ; Number of cases is 1, Range of values is 255 to 255
  9429                           ; switch strategies available:
  9430                           ; Name         Instructions Cycles
  9431                           ; simple_byte            4     3 (average)
  9432                           ;	Chosen strategy is simple_byte
  9433   002A54  5015               	movf	??_USER_USB_CALLBACK_EVENT_HANDLER^0,w,c
  9434   002A56  0AFF               	xorlw	255	; case 255
  9435   002A58  B4D8               	btfsc	status,2,c
  9436   002A5A  EFF5  F014         	goto	i2l3673
  9437   002A5E  EF31  F015         	goto	i2l231
  9438   002A62                     i2l231:
  9439   002A62  0012               	return		;funcret
  9440   002A64                     __end_of_USER_USB_CALLBACK_EVENT_HANDLER:
  9441                           	callstack 0
  9442                           
  9443 ;; *************** function _USBCB_SOF_Handler *****************
  9444 ;; Defined at:
  9445 ;;		line 499 in file "main.c"
  9446 ;; Parameters:    Size  Location     Type
  9447 ;;		None
  9448 ;; Auto vars:     Size  Location     Type
  9449 ;;		None
  9450 ;; Return value:  Size  Location     Type
  9451 ;;                  1    wreg      void 
  9452 ;; Registers used:
  9453 ;;		None
  9454 ;; Tracked objects:
  9455 ;;		On entry : 0/0
  9456 ;;		On exit  : 0/0
  9457 ;;		Unchanged: 0/0
  9458 ;; Data sizes:     COMRAM   BANK0   BANK1   BANK2   BANK3   BANK4   BANK5   BANK6   BANK7
  9459 ;;      Params:         0       0       0       0       0       0       0       0       0
  9460 ;;      Locals:         0       0       0       0       0       0       0       0       0
  9461 ;;      Temps:          0       0       0       0       0       0       0       0       0
  9462 ;;      Totals:         0       0       0       0       0       0       0       0       0
  9463 ;;Total ram usage:        0 bytes
  9464 ;; Hardware stack levels used: 1
  9465 ;; This function calls:
  9466 ;;		Nothing
  9467 ;; This function is called by:
  9468 ;;		_USER_USB_CALLBACK_EVENT_HANDLER
  9469 ;; This function uses a non-reentrant model
  9470 ;;
  9471                           
  9472                           	psect	text47
  9473   003152                     __ptext47:
  9474                           	callstack 0
  9475   003152                     _USBCB_SOF_Handler:
  9476                           	callstack 18
  9477   003152  0012               	return		;funcret
  9478   003154                     __end_of_USBCB_SOF_Handler:
  9479                           	callstack 0
  9480                           
  9481 ;; *************** function _USBCBWakeFromSuspend *****************
  9482 ;; Defined at:
  9483 ;;		line 504 in file "main.c"
  9484 ;; Parameters:    Size  Location     Type
  9485 ;;		None
  9486 ;; Auto vars:     Size  Location     Type
  9487 ;;		None
  9488 ;; Return value:  Size  Location     Type
  9489 ;;                  1    wreg      void 
  9490 ;; Registers used:
  9491 ;;		None
  9492 ;; Tracked objects:
  9493 ;;		On entry : 0/0
  9494 ;;		On exit  : 0/0
  9495 ;;		Unchanged: 0/0
  9496 ;; Data sizes:     COMRAM   BANK0   BANK1   BANK2   BANK3   BANK4   BANK5   BANK6   BANK7
  9497 ;;      Params:         0       0       0       0       0       0       0       0       0
  9498 ;;      Locals:         0       0       0       0       0       0       0       0       0
  9499 ;;      Temps:          0       0       0       0       0       0       0       0       0
  9500 ;;      Totals:         0       0       0       0       0       0       0       0       0
  9501 ;;Total ram usage:        0 bytes
  9502 ;; Hardware stack levels used: 1
  9503 ;; This function calls:
  9504 ;;		Nothing
  9505 ;; This function is called by:
  9506 ;;		_USER_USB_CALLBACK_EVENT_HANDLER
  9507 ;; This function uses a non-reentrant model
  9508 ;;
  9509                           
  9510                           	psect	text48
  9511   003154                     __ptext48:
  9512                           	callstack 0
  9513   003154                     _USBCBWakeFromSuspend:
  9514                           	callstack 18
  9515   003154  0012               	return		;funcret
  9516   003156                     __end_of_USBCBWakeFromSuspend:
  9517                           	callstack 0
  9518                           
  9519 ;; *************** function _USBCBSuspend *****************
  9520 ;; Defined at:
  9521 ;;		line 511 in file "main.c"
  9522 ;; Parameters:    Size  Location     Type
  9523 ;;		None
  9524 ;; Auto vars:     Size  Location     Type
  9525 ;;		None
  9526 ;; Return value:  Size  Location     Type
  9527 ;;                  1    wreg      void 
  9528 ;; Registers used:
  9529 ;;		None
  9530 ;; Tracked objects:
  9531 ;;		On entry : 0/0
  9532 ;;		On exit  : 0/0
  9533 ;;		Unchanged: 0/0
  9534 ;; Data sizes:     COMRAM   BANK0   BANK1   BANK2   BANK3   BANK4   BANK5   BANK6   BANK7
  9535 ;;      Params:         0       0       0       0       0       0       0       0       0
  9536 ;;      Locals:         0       0       0       0       0       0       0       0       0
  9537 ;;      Temps:          0       0       0       0       0       0       0       0       0
  9538 ;;      Totals:         0       0       0       0       0       0       0       0       0
  9539 ;;Total ram usage:        0 bytes
  9540 ;; Hardware stack levels used: 1
  9541 ;; This function calls:
  9542 ;;		Nothing
  9543 ;; This function is called by:
  9544 ;;		_USER_USB_CALLBACK_EVENT_HANDLER
  9545 ;; This function uses a non-reentrant model
  9546 ;;
  9547                           
  9548                           	psect	text49
  9549   003156                     __ptext49:
  9550                           	callstack 0
  9551   003156                     _USBCBSuspend:
  9552                           	callstack 18
  9553   003156  0012               	return		;funcret
  9554   003158                     __end_of_USBCBSuspend:
  9555                           	callstack 0
  9556                           
  9557 ;; *************** function _USBCBStdSetDscHandler *****************
  9558 ;; Defined at:
  9559 ;;		line 470 in file "main.c"
  9560 ;; Parameters:    Size  Location     Type
  9561 ;;		None
  9562 ;; Auto vars:     Size  Location     Type
  9563 ;;		None
  9564 ;; Return value:  Size  Location     Type
  9565 ;;                  1    wreg      void 
  9566 ;; Registers used:
  9567 ;;		None
  9568 ;; Tracked objects:
  9569 ;;		On entry : 0/0
  9570 ;;		On exit  : 0/0
  9571 ;;		Unchanged: 0/0
  9572 ;; Data sizes:     COMRAM   BANK0   BANK1   BANK2   BANK3   BANK4   BANK5   BANK6   BANK7
  9573 ;;      Params:         0       0       0       0       0       0       0       0       0
  9574 ;;      Locals:         0       0       0       0       0       0       0       0       0
  9575 ;;      Temps:          0       0       0       0       0       0       0       0       0
  9576 ;;      Totals:         0       0       0       0       0       0       0       0       0
  9577 ;;Total ram usage:        0 bytes
  9578 ;; Hardware stack levels used: 1
  9579 ;; This function calls:
  9580 ;;		Nothing
  9581 ;; This function is called by:
  9582 ;;		_USER_USB_CALLBACK_EVENT_HANDLER
  9583 ;; This function uses a non-reentrant model
  9584 ;;
  9585                           
  9586                           	psect	text50
  9587   003158                     __ptext50:
  9588                           	callstack 0
  9589   003158                     _USBCBStdSetDscHandler:
  9590                           	callstack 18
  9591   003158  0012               	return		;funcret
  9592   00315A                     __end_of_USBCBStdSetDscHandler:
  9593                           	callstack 0
  9594                           
  9595 ;; *************** function _USBCBInitEP *****************
  9596 ;; Defined at:
  9597 ;;		line 415 in file "main.c"
  9598 ;; Parameters:    Size  Location     Type
  9599 ;;		None
  9600 ;; Auto vars:     Size  Location     Type
  9601 ;;		None
  9602 ;; Return value:  Size  Location     Type
  9603 ;;                  1    wreg      void 
  9604 ;; Registers used:
  9605 ;;		wreg, fsr2l, fsr2h, status,2, status,0, prodl, prodh, cstack
  9606 ;; Tracked objects:
  9607 ;;		On entry : 0/0
  9608 ;;		On exit  : 0/0
  9609 ;;		Unchanged: 0/0
  9610 ;; Data sizes:     COMRAM   BANK0   BANK1   BANK2   BANK3   BANK4   BANK5   BANK6   BANK7
  9611 ;;      Params:         0       0       0       0       0       0       0       0       0
  9612 ;;      Locals:         0       0       0       0       0       0       0       0       0
  9613 ;;      Temps:          0       0       0       0       0       0       0       0       0
  9614 ;;      Totals:         0       0       0       0       0       0       0       0       0
  9615 ;;Total ram usage:        0 bytes
  9616 ;; Hardware stack levels used: 1
  9617 ;; Hardware stack levels required when called: 2
  9618 ;; This function calls:
  9619 ;;		_USBEnableEndpoint
  9620 ;;		i2_USBTransferOnePacket
  9621 ;; This function is called by:
  9622 ;;		_USER_USB_CALLBACK_EVENT_HANDLER
  9623 ;; This function uses a non-reentrant model
  9624 ;;
  9625                           
  9626                           	psect	text51
  9627   0030B0                     __ptext51:
  9628                           	callstack 0
  9629   0030B0                     _USBCBInitEP:
  9630                           	callstack 16
  9631   0030B0  0E1E               	movlw	30
  9632   0030B2  6E0B               	movwf	USBEnableEndpoint@options^0,c
  9633   0030B4  0E01               	movlw	1
  9634   0030B6  EC54  F017         	call	_USBEnableEndpoint
  9635   0030BA  0E00               	movlw	0
  9636   0030BC  6E01               	movwf	i2USBTransferOnePacket@dir^0,c
  9637   0030BE  0E40               	movlw	low _ReceivedDataBuffer
  9638   0030C0  6E02               	movwf	i2USBTransferOnePacket@data^0,c
  9639   0030C2  0E02               	movlw	high _ReceivedDataBuffer
  9640   0030C4  6E03               	movwf	(i2USBTransferOnePacket@data+1)^0,c
  9641   0030C6  0E40               	movlw	64
  9642   0030C8  6E04               	movwf	i2USBTransferOnePacket@len^0,c
  9643   0030CA  0E01               	movlw	1
  9644   0030CC  EC4A  F00E         	call	i2_USBTransferOnePacket
  9645   0030D0  C001  F171         	movff	?i2_USBTransferOnePacket,_USBOutHandle
  9646   0030D4  C002  F172         	movff	?i2_USBTransferOnePacket+1,_USBOutHandle+1
  9647   0030D8  0012               	return		;funcret
  9648   0030DA                     __end_of_USBCBInitEP:
  9649                           	callstack 0
  9650                           
  9651 ;; *************** function i2_USBTransferOnePacket *****************
  9652 ;; Defined at:
  9653 ;;		line 999 in file "usb_device.c"
  9654 ;; Parameters:    Size  Location     Type
  9655 ;;  ep              1    wreg     unsigned char 
  9656 ;;  dir             1    0[COMRAM] unsigned char 
  9657 ;;  data            2    1[COMRAM] PTR unsigned char 
  9658 ;;		 -> ToSendDataBuffer(64), ReceivedDataBuffer(64), 
  9659 ;;  len             1    3[COMRAM] unsigned char 
  9660 ;; Auto vars:     Size  Location     Type
  9661 ;;  ep              1    8[COMRAM] unsigned char 
  9662 ;;  handle          2    9[COMRAM] PTR volatile struct __BD
  9663 ;;		 -> RAM(2047), BDT(32), NULL(0), 
  9664 ;; Return value:  Size  Location     Type
  9665 ;;                  2    0[COMRAM] PTR void 
  9666 ;; Registers used:
  9667 ;;		wreg, fsr2l, fsr2h, status,2, status,0, prodl, prodh
  9668 ;; Tracked objects:
  9669 ;;		On entry : 0/0
  9670 ;;		On exit  : 0/0
  9671 ;;		Unchanged: 0/0
  9672 ;; Data sizes:     COMRAM   BANK0   BANK1   BANK2   BANK3   BANK4   BANK5   BANK6   BANK7
  9673 ;;      Params:         4       0       0       0       0       0       0       0       0
  9674 ;;      Locals:         3       0       0       0       0       0       0       0       0
  9675 ;;      Temps:          4       0       0       0       0       0       0       0       0
  9676 ;;      Totals:        11       0       0       0       0       0       0       0       0
  9677 ;;Total ram usage:       11 bytes
  9678 ;; Hardware stack levels used: 1
  9679 ;; This function calls:
  9680 ;;		Nothing
  9681 ;; This function is called by:
  9682 ;;		_USBCBInitEP
  9683 ;; This function uses a non-reentrant model
  9684 ;;
  9685                           
  9686                           	psect	text52
  9687   001C94                     __ptext52:
  9688                           	callstack 0
  9689   001C94                     i2_USBTransferOnePacket:
  9690                           	callstack 17
  9691                           
  9692                           ;incstack = 0
  9693                           ;i2USBTransferOnePacket@ep stored from wreg
  9694   001C94  6E09               	movwf	i2USBTransferOnePacket@ep^0,c
  9695   001C96                     
  9696                           ;usb_device.c: 999: void* USBTransferOnePacket(uint8_t ep,uint8_t dir,uint8_t* data,uint
      +                          8_t len);usb_device.c: 1000: {;usb_device.c: 1001:     volatile BDT_ENTRY* handle;;usb_d
      +                          evice.c: 1004:     if(dir != 0)
  9697   001C96  5001               	movf	i2USBTransferOnePacket@dir^0,w,c
  9698   001C98  B4D8               	btfsc	status,2,c
  9699   001C9A  EF51  F00E         	goto	i2u218_41
  9700   001C9E  EF53  F00E         	goto	i2u218_40
  9701   001CA2                     i2u218_41:
  9702   001CA2  EF61  F00E         	goto	i2l3615
  9703   001CA6                     i2u218_40:
  9704   001CA6                     
  9705                           ;usb_device.c: 1005:     {;usb_device.c: 1007:         handle = pBDTEntryIn[ep];
  9706   001CA6  5009               	movf	i2USBTransferOnePacket@ep^0,w,c
  9707   001CA8  0D02               	mullw	2
  9708   001CAA  0EE3               	movlw	low _pBDTEntryIn
  9709   001CAC  24F3               	addwf	243,w,c
  9710   001CAE  6ED9               	movwf	fsr2l,c
  9711   001CB0  0E00               	movlw	high _pBDTEntryIn
  9712   001CB2  20F4               	addwfc	prodh,w,c
  9713   001CB4  6EDA               	movwf	fsr2h,c
  9714   001CB6  CFDE F00A          	movff	postinc2,i2USBTransferOnePacket@handle
  9715   001CBA  CFDD F00B          	movff	postdec2,i2USBTransferOnePacket@handle+1
  9716                           
  9717                           ;usb_device.c: 1008:     }
  9718   001CBE  EF6D  F00E         	goto	i2l3617
  9719   001CC2                     i2l3615:
  9720                           
  9721                           ;usb_device.c: 1010:     {;usb_device.c: 1012:         handle = pBDTEntryOut[ep];
  9722   001CC2  5009               	movf	i2USBTransferOnePacket@ep^0,w,c
  9723   001CC4  0D02               	mullw	2
  9724   001CC6  0EE7               	movlw	low _pBDTEntryOut
  9725   001CC8  24F3               	addwf	243,w,c
  9726   001CCA  6ED9               	movwf	fsr2l,c
  9727   001CCC  0E00               	movlw	high _pBDTEntryOut
  9728   001CCE  20F4               	addwfc	prodh,w,c
  9729   001CD0  6EDA               	movwf	fsr2h,c
  9730   001CD2  CFDE F00A          	movff	postinc2,i2USBTransferOnePacket@handle
  9731   001CD6  CFDD F00B          	movff	postdec2,i2USBTransferOnePacket@handle+1
  9732   001CDA                     i2l3617:
  9733                           
  9734                           ;usb_device.c: 1017:     if(handle == 0)
  9735   001CDA  500A               	movf	i2USBTransferOnePacket@handle^0,w,c
  9736   001CDC  100B               	iorwf	(i2USBTransferOnePacket@handle+1)^0,w,c
  9737   001CDE  A4D8               	btfss	status,2,c
  9738   001CE0  EF74  F00E         	goto	i2u219_41
  9739   001CE4  EF76  F00E         	goto	i2u219_40
  9740   001CE8                     i2u219_41:
  9741   001CE8  EF7C  F00E         	goto	i2l3623
  9742   001CEC                     i2u219_40:
  9743   001CEC                     
  9744                           ;usb_device.c: 1018:     {;usb_device.c: 1019:         return 0;
  9745   001CEC  0E00               	movlw	0
  9746   001CEE  6E01               	movwf	?i2_USBTransferOnePacket^0,c
  9747   001CF0  0E00               	movlw	0
  9748   001CF2  6E02               	movwf	(?i2_USBTransferOnePacket+1)^0,c
  9749   001CF4  EFE8  F00E         	goto	i2l425
  9750   001CF8                     i2l3623:
  9751                           
  9752                           ;usb_device.c: 1033:     handle->ADR = ((uint16_t)(data));
  9753   001CF8  EE20 F002          	lfsr	2,2
  9754   001CFC  500A               	movf	i2USBTransferOnePacket@handle^0,w,c
  9755   001CFE  26D9               	addwf	fsr2l,f,c
  9756   001D00  500B               	movf	(i2USBTransferOnePacket@handle+1)^0,w,c
  9757   001D02  22DA               	addwfc	fsr2h,f,c
  9758   001D04  C002  FFDE         	movff	i2USBTransferOnePacket@data,postinc2
  9759   001D08  C003  FFDD         	movff	i2USBTransferOnePacket@data+1,postdec2
  9760                           
  9761                           ;usb_device.c: 1034:     handle->CNT = len;
  9762   001D0C  EE20 F001          	lfsr	2,1
  9763   001D10  500A               	movf	i2USBTransferOnePacket@handle^0,w,c
  9764   001D12  26D9               	addwf	fsr2l,f,c
  9765   001D14  500B               	movf	(i2USBTransferOnePacket@handle+1)^0,w,c
  9766   001D16  22DA               	addwfc	fsr2h,f,c
  9767   001D18  C004  FFDF         	movff	i2USBTransferOnePacket@len,indf2
  9768   001D1C                     
  9769                           ;usb_device.c: 1035:     handle->STAT.Val &= 0x40;
  9770   001D1C  C00A  FFD9         	movff	i2USBTransferOnePacket@handle,fsr2l
  9771   001D20  C00B  FFDA         	movff	i2USBTransferOnePacket@handle+1,fsr2h
  9772   001D24  0E40               	movlw	64
  9773   001D26  16DF               	andwf	indf2,f,c
  9774   001D28                     
  9775                           ;usb_device.c: 1036:     handle->STAT.Val |= (0x08 & 0x08);
  9776   001D28  C00A  FFD9         	movff	i2USBTransferOnePacket@handle,fsr2l
  9777   001D2C  C00B  FFDA         	movff	i2USBTransferOnePacket@handle+1,fsr2h
  9778   001D30  0E00               	movlw	0
  9779   001D32  86DB               	bsf	plusw2,3,c
  9780   001D34                     
  9781                           ;usb_device.c: 1037:     handle->STAT.Val |= 0x80;
  9782   001D34  C00A  FFD9         	movff	i2USBTransferOnePacket@handle,fsr2l
  9783   001D38  C00B  FFDA         	movff	i2USBTransferOnePacket@handle+1,fsr2h
  9784   001D3C  0E00               	movlw	0
  9785   001D3E  8EDB               	bsf	plusw2,7,c
  9786   001D40                     
  9787                           ;usb_device.c: 1040:     if(dir != 0)
  9788   001D40  5001               	movf	i2USBTransferOnePacket@dir^0,w,c
  9789   001D42  B4D8               	btfsc	status,2,c
  9790   001D44  EFA6  F00E         	goto	i2u220_41
  9791   001D48  EFA8  F00E         	goto	i2u220_40
  9792   001D4C                     i2u220_41:
  9793   001D4C  EFC7  F00E         	goto	i2l3635
  9794   001D50                     i2u220_40:
  9795   001D50                     
  9796                           ;usb_device.c: 1041:     {;usb_device.c: 1043:         pBDTEntryIn[ep] = (BDT_ENTRY*)(((
      +                          uint16_t)pBDTEntryIn[ep]) ^ 0x0004);
  9797   001D50  5009               	movf	i2USBTransferOnePacket@ep^0,w,c
  9798   001D52  0D02               	mullw	2
  9799   001D54  0EE3               	movlw	low _pBDTEntryIn
  9800   001D56  24F3               	addwf	243,w,c
  9801   001D58  6ED9               	movwf	fsr2l,c
  9802   001D5A  0E00               	movlw	high _pBDTEntryIn
  9803   001D5C  20F4               	addwfc	prodh,w,c
  9804   001D5E  6EDA               	movwf	fsr2h,c
  9805   001D60  CFDE F005          	movff	postinc2,??i2_USBTransferOnePacket
  9806   001D64  CFDD F006          	movff	postdec2,??i2_USBTransferOnePacket+1
  9807   001D68  0E04               	movlw	4
  9808   001D6A  1805               	xorwf	??i2_USBTransferOnePacket^0,w,c
  9809   001D6C  6E07               	movwf	(??i2_USBTransferOnePacket+2)^0,c
  9810   001D6E  5006               	movf	(??i2_USBTransferOnePacket+1)^0,w,c
  9811   001D70  6E08               	movwf	(??i2_USBTransferOnePacket+3)^0,c
  9812   001D72  5009               	movf	i2USBTransferOnePacket@ep^0,w,c
  9813   001D74  0D02               	mullw	2
  9814   001D76  0EE3               	movlw	low _pBDTEntryIn
  9815   001D78  24F3               	addwf	243,w,c
  9816   001D7A  6ED9               	movwf	fsr2l,c
  9817   001D7C  0E00               	movlw	high _pBDTEntryIn
  9818   001D7E  20F4               	addwfc	prodh,w,c
  9819   001D80  6EDA               	movwf	fsr2h,c
  9820   001D82  C007  FFDE         	movff	??i2_USBTransferOnePacket+2,postinc2
  9821   001D86  C008  FFDD         	movff	??i2_USBTransferOnePacket+3,postdec2
  9822                           
  9823                           ;usb_device.c: 1044:     }
  9824   001D8A  EFE4  F00E         	goto	i2l3637
  9825   001D8E                     i2l3635:
  9826                           
  9827                           ;usb_device.c: 1046:     {;usb_device.c: 1048:         pBDTEntryOut[ep] = (BDT_ENTRY*)((
      +                          (uint16_t)pBDTEntryOut[ep]) ^ 0x0004);
  9828   001D8E  5009               	movf	i2USBTransferOnePacket@ep^0,w,c
  9829   001D90  0D02               	mullw	2
  9830   001D92  0EE7               	movlw	low _pBDTEntryOut
  9831   001D94  24F3               	addwf	243,w,c
  9832   001D96  6ED9               	movwf	fsr2l,c
  9833   001D98  0E00               	movlw	high _pBDTEntryOut
  9834   001D9A  20F4               	addwfc	prodh,w,c
  9835   001D9C  6EDA               	movwf	fsr2h,c
  9836   001D9E  CFDE F005          	movff	postinc2,??i2_USBTransferOnePacket
  9837   001DA2  CFDD F006          	movff	postdec2,??i2_USBTransferOnePacket+1
  9838   001DA6  0E04               	movlw	4
  9839   001DA8  1805               	xorwf	??i2_USBTransferOnePacket^0,w,c
  9840   001DAA  6E07               	movwf	(??i2_USBTransferOnePacket+2)^0,c
  9841   001DAC  5006               	movf	(??i2_USBTransferOnePacket+1)^0,w,c
  9842   001DAE  6E08               	movwf	(??i2_USBTransferOnePacket+3)^0,c
  9843   001DB0  5009               	movf	i2USBTransferOnePacket@ep^0,w,c
  9844   001DB2  0D02               	mullw	2
  9845   001DB4  0EE7               	movlw	low _pBDTEntryOut
  9846   001DB6  24F3               	addwf	243,w,c
  9847   001DB8  6ED9               	movwf	fsr2l,c
  9848   001DBA  0E00               	movlw	high _pBDTEntryOut
  9849   001DBC  20F4               	addwfc	prodh,w,c
  9850   001DBE  6EDA               	movwf	fsr2h,c
  9851   001DC0  C007  FFDE         	movff	??i2_USBTransferOnePacket+2,postinc2
  9852   001DC4  C008  FFDD         	movff	??i2_USBTransferOnePacket+3,postdec2
  9853   001DC8                     i2l3637:
  9854                           
  9855                           ;usb_device.c: 1050:     return (void*)handle;
  9856   001DC8  C00A  F001         	movff	i2USBTransferOnePacket@handle,?i2_USBTransferOnePacket
  9857   001DCC  C00B  F002         	movff	i2USBTransferOnePacket@handle+1,?i2_USBTransferOnePacket+1
  9858   001DD0                     i2l425:
  9859   001DD0  0012               	return		;funcret
  9860   001DD2                     __end_ofi2_USBTransferOnePacket:
  9861                           	callstack 0
  9862                           
  9863 ;; *************** function _USBEnableEndpoint *****************
  9864 ;; Defined at:
  9865 ;;		line 882 in file "usb_device.c"
  9866 ;; Parameters:    Size  Location     Type
  9867 ;;  ep              1    wreg     unsigned char 
  9868 ;;  options         1   10[COMRAM] unsigned char 
  9869 ;; Auto vars:     Size  Location     Type
  9870 ;;  ep              1   13[COMRAM] unsigned char 
  9871 ;;  p               2   11[COMRAM] PTR unsigned char 
  9872 ;;		 -> UEP0(1), 
  9873 ;; Return value:  Size  Location     Type
  9874 ;;                  1    wreg      void 
  9875 ;; Registers used:
  9876 ;;		wreg, fsr2l, fsr2h, status,2, status,0, prodl, prodh, cstack
  9877 ;; Tracked objects:
  9878 ;;		On entry : 0/0
  9879 ;;		On exit  : 0/0
  9880 ;;		Unchanged: 0/0
  9881 ;; Data sizes:     COMRAM   BANK0   BANK1   BANK2   BANK3   BANK4   BANK5   BANK6   BANK7
  9882 ;;      Params:         1       0       0       0       0       0       0       0       0
  9883 ;;      Locals:         3       0       0       0       0       0       0       0       0
  9884 ;;      Temps:          0       0       0       0       0       0       0       0       0
  9885 ;;      Totals:         4       0       0       0       0       0       0       0       0
  9886 ;;Total ram usage:        4 bytes
  9887 ;; Hardware stack levels used: 1
  9888 ;; Hardware stack levels required when called: 1
  9889 ;; This function calls:
  9890 ;;		_USBConfigureEndpoint
  9891 ;; This function is called by:
  9892 ;;		_USBCBInitEP
  9893 ;; This function uses a non-reentrant model
  9894 ;;
  9895                           
  9896                           	psect	text53
  9897   002EA8                     __ptext53:
  9898                           	callstack 0
  9899   002EA8                     _USBEnableEndpoint:
  9900                           	callstack 16
  9901                           
  9902                           ;incstack = 0
  9903                           ;USBEnableEndpoint@ep stored from wreg
  9904   002EA8  6E0E               	movwf	USBEnableEndpoint@ep^0,c
  9905   002EAA                     
  9906                           ;usb_device.c: 882: void USBEnableEndpoint(uint8_t ep, uint8_t options);usb_device.c: 88
      +                          3: {;usb_device.c: 884:     unsigned char* p;;usb_device.c: 888:     if(options & 0x04)
  9907   002EAA  A40B               	btfss	USBEnableEndpoint@options^0,2,c
  9908   002EAC  EF5A  F017         	goto	i2u211_41
  9909   002EB0  EF5C  F017         	goto	i2u211_40
  9910   002EB4                     i2u211_41:
  9911   002EB4  EF61  F017         	goto	i2l3533
  9912   002EB8                     i2u211_40:
  9913   002EB8                     
  9914                           ;usb_device.c: 889:     {;usb_device.c: 890:         USBConfigureEndpoint(ep, 0);
  9915   002EB8  0E00               	movlw	0
  9916   002EBA  6E01               	movwf	USBConfigureEndpoint@direction^0,c
  9917   002EBC  500E               	movf	USBEnableEndpoint@ep^0,w,c
  9918   002EBE  EC83  F014         	call	_USBConfigureEndpoint
  9919   002EC2                     i2l3533:
  9920                           
  9921                           ;usb_device.c: 892:     if(options & 0x02)
  9922   002EC2  A20B               	btfss	USBEnableEndpoint@options^0,1,c
  9923   002EC4  EF66  F017         	goto	i2u212_41
  9924   002EC8  EF68  F017         	goto	i2u212_40
  9925   002ECC                     i2u212_41:
  9926   002ECC  EF6D  F017         	goto	i2l3537
  9927   002ED0                     i2u212_40:
  9928   002ED0                     
  9929                           ;usb_device.c: 893:     {;usb_device.c: 894:         USBConfigureEndpoint(ep, 1);
  9930   002ED0  0E01               	movlw	1
  9931   002ED2  6E01               	movwf	USBConfigureEndpoint@direction^0,c
  9932   002ED4  500E               	movf	USBEnableEndpoint@ep^0,w,c
  9933   002ED6  EC83  F014         	call	_USBConfigureEndpoint
  9934   002EDA                     i2l3537:
  9935                           
  9936                           ;usb_device.c: 903:         p = (unsigned char*)(&UEP0+ep);
  9937   002EDA  0E70               	movlw	112
  9938   002EDC  240E               	addwf	USBEnableEndpoint@ep^0,w,c
  9939   002EDE  6E0C               	movwf	USBEnableEndpoint@p^0,c
  9940   002EE0  6A0D               	clrf	(USBEnableEndpoint@p+1)^0,c
  9941   002EE2  0E0F               	movlw	15
  9942   002EE4  220D               	addwfc	(USBEnableEndpoint@p+1)^0,f,c
  9943   002EE6                     
  9944                           ;usb_device.c: 905:     *p = options;
  9945   002EE6  C00C  FFD9         	movff	USBEnableEndpoint@p,fsr2l
  9946   002EEA  C00D  FFDA         	movff	USBEnableEndpoint@p+1,fsr2h
  9947   002EEE  C00B  FFDF         	movff	USBEnableEndpoint@options,indf2
  9948   002EF2  0012               	return		;funcret
  9949   002EF4                     __end_of_USBEnableEndpoint:
  9950                           	callstack 0
  9951                           
  9952 ;; *************** function _USBConfigureEndpoint *****************
  9953 ;; Defined at:
  9954 ;;		line 1547 in file "usb_device.c"
  9955 ;; Parameters:    Size  Location     Type
  9956 ;;  EPNum           1    wreg     unsigned char 
  9957 ;;  direction       1    0[COMRAM] unsigned char 
  9958 ;; Auto vars:     Size  Location     Type
  9959 ;;  EPNum           1    7[COMRAM] unsigned char 
  9960 ;;  handle          2    8[COMRAM] PTR volatile struct __BD
  9961 ;;		 -> BDT(32), 
  9962 ;; Return value:  Size  Location     Type
  9963 ;;                  1    wreg      void 
  9964 ;; Registers used:
  9965 ;;		wreg, fsr2l, fsr2h, status,2, status,0, prodl, prodh
  9966 ;; Tracked objects:
  9967 ;;		On entry : 0/0
  9968 ;;		On exit  : 0/0
  9969 ;;		Unchanged: 0/0
  9970 ;; Data sizes:     COMRAM   BANK0   BANK1   BANK2   BANK3   BANK4   BANK5   BANK6   BANK7
  9971 ;;      Params:         1       0       0       0       0       0       0       0       0
  9972 ;;      Locals:         3       0       0       0       0       0       0       0       0
  9973 ;;      Temps:          6       0       0       0       0       0       0       0       0
  9974 ;;      Totals:        10       0       0       0       0       0       0       0       0
  9975 ;;Total ram usage:       10 bytes
  9976 ;; Hardware stack levels used: 1
  9977 ;; This function calls:
  9978 ;;		Nothing
  9979 ;; This function is called by:
  9980 ;;		_USBEnableEndpoint
  9981 ;; This function uses a non-reentrant model
  9982 ;;
  9983                           
  9984                           	psect	text54
  9985   002906                     __ptext54:
  9986                           	callstack 0
  9987   002906                     _USBConfigureEndpoint:
  9988                           	callstack 16
  9989                           
  9990                           ;incstack = 0
  9991                           ;USBConfigureEndpoint@EPNum stored from wreg
  9992   002906  6E08               	movwf	USBConfigureEndpoint@EPNum^0,c
  9993   002908                     
  9994                           ;usb_device.c: 1547: static void USBConfigureEndpoint(uint8_t EPNum, uint8_t direction);
      +                          usb_device.c: 1548: {;usb_device.c: 1549:     volatile BDT_ENTRY* handle;;usb_device.c: 
      +                          1553:     handle = (volatile BDT_ENTRY*)&BDT[0];
  9995   002908  0E00               	movlw	0
  9996   00290A  6E09               	movwf	USBConfigureEndpoint@handle^0,c
  9997   00290C  0E04               	movlw	4
  9998   00290E  6E0A               	movwf	(USBConfigureEndpoint@handle+1)^0,c
  9999   002910                     
 10000                           ;usb_device.c: 1554:     handle += (4*EPNum+2*direction+0u);
 10001   002910  5001               	movf	USBConfigureEndpoint@direction^0,w,c
 10002   002912  6E02               	movwf	??_USBConfigureEndpoint^0,c
 10003   002914  6A03               	clrf	(??_USBConfigureEndpoint+1)^0,c
 10004   002916  90D8               	bcf	status,0,c
 10005   002918  3602               	rlcf	??_USBConfigureEndpoint^0,f,c
 10006   00291A  3603               	rlcf	(??_USBConfigureEndpoint+1)^0,f,c
 10007   00291C  5008               	movf	USBConfigureEndpoint@EPNum^0,w,c
 10008   00291E  6E04               	movwf	(??_USBConfigureEndpoint+2)^0,c
 10009   002920  6A05               	clrf	(??_USBConfigureEndpoint+3)^0,c
 10010   002922  90D8               	bcf	status,0,c
 10011   002924  3604               	rlcf	(??_USBConfigureEndpoint+2)^0,f,c
 10012   002926  3605               	rlcf	(??_USBConfigureEndpoint+3)^0,f,c
 10013   002928  90D8               	bcf	status,0,c
 10014   00292A  3604               	rlcf	(??_USBConfigureEndpoint+2)^0,f,c
 10015   00292C  3605               	rlcf	(??_USBConfigureEndpoint+3)^0,f,c
 10016   00292E  5002               	movf	??_USBConfigureEndpoint^0,w,c
 10017   002930  2404               	addwf	(??_USBConfigureEndpoint+2)^0,w,c
 10018   002932  6E06               	movwf	(??_USBConfigureEndpoint+4)^0,c
 10019   002934  5003               	movf	(??_USBConfigureEndpoint+1)^0,w,c
 10020   002936  2005               	addwfc	(??_USBConfigureEndpoint+3)^0,w,c
 10021   002938  6E07               	movwf	(??_USBConfigureEndpoint+5)^0,c
 10022   00293A  90D8               	bcf	status,0,c
 10023   00293C  3606               	rlcf	(??_USBConfigureEndpoint+4)^0,f,c
 10024   00293E  3607               	rlcf	(??_USBConfigureEndpoint+5)^0,f,c
 10025   002940  90D8               	bcf	status,0,c
 10026   002942  3606               	rlcf	(??_USBConfigureEndpoint+4)^0,f,c
 10027   002944  3607               	rlcf	(??_USBConfigureEndpoint+5)^0,f,c
 10028   002946  5006               	movf	(??_USBConfigureEndpoint+4)^0,w,c
 10029   002948  2609               	addwf	USBConfigureEndpoint@handle^0,f,c
 10030   00294A  5007               	movf	(??_USBConfigureEndpoint+5)^0,w,c
 10031   00294C  220A               	addwfc	(USBConfigureEndpoint@handle+1)^0,f,c
 10032   00294E                     
 10033                           ;usb_device.c: 1556:     handle->STAT.UOWN = 0;
 10034   00294E  C009  FFD9         	movff	USBConfigureEndpoint@handle,fsr2l
 10035   002952  C00A  FFDA         	movff	USBConfigureEndpoint@handle+1,fsr2h
 10036   002956  9EDF               	bcf	indf2,7,c
 10037   002958                     
 10038                           ;usb_device.c: 1561:     if(direction == 0)
 10039   002958  5001               	movf	USBConfigureEndpoint@direction^0,w,c
 10040   00295A  A4D8               	btfss	status,2,c
 10041   00295C  EFB2  F014         	goto	i2u210_41
 10042   002960  EFB4  F014         	goto	i2u210_40
 10043   002964                     i2u210_41:
 10044   002964  EFC2  F014         	goto	i2l3523
 10045   002968                     i2u210_40:
 10046   002968                     
 10047                           ;usb_device.c: 1562:     {;usb_device.c: 1563:         pBDTEntryOut[EPNum] = handle;
 10048   002968  5008               	movf	USBConfigureEndpoint@EPNum^0,w,c
 10049   00296A  0D02               	mullw	2
 10050   00296C  0EE7               	movlw	low _pBDTEntryOut
 10051   00296E  24F3               	addwf	243,w,c
 10052   002970  6ED9               	movwf	fsr2l,c
 10053   002972  0E00               	movlw	high _pBDTEntryOut
 10054   002974  20F4               	addwfc	prodh,w,c
 10055   002976  6EDA               	movwf	fsr2h,c
 10056   002978  C009  FFDE         	movff	USBConfigureEndpoint@handle,postinc2
 10057   00297C  C00A  FFDD         	movff	USBConfigureEndpoint@handle+1,postdec2
 10058                           
 10059                           ;usb_device.c: 1564:     }
 10060   002980  EFCE  F014         	goto	i2l3525
 10061   002984                     i2l3523:
 10062                           
 10063                           ;usb_device.c: 1566:     {;usb_device.c: 1567:         pBDTEntryIn[EPNum] = handle;
 10064   002984  5008               	movf	USBConfigureEndpoint@EPNum^0,w,c
 10065   002986  0D02               	mullw	2
 10066   002988  0EE3               	movlw	low _pBDTEntryIn
 10067   00298A  24F3               	addwf	243,w,c
 10068   00298C  6ED9               	movwf	fsr2l,c
 10069   00298E  0E00               	movlw	high _pBDTEntryIn
 10070   002990  20F4               	addwfc	prodh,w,c
 10071   002992  6EDA               	movwf	fsr2h,c
 10072   002994  C009  FFDE         	movff	USBConfigureEndpoint@handle,postinc2
 10073   002998  C00A  FFDD         	movff	USBConfigureEndpoint@handle+1,postdec2
 10074   00299C                     i2l3525:
 10075                           
 10076                           ;usb_device.c: 1571:         handle->STAT.DTS = 0;
 10077   00299C  C009  FFD9         	movff	USBConfigureEndpoint@handle,fsr2l
 10078   0029A0  C00A  FFDA         	movff	USBConfigureEndpoint@handle+1,fsr2h
 10079   0029A4  9CDF               	bcf	indf2,6,c
 10080   0029A6                     
 10081                           ;usb_device.c: 1572:         (handle+1)->STAT.DTS = 1;
 10082   0029A6  EE20 F004          	lfsr	2,4
 10083   0029AA  5009               	movf	USBConfigureEndpoint@handle^0,w,c
 10084   0029AC  26D9               	addwf	fsr2l,f,c
 10085   0029AE  500A               	movf	(USBConfigureEndpoint@handle+1)^0,w,c
 10086   0029B0  22DA               	addwfc	fsr2h,f,c
 10087   0029B2  8CDF               	bsf	indf2,6,c
 10088   0029B4  0012               	return		;funcret
 10089   0029B6                     __end_of_USBConfigureEndpoint:
 10090                           	callstack 0
 10091                           
 10092 ;; *************** function _USBCBErrorHandler *****************
 10093 ;; Defined at:
 10094 ;;		line 478 in file "main.c"
 10095 ;; Parameters:    Size  Location     Type
 10096 ;;		None
 10097 ;; Auto vars:     Size  Location     Type
 10098 ;;		None
 10099 ;; Return value:  Size  Location     Type
 10100 ;;                  1    wreg      void 
 10101 ;; Registers used:
 10102 ;;		None
 10103 ;; Tracked objects:
 10104 ;;		On entry : 0/0
 10105 ;;		On exit  : 0/0
 10106 ;;		Unchanged: 0/0
 10107 ;; Data sizes:     COMRAM   BANK0   BANK1   BANK2   BANK3   BANK4   BANK5   BANK6   BANK7
 10108 ;;      Params:         0       0       0       0       0       0       0       0       0
 10109 ;;      Locals:         0       0       0       0       0       0       0       0       0
 10110 ;;      Temps:          0       0       0       0       0       0       0       0       0
 10111 ;;      Totals:         0       0       0       0       0       0       0       0       0
 10112 ;;Total ram usage:        0 bytes
 10113 ;; Hardware stack levels used: 1
 10114 ;; This function calls:
 10115 ;;		Nothing
 10116 ;; This function is called by:
 10117 ;;		_USER_USB_CALLBACK_EVENT_HANDLER
 10118 ;; This function uses a non-reentrant model
 10119 ;;
 10120                           
 10121                           	psect	text55
 10122   00315A                     __ptext55:
 10123                           	callstack 0
 10124   00315A                     _USBCBErrorHandler:
 10125                           	callstack 18
 10126   00315A  0012               	return		;funcret
 10127   00315C                     __end_of_USBCBErrorHandler:
 10128                           	callstack 0
 10129                           
 10130 ;; *************** function _USBCBCheckOtherReq *****************
 10131 ;; Defined at:
 10132 ;;		line 474 in file "main.c"
 10133 ;; Parameters:    Size  Location     Type
 10134 ;;		None
 10135 ;; Auto vars:     Size  Location     Type
 10136 ;;		None
 10137 ;; Return value:  Size  Location     Type
 10138 ;;                  1    wreg      void 
 10139 ;; Registers used:
 10140 ;;		wreg, status,2, status,0, cstack
 10141 ;; Tracked objects:
 10142 ;;		On entry : 0/0
 10143 ;;		On exit  : 0/0
 10144 ;;		Unchanged: 0/0
 10145 ;; Data sizes:     COMRAM   BANK0   BANK1   BANK2   BANK3   BANK4   BANK5   BANK6   BANK7
 10146 ;;      Params:         0       0       0       0       0       0       0       0       0
 10147 ;;      Locals:         0       0       0       0       0       0       0       0       0
 10148 ;;      Temps:          0       0       0       0       0       0       0       0       0
 10149 ;;      Totals:         0       0       0       0       0       0       0       0       0
 10150 ;;Total ram usage:        0 bytes
 10151 ;; Hardware stack levels used: 1
 10152 ;; Hardware stack levels required when called: 1
 10153 ;; This function calls:
 10154 ;;		_USBCheckHIDRequest
 10155 ;; This function is called by:
 10156 ;;		_USER_USB_CALLBACK_EVENT_HANDLER
 10157 ;; This function uses a non-reentrant model
 10158 ;;
 10159                           
 10160                           	psect	text56
 10161   00314A                     __ptext56:
 10162                           	callstack 0
 10163   00314A                     _USBCBCheckOtherReq:
 10164                           	callstack 17
 10165   00314A  ECFE  F008         	call	_USBCheckHIDRequest	;wreg free
 10166   00314E  0012               	return		;funcret
 10167   003150                     __end_of_USBCBCheckOtherReq:
 10168                           	callstack 0
 10169                           
 10170 ;; *************** function _USBCheckHIDRequest *****************
 10171 ;; Defined at:
 10172 ;;		line 161 in file "usb_function_hid.c"
 10173 ;; Parameters:    Size  Location     Type
 10174 ;;		None
 10175 ;; Auto vars:     Size  Location     Type
 10176 ;;		None
 10177 ;; Return value:  Size  Location     Type
 10178 ;;                  1    wreg      void 
 10179 ;; Registers used:
 10180 ;;		wreg, status,2, status,0
 10181 ;; Tracked objects:
 10182 ;;		On entry : 0/0
 10183 ;;		On exit  : 0/0
 10184 ;;		Unchanged: 0/0
 10185 ;; Data sizes:     COMRAM   BANK0   BANK1   BANK2   BANK3   BANK4   BANK5   BANK6   BANK7
 10186 ;;      Params:         0       0       0       0       0       0       0       0       0
 10187 ;;      Locals:         0       0       0       0       0       0       0       0       0
 10188 ;;      Temps:          2       0       0       0       0       0       0       0       0
 10189 ;;      Totals:         2       0       0       0       0       0       0       0       0
 10190 ;;Total ram usage:        2 bytes
 10191 ;; Hardware stack levels used: 1
 10192 ;; This function calls:
 10193 ;;		Nothing
 10194 ;; This function is called by:
 10195 ;;		_USBCBCheckOtherReq
 10196 ;; This function uses a non-reentrant model
 10197 ;;
 10198                           
 10199                           	psect	text57
 10200   0011FC                     __ptext57:
 10201                           	callstack 0
 10202   0011FC                     _USBCheckHIDRequest:
 10203                           	callstack 17
 10204   0011FC                     
 10205                           ;usb_function_hid.c: 163:     if(SetupPkt.Recipient != (0x01)) return;
 10206   0011FC  0104               	movlb	4	; () banked
 10207   0011FE  5120               	movf	32,w,b	;volatile
 10208   001200  0B1F               	andlw	31
 10209   001202  06E8               	decf	wreg,f,c
 10210   001204  B4D8               	btfsc	status,2,c
 10211   001206  EF07  F009         	goto	i2u213_41
 10212   00120A  EF09  F009         	goto	i2u213_40
 10213   00120E                     i2u213_41:
 10214   00120E  EF0B  F009         	goto	i2l3545
 10215   001212                     i2u213_40:
 10216   001212  EFB4  F009         	goto	i2l648
 10217   001216                     i2l3545:
 10218                           
 10219                           ; BSR set to: 4
 10220                           ;usb_function_hid.c: 164:     if(SetupPkt.bIntfID != 0x00) return;
 10221   001216  5124               	movf	36,w,b	;volatile
 10222   001218  B4D8               	btfsc	status,2,c
 10223   00121A  EF11  F009         	goto	i2u214_41
 10224   00121E  EF13  F009         	goto	i2u214_40
 10225   001222                     i2u214_41:
 10226   001222  EF15  F009         	goto	i2l3549
 10227   001226                     i2u214_40:
 10228   001226  EFB4  F009         	goto	i2l648
 10229   00122A                     i2l3549:
 10230                           
 10231                           ; BSR set to: 4
 10232                           ;usb_function_hid.c: 171:     if(SetupPkt.bRequest == 6)
 10233   00122A  0E06               	movlw	6
 10234   00122C  1921               	xorwf	33,w,b	;volatile
 10235   00122E  A4D8               	btfss	status,2,c
 10236   001230  EF1C  F009         	goto	i2u215_41
 10237   001234  EF1E  F009         	goto	i2u215_40
 10238   001238                     i2u215_41:
 10239   001238  EF59  F009         	goto	i2l3571
 10240   00123C                     i2u215_40:
 10241   00123C  EF40  F009         	goto	i2l3569
 10242   001240                     i2l3553:
 10243                           
 10244                           ; BSR set to: 4
 10245                           ;usb_function_hid.c: 176:                 if(USBActiveConfiguration == 1)
 10246   001240  044A               	decf	_USBActiveConfiguration^0,w,c
 10247   001242  A4D8               	btfss	status,2,c
 10248   001244  EF26  F009         	goto	i2u216_41
 10249   001248  EF28  F009         	goto	i2u216_40
 10250   00124C                     i2u216_41:
 10251   00124C  EF59  F009         	goto	i2l3571
 10252   001250                     i2u216_40:
 10253   001250                     
 10254                           ; BSR set to: 4
 10255                           ;usb_function_hid.c: 177:                 {;usb_function_hid.c: 178:                    
      +                           { inPipes[0].pSrc.bRom = (const uint8_t*)&configDescriptor1 + 18; inPipes[0].wCount.Val
      +                           = sizeof(USB_HID_DSC)+3; inPipes[0].info.Val = 0x40 | 0x80 | 0x00; };
 10256   001250  0ED9               	movlw	low (_configDescriptor1+18)
 10257   001252  0100               	movlb	0	; () banked
 10258   001254  6FD9               	movwf	_inPipes& (0+255),b
 10259   001256  0E7B               	movlw	high (_configDescriptor1+18)
 10260   001258  6FDA               	movwf	(_inPipes+1)& (0+255),b
 10261   00125A                     
 10262                           ; BSR set to: 0
 10263   00125A  0E00               	movlw	0
 10264   00125C  6FDE               	movwf	(_inPipes+5)& (0+255),b
 10265   00125E  0E09               	movlw	9
 10266   001260  6FDD               	movwf	(_inPipes+4)& (0+255),b
 10267   001262                     i2l3559:
 10268                           
 10269                           ; BSR set to: 0
 10270   001262  0EC0               	movlw	192
 10271   001264  6FDC               	movwf	(_inPipes+3)& (0+255),b
 10272   001266  EF59  F009         	goto	i2l3571
 10273   00126A                     i2l3561:
 10274                           
 10275                           ; BSR set to: 4
 10276                           ;usb_function_hid.c: 186:                 {;usb_function_hid.c: 187:                    
      +                           { inPipes[0].pSrc.bRom = (const uint8_t*)&hid_rpt01; inPipes[0].wCount.Val = 29; inPipe
      +                          s[0].info.Val = 0x40 | 0x80 | 0x00; };
 10277   00126A  0EF0               	movlw	low _hid_rpt01
 10278   00126C  0100               	movlb	0	; () banked
 10279   00126E  6FD9               	movwf	_inPipes& (0+255),b
 10280   001270  0E7B               	movlw	high _hid_rpt01
 10281   001272  6FDA               	movwf	(_inPipes+1)& (0+255),b
 10282   001274                     
 10283                           ; BSR set to: 0
 10284   001274  0E00               	movlw	0
 10285   001276  6FDE               	movwf	(_inPipes+5)& (0+255),b
 10286   001278  0E1D               	movlw	29
 10287   00127A  6FDD               	movwf	(_inPipes+4)& (0+255),b
 10288   00127C  EF31  F009         	goto	i2l3559
 10289   001280                     i2l3569:
 10290                           
 10291                           ; BSR set to: 4
 10292   001280  5123               	movf	35,w,b	;volatile
 10293   001282  6E01               	movwf	??_USBCheckHIDRequest^0,c
 10294   001284  6A02               	clrf	(??_USBCheckHIDRequest+1)^0,c
 10295                           
 10296                           ; Switch on 2 bytes has been partitioned into a top level switch of size 1, and 1 sub-sw
      +                          itches
 10297                           ; Switch size 1, requested type "simple"
 10298                           ; Number of cases is 1, Range of values is 0 to 0
 10299                           ; switch strategies available:
 10300                           ; Name         Instructions Cycles
 10301                           ; simple_byte            4     3 (average)
 10302                           ;	Chosen strategy is simple_byte
 10303   001286  5002               	movf	(??_USBCheckHIDRequest+1)^0,w,c
 10304   001288  0A00               	xorlw	0	; case 0
 10305   00128A  B4D8               	btfsc	status,2,c
 10306   00128C  EF4A  F009         	goto	i2l6195
 10307   001290  EF59  F009         	goto	i2l3571
 10308   001294                     i2l6195:
 10309                           
 10310                           ; BSR set to: 4
 10311                           ; Switch size 1, requested type "simple"
 10312                           ; Number of cases is 3, Range of values is 33 to 35
 10313                           ; switch strategies available:
 10314                           ; Name         Instructions Cycles
 10315                           ; simple_byte           10     6 (average)
 10316                           ;	Chosen strategy is simple_byte
 10317   001294  5001               	movf	??_USBCheckHIDRequest^0,w,c
 10318   001296  0A21               	xorlw	33	; case 33
 10319   001298  B4D8               	btfsc	status,2,c
 10320   00129A  EF20  F009         	goto	i2l3553
 10321   00129E  0A03               	xorlw	3	; case 34
 10322   0012A0  B4D8               	btfsc	status,2,c
 10323   0012A2  EF35  F009         	goto	i2l3561
 10324   0012A6  0A01               	xorlw	1	; case 35
 10325   0012A8  B4D8               	btfsc	status,2,c
 10326   0012AA  EF59  F009         	goto	i2l3571
 10327   0012AE  EF59  F009         	goto	i2l3571
 10328   0012B2                     i2l3571:
 10329                           
 10330                           ;usb_function_hid.c: 209:     if(SetupPkt.RequestType != (0x20>>5))
 10331   0012B2  0104               	movlb	4	; () banked
 10332   0012B4  3920               	swapf	32,w,b	;volatile
 10333   0012B6  32E8               	rrcf	wreg,f,c
 10334   0012B8  0B03               	andlw	3
 10335   0012BA  06E8               	decf	wreg,f,c
 10336   0012BC  B4D8               	btfsc	status,2,c
 10337   0012BE  EF63  F009         	goto	i2u217_41
 10338   0012C2  EF65  F009         	goto	i2u217_40
 10339   0012C6                     i2u217_41:
 10340   0012C6  EF8F  F009         	goto	i2l3597
 10341   0012CA                     i2u217_40:
 10342   0012CA  EFB4  F009         	goto	i2l648
 10343   0012CE                     i2l3575:
 10344                           
 10345                           ; BSR set to: 4
 10346                           ;usb_function_hid.c: 227:             { inPipes[0].pSrc.bRam = (uint8_t*)&idle_rate; inP
      +                          ipes[0].wCount.Val = 1; inPipes[0].info.Val = 0x40 | 0x80 | 0x01; };
 10347   0012CE  0E47               	movlw	low _idle_rate
 10348   0012D0  0100               	movlb	0	; () banked
 10349   0012D2  6FD9               	movwf	_inPipes& (0+255),b
 10350   0012D4  0E00               	movlw	high _idle_rate
 10351   0012D6  6FDA               	movwf	(_inPipes+1)& (0+255),b
 10352   0012D8                     
 10353                           ; BSR set to: 0
 10354   0012D8  0E00               	movlw	0
 10355   0012DA  6FDE               	movwf	(_inPipes+5)& (0+255),b
 10356   0012DC  0E01               	movlw	1
 10357   0012DE  6FDD               	movwf	(_inPipes+4)& (0+255),b
 10358   0012E0                     
 10359                           ; BSR set to: 0
 10360   0012E0  0EC1               	movlw	193
 10361   0012E2  6FDC               	movwf	(_inPipes+3)& (0+255),b
 10362                           
 10363                           ;usb_function_hid.c: 231:             break;
 10364   0012E4  EFB4  F009         	goto	i2l648
 10365   0012E8                     i2l3581:
 10366                           
 10367                           ; BSR set to: 4
 10368                           ;usb_function_hid.c: 233:             inPipes[0].info.Val = 0x00 | 0x80;
 10369   0012E8  0E80               	movlw	128
 10370   0012EA  0100               	movlb	0	; () banked
 10371   0012EC  6FDC               	movwf	(_inPipes+3)& (0+255),b
 10372   0012EE                     
 10373                           ; BSR set to: 0
 10374                           ;usb_function_hid.c: 234:             idle_rate = SetupPkt.W_Value.byte.HB;
 10375   0012EE  C423 F047          	movff	1059,_idle_rate	;volatile
 10376                           
 10377                           ;usb_function_hid.c: 236:             break;
 10378   0012F2  EFB4  F009         	goto	i2l648
 10379   0012F6                     i2l3585:
 10380                           
 10381                           ; BSR set to: 4
 10382                           ;usb_function_hid.c: 238:             { inPipes[0].pSrc.bRam = (uint8_t*)&active_protoco
      +                          l; inPipes[0].wCount.Val = 1; inPipes[0].info.Val = 0x00 | 0x80 | 0x01; };
 10383   0012F6  0E46               	movlw	low _active_protocol
 10384   0012F8  0100               	movlb	0	; () banked
 10385   0012FA  6FD9               	movwf	_inPipes& (0+255),b
 10386   0012FC  0E00               	movlw	high _active_protocol
 10387   0012FE  6FDA               	movwf	(_inPipes+1)& (0+255),b
 10388   001300                     
 10389                           ; BSR set to: 0
 10390   001300  0E00               	movlw	0
 10391   001302  6FDE               	movwf	(_inPipes+5)& (0+255),b
 10392   001304  0E01               	movlw	1
 10393   001306  6FDD               	movwf	(_inPipes+4)& (0+255),b
 10394   001308                     
 10395                           ; BSR set to: 0
 10396   001308  0E81               	movlw	129
 10397   00130A  6FDC               	movwf	(_inPipes+3)& (0+255),b
 10398                           
 10399                           ;usb_function_hid.c: 242:             break;
 10400   00130C  EFB4  F009         	goto	i2l648
 10401   001310                     i2l3591:
 10402                           
 10403                           ; BSR set to: 4
 10404                           ;usb_function_hid.c: 244:             inPipes[0].info.Val = 0x00 | 0x80;
 10405   001310  0E80               	movlw	128
 10406   001312  0100               	movlb	0	; () banked
 10407   001314  6FDC               	movwf	(_inPipes+3)& (0+255),b
 10408   001316                     
 10409                           ; BSR set to: 0
 10410                           ;usb_function_hid.c: 245:             active_protocol = SetupPkt.W_Value.byte.LB;
 10411   001316  C422 F046          	movff	1058,_active_protocol	;volatile
 10412                           
 10413                           ;usb_function_hid.c: 246:             break;
 10414   00131A  EFB4  F009         	goto	i2l648
 10415   00131E                     i2l3597:
 10416                           
 10417                           ; BSR set to: 4
 10418   00131E  5121               	movf	33,w,b	;volatile
 10419   001320  6E01               	movwf	??_USBCheckHIDRequest^0,c
 10420   001322  6A02               	clrf	(??_USBCheckHIDRequest+1)^0,c
 10421                           
 10422                           ; Switch on 2 bytes has been partitioned into a top level switch of size 1, and 1 sub-sw
      +                          itches
 10423                           ; Switch size 1, requested type "simple"
 10424                           ; Number of cases is 1, Range of values is 0 to 0
 10425                           ; switch strategies available:
 10426                           ; Name         Instructions Cycles
 10427                           ; simple_byte            4     3 (average)
 10428                           ;	Chosen strategy is simple_byte
 10429   001324  5002               	movf	(??_USBCheckHIDRequest+1)^0,w,c
 10430   001326  0A00               	xorlw	0	; case 0
 10431   001328  B4D8               	btfsc	status,2,c
 10432   00132A  EF99  F009         	goto	i2l6197
 10433   00132E  EFB4  F009         	goto	i2l648
 10434   001332                     i2l6197:
 10435                           
 10436                           ; BSR set to: 4
 10437                           ; Switch size 1, requested type "simple"
 10438                           ; Number of cases is 6, Range of values is 1 to 11
 10439                           ; switch strategies available:
 10440                           ; Name         Instructions Cycles
 10441                           ; simple_byte           19    10 (average)
 10442                           ;	Chosen strategy is simple_byte
 10443   001332  5001               	movf	??_USBCheckHIDRequest^0,w,c
 10444   001334  0A01               	xorlw	1	; case 1
 10445   001336  B4D8               	btfsc	status,2,c
 10446   001338  EFB4  F009         	goto	i2l648
 10447   00133C  0A03               	xorlw	3	; case 2
 10448   00133E  B4D8               	btfsc	status,2,c
 10449   001340  EF67  F009         	goto	i2l3575
 10450   001344  0A01               	xorlw	1	; case 3
 10451   001346  B4D8               	btfsc	status,2,c
 10452   001348  EF7B  F009         	goto	i2l3585
 10453   00134C  0A0A               	xorlw	10	; case 9
 10454   00134E  B4D8               	btfsc	status,2,c
 10455   001350  EFB4  F009         	goto	i2l648
 10456   001354  0A03               	xorlw	3	; case 10
 10457   001356  B4D8               	btfsc	status,2,c
 10458   001358  EF74  F009         	goto	i2l3581
 10459   00135C  0A01               	xorlw	1	; case 11
 10460   00135E  B4D8               	btfsc	status,2,c
 10461   001360  EF88  F009         	goto	i2l3591
 10462   001364  EFB4  F009         	goto	i2l648
 10463   001368                     i2l648:
 10464   001368  0012               	return		;funcret
 10465   00136A                     __end_of_USBCheckHIDRequest:
 10466                           	callstack 0
 10467                           
 10468 ;; *************** function _USBCtrlTrfOutHandler *****************
 10469 ;; Defined at:
 10470 ;;		line 2545 in file "usb_device.c"
 10471 ;; Parameters:    Size  Location     Type
 10472 ;;		None
 10473 ;; Auto vars:     Size  Location     Type
 10474 ;;		None
 10475 ;; Return value:  Size  Location     Type
 10476 ;;                  1    wreg      void 
 10477 ;; Registers used:
 10478 ;;		wreg, fsr1l, fsr1h, fsr2l, fsr2h, status,2, status,0, cstack
 10479 ;; Tracked objects:
 10480 ;;		On entry : 0/0
 10481 ;;		On exit  : 0/0
 10482 ;;		Unchanged: 0/0
 10483 ;; Data sizes:     COMRAM   BANK0   BANK1   BANK2   BANK3   BANK4   BANK5   BANK6   BANK7
 10484 ;;      Params:         0       0       0       0       0       0       0       0       0
 10485 ;;      Locals:         0       0       0       0       0       0       0       0       0
 10486 ;;      Temps:          0       0       0       0       0       0       0       0       0
 10487 ;;      Totals:         0       0       0       0       0       0       0       0       0
 10488 ;;Total ram usage:        0 bytes
 10489 ;; Hardware stack levels used: 1
 10490 ;; Hardware stack levels required when called: 2
 10491 ;; This function calls:
 10492 ;;		_USBCtrlTrfRxService
 10493 ;; This function is called by:
 10494 ;;		_USBCtrlEPService
 10495 ;; This function uses a non-reentrant model
 10496 ;;
 10497                           
 10498                           	psect	text58
 10499   002C8E                     __ptext58:
 10500                           	callstack 0
 10501   002C8E                     _USBCtrlTrfOutHandler:
 10502                           	callstack 16
 10503   002C8E                     
 10504                           ;usb_device.c: 2547:     if(controlTransferState == 2)
 10505   002C8E  0E02               	movlw	2
 10506   002C90  1843               	xorwf	_controlTransferState^0,w,c
 10507   002C92  A4D8               	btfss	status,2,c
 10508   002C94  EF4E  F016         	goto	i2u309_41
 10509   002C98  EF50  F016         	goto	i2u309_40
 10510   002C9C                     i2u309_41:
 10511   002C9C  EF54  F016         	goto	i2l4313
 10512   002CA0                     i2u309_40:
 10513   002CA0                     
 10514                           ;usb_device.c: 2548:     {;usb_device.c: 2549:         USBCtrlTrfRxService();
 10515   002CA0  EC66  F00C         	call	_USBCtrlTrfRxService	;wreg free
 10516                           
 10517                           ;usb_device.c: 2550:     }
 10518   002CA4  EF80  F016         	goto	i2l564
 10519   002CA8                     i2l4313:
 10520                           
 10521                           ;usb_device.c: 2552:     {;usb_device.c: 2555:         controlTransferState = 0;
 10522   002CA8  0E00               	movlw	0
 10523   002CAA  6E43               	movwf	_controlTransferState^0,c
 10524                           
 10525                           ;usb_device.c: 2562:         if(BothEP0OutUOWNsSet == 0)
 10526   002CAC  5040               	movf	_BothEP0OutUOWNsSet^0,w,c
 10527   002CAE  A4D8               	btfss	status,2,c
 10528   002CB0  EF5C  F016         	goto	i2u310_41
 10529   002CB4  EF5E  F016         	goto	i2u310_40
 10530   002CB8                     i2u310_41:
 10531   002CB8  EF7E  F016         	goto	i2l4321
 10532   002CBC                     i2u310_40:
 10533   002CBC                     
 10534                           ;usb_device.c: 2563:         {;usb_device.c: 2564:             pBDTEntryEP0OutNext->CNT 
      +                          = 8;
 10535   002CBC  EE20 F001          	lfsr	2,1
 10536   002CC0  5034               	movf	_pBDTEntryEP0OutNext^0,w,c
 10537   002CC2  26D9               	addwf	fsr2l,f,c
 10538   002CC4  5035               	movf	(_pBDTEntryEP0OutNext+1)^0,w,c
 10539   002CC6  22DA               	addwfc	fsr2h,f,c
 10540   002CC8  0E08               	movlw	8
 10541   002CCA  6EDF               	movwf	indf2,c
 10542                           
 10543                           ;usb_device.c: 2565:             pBDTEntryEP0OutNext->ADR = ((uint16_t)(&SetupPkt));
 10544   002CCC  EE20 F002          	lfsr	2,2
 10545   002CD0  5034               	movf	_pBDTEntryEP0OutNext^0,w,c
 10546   002CD2  26D9               	addwf	fsr2l,f,c
 10547   002CD4  5035               	movf	(_pBDTEntryEP0OutNext+1)^0,w,c
 10548   002CD6  22DA               	addwfc	fsr2h,f,c
 10549   002CD8  0E20               	movlw	32
 10550   002CDA  6EDE               	movwf	postinc2,c
 10551   002CDC  0E04               	movlw	4
 10552   002CDE  6EDD               	movwf	postdec2,c
 10553   002CE0                     
 10554                           ;usb_device.c: 2566:             pBDTEntryEP0OutNext->STAT.Val = 0x00|(0x08 & 0x08)|0x04
      +                          ;
 10555   002CE0  C034  FFD9         	movff	_pBDTEntryEP0OutNext,fsr2l
 10556   002CE4  C035  FFDA         	movff	_pBDTEntryEP0OutNext+1,fsr2h
 10557   002CE8  0E0C               	movlw	12
 10558   002CEA  6EDF               	movwf	indf2,c
 10559   002CEC                     
 10560                           ;usb_device.c: 2567:             pBDTEntryEP0OutNext->STAT.Val |= 0x80;
 10561   002CEC  C034  FFD9         	movff	_pBDTEntryEP0OutNext,fsr2l
 10562   002CF0  C035  FFDA         	movff	_pBDTEntryEP0OutNext+1,fsr2h
 10563   002CF4  0E00               	movlw	0
 10564   002CF6  8EDB               	bsf	plusw2,7,c
 10565                           
 10566                           ;usb_device.c: 2568:         }
 10567   002CF8  EF80  F016         	goto	i2l564
 10568   002CFC                     i2l4321:
 10569                           
 10570                           ;usb_device.c: 2570:         {;usb_device.c: 2571:             BothEP0OutUOWNsSet = 0;
 10571   002CFC  0E00               	movlw	0
 10572   002CFE  6E40               	movwf	_BothEP0OutUOWNsSet^0,c
 10573   002D00                     i2l564:
 10574   002D00  0012               	return		;funcret
 10575   002D02                     __end_of_USBCtrlTrfOutHandler:
 10576                           	callstack 0
 10577                           
 10578 ;; *************** function _USBCtrlTrfRxService *****************
 10579 ;; Defined at:
 10580 ;;		line 1856 in file "usb_device.c"
 10581 ;; Parameters:    Size  Location     Type
 10582 ;;		None
 10583 ;; Auto vars:     Size  Location     Type
 10584 ;;  byteToRead      1    1[COMRAM] unsigned char 
 10585 ;;  i               1    0[COMRAM] unsigned char 
 10586 ;; Return value:  Size  Location     Type
 10587 ;;                  1    wreg      void 
 10588 ;; Registers used:
 10589 ;;		wreg, fsr1l, fsr1h, fsr2l, fsr2h, status,2, status,0, cstack
 10590 ;; Tracked objects:
 10591 ;;		On entry : 0/0
 10592 ;;		On exit  : 0/0
 10593 ;;		Unchanged: 0/0
 10594 ;; Data sizes:     COMRAM   BANK0   BANK1   BANK2   BANK3   BANK4   BANK5   BANK6   BANK7
 10595 ;;      Params:         0       0       0       0       0       0       0       0       0
 10596 ;;      Locals:         2       0       0       0       0       0       0       0       0
 10597 ;;      Temps:          0       0       0       0       0       0       0       0       0
 10598 ;;      Totals:         2       0       0       0       0       0       0       0       0
 10599 ;;Total ram usage:        2 bytes
 10600 ;; Hardware stack levels used: 1
 10601 ;; Hardware stack levels required when called: 1
 10602 ;; This function calls:
 10603 ;;		_USBCtrlEPAllowStatusStage
 10604 ;; This function is called by:
 10605 ;;		_USBCtrlTrfOutHandler
 10606 ;; This function uses a non-reentrant model
 10607 ;;
 10608                           
 10609                           	psect	text59
 10610   0018CC                     __ptext59:
 10611                           	callstack 0
 10612   0018CC                     _USBCtrlTrfRxService:
 10613                           	callstack 16
 10614   0018CC                     
 10615                           ;usb_device.c: 1858:     uint8_t byteToRead;;usb_device.c: 1859:     uint8_t i;;usb_devi
      +                          ce.c: 1863:     byteToRead = pBDTEntryEP0OutCurrent->CNT;
 10616   0018CC  EE20 F001          	lfsr	2,1
 10617   0018D0  5036               	movf	_pBDTEntryEP0OutCurrent^0,w,c
 10618   0018D2  26D9               	addwf	fsr2l,f,c
 10619   0018D4  5037               	movf	(_pBDTEntryEP0OutCurrent+1)^0,w,c
 10620   0018D6  22DA               	addwfc	fsr2h,f,c
 10621   0018D8  50DF               	movf	indf2,w,c
 10622   0018DA  6E02               	movwf	USBCtrlTrfRxService@byteToRead^0,c
 10623   0018DC                     
 10624                           ;usb_device.c: 1869:     if(byteToRead > outPipes[0].wCount.Val)
 10625   0018DC  5002               	movf	USBCtrlTrfRxService@byteToRead^0,w,c
 10626   0018DE  0100               	movlb	0	; () banked
 10627   0018E0  5DD5               	subwf	(_outPipes+4)& (0+255),w,b
 10628   0018E2  0E00               	movlw	0
 10629   0018E4  59D6               	subwfb	(_outPipes+5)& (0+255),w,b
 10630   0018E6  B0D8               	btfsc	status,0,c
 10631   0018E8  EF78  F00C         	goto	i2u293_41
 10632   0018EC  EF7A  F00C         	goto	i2u293_40
 10633   0018F0                     i2u293_41:
 10634   0018F0  EF7C  F00C         	goto	i2l4129
 10635   0018F4                     i2u293_40:
 10636   0018F4                     
 10637                           ; BSR set to: 0
 10638                           ;usb_device.c: 1870:     {;usb_device.c: 1871:         byteToRead = outPipes[0].wCount.V
      +                          al;
 10639   0018F4  C0D5  F002         	movff	_outPipes+4,USBCtrlTrfRxService@byteToRead
 10640   0018F8                     i2l4129:
 10641                           
 10642                           ; BSR set to: 0
 10643                           ;usb_device.c: 1874:     outPipes[0].wCount.Val -= byteToRead;
 10644   0018F8  5002               	movf	USBCtrlTrfRxService@byteToRead^0,w,c
 10645   0018FA  5FD5               	subwf	(_outPipes+4)& (0+255),f,b
 10646   0018FC  0E00               	movlw	0
 10647   0018FE  5BD6               	subwfb	(_outPipes+5)& (0+255),f,b
 10648   001900                     
 10649                           ; BSR set to: 0
 10650                           ;usb_device.c: 1878:     for(i=0;i<byteToRead;i++)
 10651   001900  0E00               	movlw	0
 10652   001902  6E01               	movwf	USBCtrlTrfRxService@i^0,c
 10653   001904  EF93  F00C         	goto	i2l4139
 10654   001908                     i2l4133:
 10655                           
 10656                           ; BSR set to: 0
 10657                           ;usb_device.c: 1879:     {;usb_device.c: 1880:         *outPipes[0].pDst.bRam++ = CtrlTr
      +                          fData[i];
 10658   001908  0E28               	movlw	40
 10659   00190A  2401               	addwf	USBCtrlTrfRxService@i^0,w,c
 10660   00190C  6ED9               	movwf	fsr2l,c
 10661   00190E  6ADA               	clrf	fsr2h,c
 10662   001910  0E04               	movlw	4
 10663   001912  22DA               	addwfc	fsr2h,f,c
 10664   001914  C0D1  FFE1         	movff	_outPipes,fsr1l
 10665   001918  C0D2  FFE2         	movff	_outPipes+1,fsr1h
 10666   00191C  CFDF FFE7          	movff	indf2,indf1
 10667   001920                     
 10668                           ; BSR set to: 0
 10669   001920  4BD1               	infsnz	_outPipes& (0+255),f,b
 10670   001922  2BD2               	incf	(_outPipes+1)& (0+255),f,b
 10671   001924                     
 10672                           ; BSR set to: 0
 10673                           ;usb_device.c: 1881:     }
 10674   001924  2A01               	incf	USBCtrlTrfRxService@i^0,f,c
 10675   001926                     i2l4139:
 10676                           
 10677                           ; BSR set to: 0
 10678   001926  5002               	movf	USBCtrlTrfRxService@byteToRead^0,w,c
 10679   001928  5C01               	subwf	USBCtrlTrfRxService@i^0,w,c
 10680   00192A  A0D8               	btfss	status,0,c
 10681   00192C  EF9A  F00C         	goto	i2u294_41
 10682   001930  EF9C  F00C         	goto	i2u294_40
 10683   001934                     i2u294_41:
 10684   001934  EF84  F00C         	goto	i2l4133
 10685   001938                     i2u294_40:
 10686   001938                     
 10687                           ; BSR set to: 0
 10688                           ;usb_device.c: 1885:     if(outPipes[0].wCount.Val > 0)
 10689   001938  51D5               	movf	(_outPipes+4)& (0+255),w,b
 10690   00193A  11D6               	iorwf	(_outPipes+5)& (0+255),w,b
 10691   00193C  B4D8               	btfsc	status,2,c
 10692   00193E  EFA3  F00C         	goto	i2u295_41
 10693   001942  EFA5  F00C         	goto	i2u295_40
 10694   001946                     i2u295_41:
 10695   001946  EFDE  F00C         	goto	i2l4155
 10696   00194A                     i2u295_40:
 10697   00194A                     
 10698                           ; BSR set to: 0
 10699                           ;usb_device.c: 1886:     {;usb_device.c: 1887:         pBDTEntryEP0OutNext->CNT = 8;
 10700   00194A  EE20 F001          	lfsr	2,1
 10701   00194E  5034               	movf	_pBDTEntryEP0OutNext^0,w,c
 10702   001950  26D9               	addwf	fsr2l,f,c
 10703   001952  5035               	movf	(_pBDTEntryEP0OutNext+1)^0,w,c
 10704   001954  22DA               	addwfc	fsr2h,f,c
 10705   001956  0E08               	movlw	8
 10706   001958  6EDF               	movwf	indf2,c
 10707                           
 10708                           ;usb_device.c: 1888:         pBDTEntryEP0OutNext->ADR = ((uint16_t)(&CtrlTrfData));
 10709   00195A  EE20 F002          	lfsr	2,2
 10710   00195E  5034               	movf	_pBDTEntryEP0OutNext^0,w,c
 10711   001960  26D9               	addwf	fsr2l,f,c
 10712   001962  5035               	movf	(_pBDTEntryEP0OutNext+1)^0,w,c
 10713   001964  22DA               	addwfc	fsr2h,f,c
 10714   001966  0E28               	movlw	40
 10715   001968  6EDE               	movwf	postinc2,c
 10716   00196A  0E04               	movlw	4
 10717   00196C  6EDD               	movwf	postdec2,c
 10718   00196E                     
 10719                           ; BSR set to: 0
 10720                           ;usb_device.c: 1889:         if(pBDTEntryEP0OutCurrent->STAT.DTS == 0)
 10721   00196E  C036  FFD9         	movff	_pBDTEntryEP0OutCurrent,fsr2l
 10722   001972  C037  FFDA         	movff	_pBDTEntryEP0OutCurrent+1,fsr2h
 10723   001976  BCDF               	btfsc	indf2,6,c
 10724   001978  EFC0  F00C         	goto	i2u296_41
 10725   00197C  EFC2  F00C         	goto	i2u296_40
 10726   001980                     i2u296_41:
 10727   001980  EFD0  F00C         	goto	i2l4151
 10728   001984                     i2u296_40:
 10729   001984                     
 10730                           ; BSR set to: 0
 10731                           ;usb_device.c: 1890:         {;usb_device.c: 1891:             pBDTEntryEP0OutNext->STAT
      +                          .Val = 0x40|(0x08 & 0x08);
 10732   001984  C034  FFD9         	movff	_pBDTEntryEP0OutNext,fsr2l
 10733   001988  C035  FFDA         	movff	_pBDTEntryEP0OutNext+1,fsr2h
 10734   00198C  0E48               	movlw	72
 10735   00198E  6EDF               	movwf	indf2,c
 10736   001990                     
 10737                           ; BSR set to: 0
 10738                           ;usb_device.c: 1892:             pBDTEntryEP0OutNext->STAT.Val |= 0x80;
 10739   001990  C034  FFD9         	movff	_pBDTEntryEP0OutNext,fsr2l
 10740   001994  C035  FFDA         	movff	_pBDTEntryEP0OutNext+1,fsr2h
 10741   001998  0E00               	movlw	0
 10742   00199A  8EDB               	bsf	plusw2,7,c
 10743                           
 10744                           ;usb_device.c: 1893:         }
 10745   00199C  EF07  F00D         	goto	i2l496
 10746   0019A0                     i2l4151:
 10747                           
 10748                           ; BSR set to: 0
 10749                           ;usb_device.c: 1895:         {;usb_device.c: 1896:             pBDTEntryEP0OutNext->STAT
      +                          .Val = 0x00|(0x08 & 0x08);
 10750   0019A0  C034  FFD9         	movff	_pBDTEntryEP0OutNext,fsr2l
 10751   0019A4  C035  FFDA         	movff	_pBDTEntryEP0OutNext+1,fsr2h
 10752   0019A8  0E08               	movlw	8
 10753   0019AA  6EDF               	movwf	indf2,c
 10754   0019AC                     
 10755                           ; BSR set to: 0
 10756                           ;usb_device.c: 1897:             pBDTEntryEP0OutNext->STAT.Val |= 0x80;
 10757   0019AC  C034  FFD9         	movff	_pBDTEntryEP0OutNext,fsr2l
 10758   0019B0  C035  FFDA         	movff	_pBDTEntryEP0OutNext+1,fsr2h
 10759   0019B4  0E00               	movlw	0
 10760   0019B6  8EDB               	bsf	plusw2,7,c
 10761   0019B8  EF07  F00D         	goto	i2l496
 10762   0019BC                     i2l4155:
 10763                           
 10764                           ; BSR set to: 0
 10765                           ;usb_device.c: 1901:     {;usb_device.c: 1905:         pBDTEntryEP0OutNext->CNT = 8;
 10766   0019BC  EE20 F001          	lfsr	2,1
 10767   0019C0  5034               	movf	_pBDTEntryEP0OutNext^0,w,c
 10768   0019C2  26D9               	addwf	fsr2l,f,c
 10769   0019C4  5035               	movf	(_pBDTEntryEP0OutNext+1)^0,w,c
 10770   0019C6  22DA               	addwfc	fsr2h,f,c
 10771   0019C8  0E08               	movlw	8
 10772   0019CA  6EDF               	movwf	indf2,c
 10773                           
 10774                           ;usb_device.c: 1906:         pBDTEntryEP0OutNext->ADR = ((uint16_t)(&SetupPkt));
 10775   0019CC  EE20 F002          	lfsr	2,2
 10776   0019D0  5034               	movf	_pBDTEntryEP0OutNext^0,w,c
 10777   0019D2  26D9               	addwf	fsr2l,f,c
 10778   0019D4  5035               	movf	(_pBDTEntryEP0OutNext+1)^0,w,c
 10779   0019D6  22DA               	addwfc	fsr2h,f,c
 10780   0019D8  0E20               	movlw	32
 10781   0019DA  6EDE               	movwf	postinc2,c
 10782   0019DC  0E04               	movlw	4
 10783   0019DE  6EDD               	movwf	postdec2,c
 10784   0019E0                     
 10785                           ; BSR set to: 0
 10786                           ;usb_device.c: 1910:         pBDTEntryEP0OutNext->STAT.Val = 0x04;
 10787   0019E0  C034  FFD9         	movff	_pBDTEntryEP0OutNext,fsr2l
 10788   0019E4  C035  FFDA         	movff	_pBDTEntryEP0OutNext+1,fsr2h
 10789   0019E8  0E04               	movlw	4
 10790   0019EA  6EDF               	movwf	indf2,c
 10791   0019EC                     
 10792                           ; BSR set to: 0
 10793                           ;usb_device.c: 1911:         pBDTEntryEP0OutNext->STAT.Val |= 0x80;
 10794   0019EC  C034  FFD9         	movff	_pBDTEntryEP0OutNext,fsr2l
 10795   0019F0  C035  FFDA         	movff	_pBDTEntryEP0OutNext+1,fsr2h
 10796   0019F4  0E00               	movlw	0
 10797   0019F6  8EDB               	bsf	plusw2,7,c
 10798   0019F8                     
 10799                           ; BSR set to: 0
 10800   0019F8  9FD4               	bcf	(_outPipes+3)& (0+255),7,b
 10801   0019FA                     
 10802                           ; BSR set to: 0
 10803                           ;usb_device.c: 1945:         if(USBDeferStatusStagePacket == 0)
 10804   0019FA  503E               	movf	_USBDeferStatusStagePacket^0,w,c	;volatile
 10805   0019FC  A4D8               	btfss	status,2,c
 10806   0019FE  EF03  F00D         	goto	i2u297_41
 10807   001A02  EF05  F00D         	goto	i2u297_40
 10808   001A06                     i2u297_41:
 10809   001A06  EF07  F00D         	goto	i2l496
 10810   001A0A                     i2u297_40:
 10811   001A0A                     
 10812                           ; BSR set to: 0
 10813                           ;usb_device.c: 1946:         {;usb_device.c: 1947:             USBCtrlEPAllowStatusStage
      +                          ();
 10814   001A0A  EC10  F012         	call	_USBCtrlEPAllowStatusStage	;wreg free
 10815   001A0E                     i2l496:
 10816   001A0E  0012               	return		;funcret
 10817   001A10                     __end_of_USBCtrlTrfRxService:
 10818                           	callstack 0
 10819                           
 10820 ;; *************** function _USBCtrlEPAllowStatusStage *****************
 10821 ;; Defined at:
 10822 ;;		line 1420 in file "usb_device.c"
 10823 ;; Parameters:    Size  Location     Type
 10824 ;;		None
 10825 ;; Auto vars:     Size  Location     Type
 10826 ;;		None
 10827 ;; Return value:  Size  Location     Type
 10828 ;;                  1    wreg      void 
 10829 ;; Registers used:
 10830 ;;		wreg, fsr2l, fsr2h, status,2, status,0
 10831 ;; Tracked objects:
 10832 ;;		On entry : 0/0
 10833 ;;		On exit  : 0/0
 10834 ;;		Unchanged: 0/0
 10835 ;; Data sizes:     COMRAM   BANK0   BANK1   BANK2   BANK3   BANK4   BANK5   BANK6   BANK7
 10836 ;;      Params:         0       0       0       0       0       0       0       0       0
 10837 ;;      Locals:         0       0       0       0       0       0       0       0       0
 10838 ;;      Temps:          0       0       0       0       0       0       0       0       0
 10839 ;;      Totals:         0       0       0       0       0       0       0       0       0
 10840 ;;Total ram usage:        0 bytes
 10841 ;; Hardware stack levels used: 1
 10842 ;; This function calls:
 10843 ;;		Nothing
 10844 ;; This function is called by:
 10845 ;;		_USBCtrlEPServiceComplete
 10846 ;;		_USBCtrlTrfRxService
 10847 ;; This function uses a non-reentrant model
 10848 ;;
 10849                           
 10850                           	psect	text60
 10851   002420                     __ptext60:
 10852                           	callstack 0
 10853   002420                     _USBCtrlEPAllowStatusStage:
 10854                           	callstack 16
 10855   002420                     
 10856                           ;usb_device.c: 1427:     if(USBStatusStageEnabledFlag1 == 0)
 10857   002420  503D               	movf	_USBStatusStageEnabledFlag1^0,w,c	;volatile
 10858   002422  A4D8               	btfss	status,2,c
 10859   002424  EF16  F012         	goto	i2u239_41
 10860   002428  EF18  F012         	goto	i2u239_40
 10861   00242C                     i2u239_41:
 10862   00242C  EF88  F012         	goto	i2l444
 10863   002430                     i2u239_40:
 10864   002430                     
 10865                           ;usb_device.c: 1428:     {;usb_device.c: 1429:         USBStatusStageEnabledFlag1 = 1;
 10866   002430  0E01               	movlw	1
 10867   002432  6E3D               	movwf	_USBStatusStageEnabledFlag1^0,c	;volatile
 10868                           
 10869                           ;usb_device.c: 1430:         if(USBStatusStageEnabledFlag2 == 0)
 10870   002434  503C               	movf	_USBStatusStageEnabledFlag2^0,w,c	;volatile
 10871   002436  A4D8               	btfss	status,2,c
 10872   002438  EF20  F012         	goto	i2u240_41
 10873   00243C  EF22  F012         	goto	i2u240_40
 10874   002440                     i2u240_41:
 10875   002440  EF88  F012         	goto	i2l444
 10876   002444                     i2u240_40:
 10877   002444                     
 10878                           ;usb_device.c: 1431:         {;usb_device.c: 1432:             USBStatusStageEnabledFlag
      +                          2 = 1;
 10879   002444  0E01               	movlw	1
 10880   002446  6E3C               	movwf	_USBStatusStageEnabledFlag2^0,c	;volatile
 10881   002448                     
 10882                           ;usb_device.c: 1436:             if(controlTransferState == 2)
 10883   002448  0E02               	movlw	2
 10884   00244A  1843               	xorwf	_controlTransferState^0,w,c
 10885   00244C  A4D8               	btfss	status,2,c
 10886   00244E  EF2B  F012         	goto	i2u241_41
 10887   002452  EF2D  F012         	goto	i2u241_40
 10888   002456                     i2u241_41:
 10889   002456  EF44  F012         	goto	i2l3785
 10890   00245A                     i2u241_40:
 10891   00245A                     
 10892                           ;usb_device.c: 1437:             {;usb_device.c: 1438:                 pBDTEntryIn[0]->C
      +                          NT = 0;
 10893   00245A  0100               	movlb	0	; () banked
 10894   00245C  EE20 F001          	lfsr	2,1
 10895   002460  51E3               	movf	_pBDTEntryIn& (0+255),w,b
 10896   002462  26D9               	addwf	fsr2l,f,c
 10897   002464  51E4               	movf	(_pBDTEntryIn+1)& (0+255),w,b
 10898   002466  22DA               	addwfc	fsr2h,f,c
 10899   002468  0E00               	movlw	0
 10900   00246A  6EDF               	movwf	indf2,c
 10901   00246C                     
 10902                           ; BSR set to: 0
 10903                           ;usb_device.c: 1439:                 pBDTEntryIn[0]->STAT.Val = 0x40|(0x08 & 0x08);
 10904   00246C  C0E3  FFD9         	movff	_pBDTEntryIn,fsr2l
 10905   002470  C0E4  FFDA         	movff	_pBDTEntryIn+1,fsr2h
 10906   002474  0E48               	movlw	72
 10907   002476  6EDF               	movwf	indf2,c
 10908   002478                     
 10909                           ; BSR set to: 0
 10910                           ;usb_device.c: 1440:                 pBDTEntryIn[0]->STAT.Val |= 0x80;
 10911   002478  C0E3  FFD9         	movff	_pBDTEntryIn,fsr2l
 10912   00247C  C0E4  FFDA         	movff	_pBDTEntryIn+1,fsr2h
 10913   002480  0E00               	movlw	0
 10914   002482  8EDB               	bsf	plusw2,7,c
 10915                           
 10916                           ;usb_device.c: 1441:             }
 10917   002484  EF88  F012         	goto	i2l444
 10918   002488                     i2l3785:
 10919   002488  0443               	decf	_controlTransferState^0,w,c
 10920   00248A  A4D8               	btfss	status,2,c
 10921   00248C  EF4A  F012         	goto	i2u242_41
 10922   002490  EF4C  F012         	goto	i2u242_40
 10923   002494                     i2u242_41:
 10924   002494  EF88  F012         	goto	i2l440
 10925   002498                     i2u242_40:
 10926   002498                     
 10927                           ;usb_device.c: 1443:             {;usb_device.c: 1444:                 BothEP0OutUOWNsSe
      +                          t = 0;
 10928   002498  0E00               	movlw	0
 10929   00249A  6E40               	movwf	_BothEP0OutUOWNsSet^0,c
 10930   00249C                     
 10931                           ;usb_device.c: 1449:                     pBDTEntryEP0OutCurrent->CNT = 8;
 10932   00249C  EE20 F001          	lfsr	2,1
 10933   0024A0  5036               	movf	_pBDTEntryEP0OutCurrent^0,w,c
 10934   0024A2  26D9               	addwf	fsr2l,f,c
 10935   0024A4  5037               	movf	(_pBDTEntryEP0OutCurrent+1)^0,w,c
 10936   0024A6  22DA               	addwfc	fsr2h,f,c
 10937   0024A8  0E08               	movlw	8
 10938   0024AA  6EDF               	movwf	indf2,c
 10939   0024AC                     
 10940                           ;usb_device.c: 1450:                     pBDTEntryEP0OutCurrent->ADR = ((uint16_t)(&Setu
      +                          pPkt));
 10941   0024AC  EE20 F002          	lfsr	2,2
 10942   0024B0  5036               	movf	_pBDTEntryEP0OutCurrent^0,w,c
 10943   0024B2  26D9               	addwf	fsr2l,f,c
 10944   0024B4  5037               	movf	(_pBDTEntryEP0OutCurrent+1)^0,w,c
 10945   0024B6  22DA               	addwfc	fsr2h,f,c
 10946   0024B8  0E20               	movlw	32
 10947   0024BA  6EDE               	movwf	postinc2,c
 10948   0024BC  0E04               	movlw	4
 10949   0024BE  6EDD               	movwf	postdec2,c
 10950   0024C0                     
 10951                           ;usb_device.c: 1451:                     pBDTEntryEP0OutCurrent->STAT.Val = 0x04;
 10952   0024C0  C036  FFD9         	movff	_pBDTEntryEP0OutCurrent,fsr2l
 10953   0024C4  C037  FFDA         	movff	_pBDTEntryEP0OutCurrent+1,fsr2h
 10954   0024C8  0E04               	movlw	4
 10955   0024CA  6EDF               	movwf	indf2,c
 10956   0024CC                     
 10957                           ;usb_device.c: 1452:                     pBDTEntryEP0OutCurrent->STAT.Val |= 0x80;
 10958   0024CC  C036  FFD9         	movff	_pBDTEntryEP0OutCurrent,fsr2l
 10959   0024D0  C037  FFDA         	movff	_pBDTEntryEP0OutCurrent+1,fsr2h
 10960   0024D4  0E00               	movlw	0
 10961   0024D6  8EDB               	bsf	plusw2,7,c
 10962   0024D8                     
 10963                           ;usb_device.c: 1453:                     BothEP0OutUOWNsSet = 1;
 10964   0024D8  0E01               	movlw	1
 10965   0024DA  6E40               	movwf	_BothEP0OutUOWNsSet^0,c
 10966   0024DC                     
 10967                           ;usb_device.c: 1457:                 pBDTEntryEP0OutNext->CNT = 8;
 10968   0024DC  EE20 F001          	lfsr	2,1
 10969   0024E0  5034               	movf	_pBDTEntryEP0OutNext^0,w,c
 10970   0024E2  26D9               	addwf	fsr2l,f,c
 10971   0024E4  5035               	movf	(_pBDTEntryEP0OutNext+1)^0,w,c
 10972   0024E6  22DA               	addwfc	fsr2h,f,c
 10973   0024E8  0E08               	movlw	8
 10974   0024EA  6EDF               	movwf	indf2,c
 10975   0024EC                     
 10976                           ;usb_device.c: 1458:                 pBDTEntryEP0OutNext->ADR = ((uint16_t)(&SetupPkt));
 10977   0024EC  EE20 F002          	lfsr	2,2
 10978   0024F0  5034               	movf	_pBDTEntryEP0OutNext^0,w,c
 10979   0024F2  26D9               	addwf	fsr2l,f,c
 10980   0024F4  5035               	movf	(_pBDTEntryEP0OutNext+1)^0,w,c
 10981   0024F6  22DA               	addwfc	fsr2h,f,c
 10982   0024F8  0E20               	movlw	32
 10983   0024FA  6EDE               	movwf	postinc2,c
 10984   0024FC  0E04               	movlw	4
 10985   0024FE  6EDD               	movwf	postdec2,c
 10986   002500                     
 10987                           ;usb_device.c: 1459:                 pBDTEntryEP0OutNext->STAT.Val = 0x80;
 10988   002500  C034  FFD9         	movff	_pBDTEntryEP0OutNext,fsr2l
 10989   002504  C035  FFDA         	movff	_pBDTEntryEP0OutNext+1,fsr2h
 10990   002508  0E80               	movlw	128
 10991   00250A  6EDF               	movwf	indf2,c
 10992   00250C  EF88  F012         	goto	i2l444
 10993   002510                     i2l440:
 10994   002510                     i2l444:
 10995   002510  0012               	return		;funcret
 10996   002512                     __end_of_USBCtrlEPAllowStatusStage:
 10997                           	callstack 0
 10998                           
 10999 ;; *************** function _USBCtrlTrfInHandler *****************
 11000 ;; Defined at:
 11001 ;;		line 2599 in file "usb_device.c"
 11002 ;; Parameters:    Size  Location     Type
 11003 ;;		None
 11004 ;; Auto vars:     Size  Location     Type
 11005 ;;  lastDTS         1    1[COMRAM] unsigned char 
 11006 ;; Return value:  Size  Location     Type
 11007 ;;                  1    wreg      void 
 11008 ;; Registers used:
 11009 ;;		wreg, fsr1l, fsr1h, fsr2l, fsr2h, status,2, status,0, tblptrl, tblptrh, tblptru, cstack
 11010 ;; Tracked objects:
 11011 ;;		On entry : 0/0
 11012 ;;		On exit  : 0/0
 11013 ;;		Unchanged: 0/0
 11014 ;; Data sizes:     COMRAM   BANK0   BANK1   BANK2   BANK3   BANK4   BANK5   BANK6   BANK7
 11015 ;;      Params:         0       0       0       0       0       0       0       0       0
 11016 ;;      Locals:         1       0       0       0       0       0       0       0       0
 11017 ;;      Temps:          0       0       0       0       0       0       0       0       0
 11018 ;;      Totals:         1       0       0       0       0       0       0       0       0
 11019 ;;Total ram usage:        1 bytes
 11020 ;; Hardware stack levels used: 1
 11021 ;; Hardware stack levels required when called: 1
 11022 ;; This function calls:
 11023 ;;		_USBCtrlTrfTxService
 11024 ;; This function is called by:
 11025 ;;		_USBCtrlEPService
 11026 ;; This function uses a non-reentrant model
 11027 ;;
 11028                           
 11029                           	psect	text61
 11030   002014                     __ptext61:
 11031                           	callstack 0
 11032   002014                     _USBCtrlTrfInHandler:
 11033                           	callstack 17
 11034   002014                     
 11035                           ;usb_device.c: 2601:     uint8_t lastDTS;;usb_device.c: 2603:     lastDTS = pBDTEntryIn[
      +                          0]->STAT.DTS;
 11036   002014  C0E3  FFD9         	movff	_pBDTEntryIn,fsr2l
 11037   002018  C0E4  FFDA         	movff	_pBDTEntryIn+1,fsr2h
 11038   00201C  0100               	movlb	0	; () banked
 11039   00201E  0E00               	movlw	0
 11040   002020  BCDF               	btfsc	indf2,6,c
 11041   002022  0E01               	movlw	1
 11042   002024  6E02               	movwf	USBCtrlTrfInHandler@lastDTS^0,c
 11043   002026                     
 11044                           ; BSR set to: 0
 11045                           ;usb_device.c: 2606:     pBDTEntryIn[0] = (volatile BDT_ENTRY*)(((uint16_t)pBDTEntryIn[0
      +                          ]) ^ 0x0004);
 11046   002026  0E04               	movlw	4
 11047   002028  19E3               	xorwf	_pBDTEntryIn& (0+255),w,b
 11048   00202A  6FE3               	movwf	_pBDTEntryIn& (0+255),b
 11049   00202C  51E4               	movf	(_pBDTEntryIn+1)& (0+255),w,b
 11050   00202E  6FE4               	movwf	(_pBDTEntryIn+1)& (0+255),b
 11051   002030                     
 11052                           ; BSR set to: 0
 11053                           ;usb_device.c: 2611:     if(USBDeviceState == ADR_PENDING_STATE)
 11054   002030  0E08               	movlw	8
 11055   002032  0101               	movlb	1	; () banked
 11056   002034  1974               	xorwf	_USBDeviceState& (0+255),w,b
 11057   002036  A4D8               	btfss	status,2,c
 11058   002038  EF20  F010         	goto	i2u311_41
 11059   00203C  EF22  F010         	goto	i2u311_40
 11060   002040                     i2u311_41:
 11061   002040  EF36  F010         	goto	i2l4337
 11062   002044                     i2u311_40:
 11063   002044                     
 11064                           ; BSR set to: 1
 11065                           ;usb_device.c: 2612:     {;usb_device.c: 2613:         UADDR = (SetupPkt.bDevADR & 0x7F)
      +                          ;
 11066   002044  0104               	movlb	4	; () banked
 11067   002046  5122               	movf	34,w,b	;volatile
 11068   002048  0B7F               	andlw	127
 11069   00204A  6E6E               	movwf	110,c	;volatile
 11070   00204C                     
 11071                           ; BSR set to: 4
 11072                           ;usb_device.c: 2614:         if(UADDR != 0u)
 11073   00204C  506E               	movf	110,w,c	;volatile
 11074   00204E  B4D8               	btfsc	status,2,c
 11075   002050  EF2C  F010         	goto	i2u312_41
 11076   002054  EF2E  F010         	goto	i2u312_40
 11077   002058                     i2u312_41:
 11078   002058  EF33  F010         	goto	i2l4335
 11079   00205C                     i2u312_40:
 11080   00205C                     
 11081                           ; BSR set to: 4
 11082                           ;usb_device.c: 2615:         {;usb_device.c: 2616:             USBDeviceState=ADDRESS_ST
      +                          ATE;
 11083   00205C  0E10               	movlw	16
 11084   00205E  0101               	movlb	1	; () banked
 11085   002060  6F74               	movwf	_USBDeviceState& (0+255),b
 11086                           
 11087                           ;usb_device.c: 2617:         }
 11088   002062  EF36  F010         	goto	i2l4337
 11089   002066                     i2l4335:
 11090                           
 11091                           ; BSR set to: 4
 11092                           ;usb_device.c: 2619:         {;usb_device.c: 2620:             USBDeviceState=DEFAULT_ST
      +                          ATE;
 11093   002066  0E04               	movlw	4
 11094   002068  0101               	movlb	1	; () banked
 11095   00206A  6F74               	movwf	_USBDeviceState& (0+255),b
 11096   00206C                     i2l4337:
 11097                           
 11098                           ; BSR set to: 1
 11099                           ;usb_device.c: 2625:     if(controlTransferState == 1)
 11100   00206C  0443               	decf	_controlTransferState^0,w,c
 11101   00206E  A4D8               	btfss	status,2,c
 11102   002070  EF3C  F010         	goto	i2u313_41
 11103   002074  EF3E  F010         	goto	i2u313_40
 11104   002078                     i2u313_41:
 11105   002078  EF86  F010         	goto	i2l570
 11106   00207C                     i2u313_40:
 11107   00207C                     
 11108                           ; BSR set to: 1
 11109                           ;usb_device.c: 2626:     {;usb_device.c: 2627:         pBDTEntryIn[0]->ADR = ((uint16_t)
      +                          (CtrlTrfData));
 11110   00207C  0100               	movlb	0	; () banked
 11111   00207E  EE20 F002          	lfsr	2,2
 11112   002082  51E3               	movf	_pBDTEntryIn& (0+255),w,b
 11113   002084  26D9               	addwf	fsr2l,f,c
 11114   002086  51E4               	movf	(_pBDTEntryIn+1)& (0+255),w,b
 11115   002088  22DA               	addwfc	fsr2h,f,c
 11116   00208A  0E28               	movlw	40
 11117   00208C  6EDE               	movwf	postinc2,c
 11118   00208E  0E04               	movlw	4
 11119   002090  6EDD               	movwf	postdec2,c
 11120   002092                     
 11121                           ; BSR set to: 0
 11122                           ;usb_device.c: 2628:         USBCtrlTrfTxService();
 11123   002092  EC92  F010         	call	_USBCtrlTrfTxService	;wreg free
 11124   002096                     
 11125                           ;usb_device.c: 2634:         if(shortPacketStatus == 2)
 11126   002096  0E02               	movlw	2
 11127   002098  1844               	xorwf	_shortPacketStatus^0,w,c
 11128   00209A  A4D8               	btfss	status,2,c
 11129   00209C  EF52  F010         	goto	i2u314_41
 11130   0020A0  EF54  F010         	goto	i2u314_40
 11131   0020A4                     i2u314_41:
 11132   0020A4  EF62  F010         	goto	i2l4349
 11133   0020A8                     i2u314_40:
 11134   0020A8                     
 11135                           ;usb_device.c: 2635:         {;usb_device.c: 2638:             pBDTEntryIn[0]->STAT.Val 
      +                          = 0x04;
 11136   0020A8  C0E3  FFD9         	movff	_pBDTEntryIn,fsr2l
 11137   0020AC  C0E4  FFDA         	movff	_pBDTEntryIn+1,fsr2h
 11138   0020B0  0E04               	movlw	4
 11139   0020B2  6EDF               	movwf	indf2,c
 11140   0020B4                     
 11141                           ;usb_device.c: 2639:             pBDTEntryIn[0]->STAT.Val |= 0x80;
 11142   0020B4  C0E3  FFD9         	movff	_pBDTEntryIn,fsr2l
 11143   0020B8  C0E4  FFDA         	movff	_pBDTEntryIn+1,fsr2h
 11144   0020BC  0E00               	movlw	0
 11145   0020BE  8EDB               	bsf	plusw2,7,c
 11146                           
 11147                           ;usb_device.c: 2640:         }
 11148   0020C0  EF91  F010         	goto	i2l578
 11149   0020C4                     i2l4349:
 11150                           
 11151                           ;usb_device.c: 2642:         {;usb_device.c: 2643:             if(lastDTS == 0)
 11152   0020C4  5002               	movf	USBCtrlTrfInHandler@lastDTS^0,w,c
 11153   0020C6  A4D8               	btfss	status,2,c
 11154   0020C8  EF68  F010         	goto	i2u315_41
 11155   0020CC  EF6A  F010         	goto	i2u315_40
 11156   0020D0                     i2u315_41:
 11157   0020D0  EF78  F010         	goto	i2l4355
 11158   0020D4                     i2u315_40:
 11159   0020D4                     
 11160                           ;usb_device.c: 2644:             {;usb_device.c: 2645:                 pBDTEntryIn[0]->S
      +                          TAT.Val = 0x40|(0x08 & 0x08);
 11161   0020D4  C0E3  FFD9         	movff	_pBDTEntryIn,fsr2l
 11162   0020D8  C0E4  FFDA         	movff	_pBDTEntryIn+1,fsr2h
 11163   0020DC  0E48               	movlw	72
 11164   0020DE  6EDF               	movwf	indf2,c
 11165   0020E0                     
 11166                           ;usb_device.c: 2646:                 pBDTEntryIn[0]->STAT.Val |= 0x80;
 11167   0020E0  C0E3  FFD9         	movff	_pBDTEntryIn,fsr2l
 11168   0020E4  C0E4  FFDA         	movff	_pBDTEntryIn+1,fsr2h
 11169   0020E8  0E00               	movlw	0
 11170   0020EA  8EDB               	bsf	plusw2,7,c
 11171                           
 11172                           ;usb_device.c: 2647:             }
 11173   0020EC  EF91  F010         	goto	i2l578
 11174   0020F0                     i2l4355:
 11175                           
 11176                           ;usb_device.c: 2649:             {;usb_device.c: 2650:                 pBDTEntryIn[0]->S
      +                          TAT.Val = 0x00|(0x08 & 0x08);
 11177   0020F0  C0E3  FFD9         	movff	_pBDTEntryIn,fsr2l
 11178   0020F4  C0E4  FFDA         	movff	_pBDTEntryIn+1,fsr2h
 11179   0020F8  0E08               	movlw	8
 11180   0020FA  6EDF               	movwf	indf2,c
 11181   0020FC                     
 11182                           ;usb_device.c: 2651:                 pBDTEntryIn[0]->STAT.Val |= 0x80;
 11183   0020FC  C0E3  FFD9         	movff	_pBDTEntryIn,fsr2l
 11184   002100  C0E4  FFDA         	movff	_pBDTEntryIn+1,fsr2h
 11185   002104  0E00               	movlw	0
 11186   002106  8EDB               	bsf	plusw2,7,c
 11187   002108  EF91  F010         	goto	i2l578
 11188   00210C                     i2l570:
 11189                           
 11190                           ; BSR set to: 1
 11191                           ;usb_device.c: 2656:  {;usb_device.c: 2660:         if(outPipes[0].info.bits.busy == 1)
 11192   00210C  0100               	movlb	0	; () banked
 11193   00210E  AFD4               	btfss	(_outPipes+3)& (0+255),7,b
 11194   002110  EF8C  F010         	goto	i2u316_41
 11195   002114  EF8E  F010         	goto	i2u316_40
 11196   002118                     i2u316_41:
 11197   002118  EF8F  F010         	goto	i2l4361
 11198   00211C                     i2u316_40:
 11199   00211C                     
 11200                           ; BSR set to: 0
 11201                           ;usb_device.c: 2666:             outPipes[0].info.bits.busy = 0;
 11202   00211C  9FD4               	bcf	(_outPipes+3)& (0+255),7,b
 11203   00211E                     i2l4361:
 11204                           
 11205                           ; BSR set to: 0
 11206                           ;usb_device.c: 2669:         controlTransferState = 0;
 11207   00211E  0E00               	movlw	0
 11208   002120  6E43               	movwf	_controlTransferState^0,c
 11209   002122                     i2l578:
 11210   002122  0012               	return		;funcret
 11211   002124                     __end_of_USBCtrlTrfInHandler:
 11212                           	callstack 0
 11213                           
 11214 ;; *************** function _USBCtrlTrfTxService *****************
 11215 ;; Defined at:
 11216 ;;		line 1775 in file "usb_device.c"
 11217 ;; Parameters:    Size  Location     Type
 11218 ;;		None
 11219 ;; Auto vars:     Size  Location     Type
 11220 ;;  byteToSend      1    0[COMRAM] unsigned char 
 11221 ;; Return value:  Size  Location     Type
 11222 ;;                  1    wreg      void 
 11223 ;; Registers used:
 11224 ;;		wreg, fsr1l, fsr1h, fsr2l, fsr2h, status,2, status,0, tblptrl, tblptrh, tblptru
 11225 ;; Tracked objects:
 11226 ;;		On entry : 0/0
 11227 ;;		On exit  : 0/0
 11228 ;;		Unchanged: 0/0
 11229 ;; Data sizes:     COMRAM   BANK0   BANK1   BANK2   BANK3   BANK4   BANK5   BANK6   BANK7
 11230 ;;      Params:         0       0       0       0       0       0       0       0       0
 11231 ;;      Locals:         1       0       0       0       0       0       0       0       0
 11232 ;;      Temps:          0       0       0       0       0       0       0       0       0
 11233 ;;      Totals:         1       0       0       0       0       0       0       0       0
 11234 ;;Total ram usage:        1 bytes
 11235 ;; Hardware stack levels used: 1
 11236 ;; This function calls:
 11237 ;;		Nothing
 11238 ;; This function is called by:
 11239 ;;		_USBCtrlEPAllowDataStage
 11240 ;;		_USBCtrlTrfInHandler
 11241 ;; This function uses a non-reentrant model
 11242 ;;
 11243                           
 11244                           	psect	text62
 11245   002124                     __ptext62:
 11246                           	callstack 0
 11247   002124                     _USBCtrlTrfTxService:
 11248                           	callstack 15
 11249   002124                     
 11250                           ;usb_device.c: 1777:     uint8_t byteToSend;;usb_device.c: 1781:     byteToSend = 8;
 11251   002124  0E08               	movlw	8
 11252   002126  6E01               	movwf	USBCtrlTrfTxService@byteToSend^0,c
 11253   002128                     
 11254                           ;usb_device.c: 1782:     if(inPipes[0].wCount.Val < (uint8_t)8)
 11255   002128  0100               	movlb	0	; () banked
 11256   00212A  51DE               	movf	(_inPipes+5)& (0+255),w,b
 11257   00212C  E107               	bnz	i2u225_41
 11258   00212E  0E08               	movlw	8
 11259   002130  5DDD               	subwf	(_inPipes+4)& (0+255),w,b
 11260   002132  B0D8               	btfsc	status,0,c
 11261   002134  EF9E  F010         	goto	i2u225_41
 11262   002138  EFA0  F010         	goto	i2u225_40
 11263   00213C                     i2u225_41:
 11264   00213C  EFB8  F010         	goto	i2l3701
 11265   002140                     i2u225_40:
 11266   002140                     
 11267                           ; BSR set to: 0
 11268                           ;usb_device.c: 1783:     {;usb_device.c: 1784:         byteToSend = inPipes[0].wCount.Va
      +                          l;
 11269   002140  C0DD  F001         	movff	_inPipes+4,USBCtrlTrfTxService@byteToSend
 11270   002144                     
 11271                           ; BSR set to: 0
 11272                           ;usb_device.c: 1791:         if(shortPacketStatus == 0)
 11273   002144  5044               	movf	_shortPacketStatus^0,w,c
 11274   002146  A4D8               	btfss	status,2,c
 11275   002148  EFA8  F010         	goto	i2u226_41
 11276   00214C  EFAA  F010         	goto	i2u226_40
 11277   002150                     i2u226_41:
 11278   002150  EFAE  F010         	goto	i2l3697
 11279   002154                     i2u226_40:
 11280   002154                     
 11281                           ; BSR set to: 0
 11282                           ;usb_device.c: 1792:         {;usb_device.c: 1793:             shortPacketStatus = 1;
 11283   002154  0E01               	movlw	1
 11284   002156  6E44               	movwf	_shortPacketStatus^0,c
 11285                           
 11286                           ;usb_device.c: 1794:         }
 11287   002158  EFB8  F010         	goto	i2l3701
 11288   00215C                     i2l3697:
 11289                           
 11290                           ; BSR set to: 0
 11291   00215C  0444               	decf	_shortPacketStatus^0,w,c
 11292   00215E  A4D8               	btfss	status,2,c
 11293   002160  EFB4  F010         	goto	i2u227_41
 11294   002164  EFB6  F010         	goto	i2u227_40
 11295   002168                     i2u227_41:
 11296   002168  EFB8  F010         	goto	i2l3701
 11297   00216C                     i2u227_40:
 11298   00216C                     
 11299                           ; BSR set to: 0
 11300                           ;usb_device.c: 1796:         {;usb_device.c: 1797:             shortPacketStatus = 2;
 11301   00216C  0E02               	movlw	2
 11302   00216E  6E44               	movwf	_shortPacketStatus^0,c
 11303   002170                     i2l3701:
 11304                           
 11305                           ; BSR set to: 0
 11306                           ;usb_device.c: 1803:     inPipes[0].wCount.Val -= byteToSend;
 11307   002170  5001               	movf	USBCtrlTrfTxService@byteToSend^0,w,c
 11308   002172  5FDD               	subwf	(_inPipes+4)& (0+255),f,b
 11309   002174  0E00               	movlw	0
 11310   002176  5BDE               	subwfb	(_inPipes+5)& (0+255),f,b
 11311   002178                     
 11312                           ; BSR set to: 0
 11313                           ;usb_device.c: 1808:     pBDTEntryIn[0]->CNT = byteToSend;
 11314   002178  EE20 F001          	lfsr	2,1
 11315   00217C  51E3               	movf	_pBDTEntryIn& (0+255),w,b
 11316   00217E  26D9               	addwf	fsr2l,f,c
 11317   002180  51E4               	movf	(_pBDTEntryIn+1)& (0+255),w,b
 11318   002182  22DA               	addwfc	fsr2h,f,c
 11319   002184  C001  FFDF         	movff	USBCtrlTrfTxService@byteToSend,indf2
 11320   002188                     
 11321                           ; BSR set to: 0
 11322                           ;usb_device.c: 1812:     pDst = ( uint8_t*)CtrlTrfData;
 11323   002188  0E28               	movlw	40
 11324   00218A  6E32               	movwf	_pDst^0,c
 11325   00218C  0E04               	movlw	4
 11326   00218E  6E33               	movwf	(_pDst+1)^0,c
 11327   002190                     
 11328                           ; BSR set to: 0
 11329                           ;usb_device.c: 1813:     if(inPipes[0].info.bits.ctrl_trf_mem == 0x00)
 11330   002190  B1DC               	btfsc	(_inPipes+3)& (0+255),0,b
 11331   002192  EFCD  F010         	goto	i2u228_41
 11332   002196  EFCF  F010         	goto	i2u228_40
 11333   00219A                     i2u228_41:
 11334   00219A  EF11  F011         	goto	i2l3729
 11335   00219E                     i2u228_40:
 11336   00219E  EFEC  F010         	goto	i2l3719
 11337   0021A2                     i2l3711:
 11338                           
 11339                           ; BSR set to: 0
 11340                           ;usb_device.c: 1816:         {;usb_device.c: 1817:             *pDst++ = *inPipes[0].pSr
      +                          c.bRom++;
 11341   0021A2  C0D9  FFF6         	movff	_inPipes,tblptrl
 11342   0021A6  C0DA  FFF7         	movff	_inPipes+1,tblptrh
 11343   0021AA  6AF8               	clrf	tblptru,c
 11344   0021AC  C032  FFD9         	movff	_pDst,fsr2l
 11345   0021B0  C033  FFDA         	movff	_pDst+1,fsr2h
 11346   0021B4  0E07               	movlw	(high __ramtop+-1)
 11347   0021B6  64F7               	cpfsgt	tblptrh,c
 11348   0021B8  D003               	bra	i2u229_47
 11349   0021BA  0008               	tblrd		*
 11350   0021BC  50F5               	movf	tablat,w,c
 11351   0021BE  D005               	bra	i2u229_40
 11352   0021C0                     i2u229_47:
 11353   0021C0  CFF6 FFE1          	movff	tblptrl,fsr1l
 11354   0021C4  CFF7 FFE2          	movff	tblptrh,fsr1h
 11355   0021C8  50E7               	movf	indf1,w,c
 11356   0021CA                     i2u229_40:
 11357   0021CA  6EDF               	movwf	indf2,c
 11358   0021CC  0100               	movlb	0	; () banked
 11359   0021CE  4BD9               	infsnz	_inPipes& (0+255),f,b
 11360   0021D0  2BDA               	incf	(_inPipes+1)& (0+255),f,b
 11361   0021D2                     
 11362                           ; BSR set to: 0
 11363   0021D2  4A32               	infsnz	_pDst^0,f,c
 11364   0021D4  2A33               	incf	(_pDst+1)^0,f,c
 11365   0021D6                     
 11366                           ; BSR set to: 0
 11367                           ;usb_device.c: 1818:             byteToSend--;
 11368   0021D6  0601               	decf	USBCtrlTrfTxService@byteToSend^0,f,c
 11369   0021D8                     i2l3719:
 11370                           
 11371                           ; BSR set to: 0
 11372                           ;usb_device.c: 1815:         while(byteToSend)
 11373   0021D8  5001               	movf	USBCtrlTrfTxService@byteToSend^0,w,c
 11374   0021DA  A4D8               	btfss	status,2,c
 11375   0021DC  EFF2  F010         	goto	i2u230_41
 11376   0021E0  EFF4  F010         	goto	i2u230_40
 11377   0021E4                     i2u230_41:
 11378   0021E4  EFD1  F010         	goto	i2l3711
 11379   0021E8                     i2u230_40:
 11380   0021E8  EF19  F011         	goto	i2l483
 11381   0021EC                     i2l3721:
 11382                           
 11383                           ; BSR set to: 0
 11384                           ;usb_device.c: 1824:         {;usb_device.c: 1825:             *pDst++ = *inPipes[0].pSr
      +                          c.bRam++;
 11385   0021EC  C0D9  FFF6         	movff	_inPipes,tblptrl
 11386   0021F0  C0DA  FFF7         	movff	_inPipes+1,tblptrh
 11387   0021F4  6AF8               	clrf	tblptru,c
 11388   0021F6  C032  FFD9         	movff	_pDst,fsr2l
 11389   0021FA  C033  FFDA         	movff	_pDst+1,fsr2h
 11390   0021FE  0E07               	movlw	(high __ramtop+-1)
 11391   002200  64F7               	cpfsgt	tblptrh,c
 11392   002202  D003               	bra	i2u231_47
 11393   002204  0008               	tblrd		*
 11394   002206  50F5               	movf	tablat,w,c
 11395   002208  D005               	bra	i2u231_40
 11396   00220A                     i2u231_47:
 11397   00220A  CFF6 FFE1          	movff	tblptrl,fsr1l
 11398   00220E  CFF7 FFE2          	movff	tblptrh,fsr1h
 11399   002212  50E7               	movf	indf1,w,c
 11400   002214                     i2u231_40:
 11401   002214  6EDF               	movwf	indf2,c
 11402   002216  0100               	movlb	0	; () banked
 11403   002218  4BD9               	infsnz	_inPipes& (0+255),f,b
 11404   00221A  2BDA               	incf	(_inPipes+1)& (0+255),f,b
 11405   00221C                     
 11406                           ; BSR set to: 0
 11407   00221C  4A32               	infsnz	_pDst^0,f,c
 11408   00221E  2A33               	incf	(_pDst+1)^0,f,c
 11409   002220                     
 11410                           ; BSR set to: 0
 11411                           ;usb_device.c: 1826:             byteToSend--;
 11412   002220  0601               	decf	USBCtrlTrfTxService@byteToSend^0,f,c
 11413   002222                     i2l3729:
 11414                           
 11415                           ; BSR set to: 0
 11416                           ;usb_device.c: 1823:         while(byteToSend)
 11417   002222  5001               	movf	USBCtrlTrfTxService@byteToSend^0,w,c
 11418   002224  A4D8               	btfss	status,2,c
 11419   002226  EF17  F011         	goto	i2u232_41
 11420   00222A  EF19  F011         	goto	i2u232_40
 11421   00222E                     i2u232_41:
 11422   00222E  EFF6  F010         	goto	i2l3721
 11423   002232                     i2u232_40:
 11424   002232                     i2l483:
 11425                           
 11426                           ; BSR set to: 0
 11427   002232  0012               	return		;funcret
 11428   002234                     __end_of_USBCtrlTrfTxService:
 11429                           	callstack 0
 11430                           
 11431 ;; *************** function _UART_tx_udr_empty_irq *****************
 11432 ;; Defined at:
 11433 ;;		line 151 in file "uart.c"
 11434 ;; Parameters:    Size  Location     Type
 11435 ;;		None
 11436 ;; Auto vars:     Size  Location     Type
 11437 ;;  c               1    0[COMRAM] unsigned char 
 11438 ;; Return value:  Size  Location     Type
 11439 ;;                  1    wreg      void 
 11440 ;; Registers used:
 11441 ;;		wreg, fsr2l, fsr2h, status,2, status,0
 11442 ;; Tracked objects:
 11443 ;;		On entry : 0/0
 11444 ;;		On exit  : 0/0
 11445 ;;		Unchanged: 0/0
 11446 ;; Data sizes:     COMRAM   BANK0   BANK1   BANK2   BANK3   BANK4   BANK5   BANK6   BANK7
 11447 ;;      Params:         0       0       0       0       0       0       0       0       0
 11448 ;;      Locals:         1       0       0       0       0       0       0       0       0
 11449 ;;      Temps:          0       0       0       0       0       0       0       0       0
 11450 ;;      Totals:         1       0       0       0       0       0       0       0       0
 11451 ;;Total ram usage:        1 bytes
 11452 ;; Hardware stack levels used: 1
 11453 ;; This function calls:
 11454 ;;		Nothing
 11455 ;; This function is called by:
 11456 ;;		_myISR_high
 11457 ;; This function uses a non-reentrant model
 11458 ;;
 11459                           
 11460                           	psect	text63
 11461   003052                     __ptext63:
 11462                           	callstack 0
 11463   003052                     _UART_tx_udr_empty_irq:
 11464                           	callstack 20
 11465   003052                     
 11466                           ;uart.c: 153:     uint8_t c = _tx_buffer[_tx_buffer_tail];
 11467   003052  0E00               	movlw	low __tx_buffer
 11468   003054  2438               	addwf	__tx_buffer_tail^0,w,c	;volatile
 11469   003056  6ED9               	movwf	fsr2l,c
 11470   003058  6ADA               	clrf	fsr2h,c
 11471   00305A  0E02               	movlw	high __tx_buffer
 11472   00305C  22DA               	addwfc	fsr2h,f,c
 11473   00305E  50DF               	movf	indf2,w,c
 11474   003060  6E01               	movwf	UART_tx_udr_empty_irq@c^0,c
 11475   003062                     
 11476                           ;uart.c: 154:     _tx_buffer_tail = (_tx_buffer_tail + 1) % 64;
 11477   003062  2838               	incf	__tx_buffer_tail^0,w,c	;volatile
 11478   003064  0B3F               	andlw	63
 11479   003066  6E38               	movwf	__tx_buffer_tail^0,c	;volatile
 11480   003068                     
 11481                           ;uart.c: 155:     TXREG = c;
 11482   003068  C001  FFAD         	movff	UART_tx_udr_empty_irq@c,4013	;volatile
 11483   00306C                     
 11484                           ;uart.c: 156:     if(_tx_buffer_head == _tx_buffer_tail)
 11485   00306C  5038               	movf	__tx_buffer_tail^0,w,c	;volatile
 11486   00306E  1839               	xorwf	__tx_buffer_head^0,w,c	;volatile
 11487   003070  A4D8               	btfss	status,2,c
 11488   003072  EF3D  F018         	goto	i2u362_41
 11489   003076  EF3F  F018         	goto	i2u362_40
 11490   00307A                     i2u362_41:
 11491   00307A  EF40  F018         	goto	i2l779
 11492   00307E                     i2u362_40:
 11493   00307E                     
 11494                           ;uart.c: 157:     {;uart.c: 160:         PIE1bits.TX1IE = 0;
 11495   00307E  989D               	bcf	157,4,c	;volatile
 11496   003080                     i2l779:
 11497   003080  0012               	return		;funcret
 11498   003082                     __end_of_UART_tx_udr_empty_irq:
 11499                           	callstack 0
 11500                           
 11501 ;; *************** function _UART_rx_complete_irq *****************
 11502 ;; Defined at:
 11503 ;;		line 127 in file "uart.c"
 11504 ;; Parameters:    Size  Location     Type
 11505 ;;		None
 11506 ;; Auto vars:     Size  Location     Type
 11507 ;;  i               2    3[COMRAM] unsigned short 
 11508 ;;  c               1    2[COMRAM] unsigned char 
 11509 ;; Return value:  Size  Location     Type
 11510 ;;                  1    wreg      void 
 11511 ;; Registers used:
 11512 ;;		wreg, fsr2l, fsr2h, status,2, status,0
 11513 ;; Tracked objects:
 11514 ;;		On entry : 0/0
 11515 ;;		On exit  : 0/0
 11516 ;;		Unchanged: 0/0
 11517 ;; Data sizes:     COMRAM   BANK0   BANK1   BANK2   BANK3   BANK4   BANK5   BANK6   BANK7
 11518 ;;      Params:         0       0       0       0       0       0       0       0       0
 11519 ;;      Locals:         3       0       0       0       0       0       0       0       0
 11520 ;;      Temps:          2       0       0       0       0       0       0       0       0
 11521 ;;      Totals:         5       0       0       0       0       0       0       0       0
 11522 ;;Total ram usage:        5 bytes
 11523 ;; Hardware stack levels used: 1
 11524 ;; This function calls:
 11525 ;;		Nothing
 11526 ;; This function is called by:
 11527 ;;		_myISR_high
 11528 ;; This function uses a non-reentrant model
 11529 ;;
 11530                           
 11531                           	psect	text64
 11532   002C18                     __ptext64:
 11533                           	callstack 0
 11534   002C18                     _UART_rx_complete_irq:
 11535                           	callstack 20
 11536   002C18                     
 11537                           ;uart.c: 128:     uint8_t c;;uart.c: 129:     if (RCSTAbits.OERR) {
 11538   002C18  A2AB               	btfss	171,1,c	;volatile
 11539   002C1A  EF11  F016         	goto	i2u153_41
 11540   002C1E  EF13  F016         	goto	i2u153_40
 11541   002C22                     i2u153_41:
 11542   002C22  EF15  F016         	goto	i2l771
 11543   002C26                     i2u153_40:
 11544   002C26                     
 11545                           ;uart.c: 130:         RCSTAbits.CREN = 0;
 11546   002C26  98AB               	bcf	171,4,c	;volatile
 11547                           
 11548                           ;uart.c: 131:         RCSTAbits.CREN = 1;
 11549   002C28  88AB               	bsf	171,4,c	;volatile
 11550   002C2A                     i2l771:
 11551                           
 11552                           ;uart.c: 133:     if (RCSTAbits.FERR) {
 11553   002C2A  A4AB               	btfss	171,2,c	;volatile
 11554   002C2C  EF1A  F016         	goto	i2u154_41
 11555   002C30  EF1C  F016         	goto	i2u154_40
 11556   002C34                     i2u154_41:
 11557   002C34  EF1D  F016         	goto	i2l772
 11558   002C38                     i2u154_40:
 11559   002C38  50AE               	movf	174,w,c	;volatile
 11560   002C3A                     i2l772:
 11561                           
 11562                           ;uart.c: 138:     c = RCREG;
 11563   002C3A  CFAE F003          	movff	4014,UART_rx_complete_irq@c	;volatile
 11564   002C3E                     
 11565                           ;uart.c: 139:     rx_buffer_index_t i = (unsigned int) (_rx_buffer_head + 1) % 512;
 11566   002C3E  0E01               	movlw	1
 11567   002C40  2430               	addwf	__rx_buffer_head^0,w,c	;volatile
 11568   002C42  6E01               	movwf	??_UART_rx_complete_irq^0,c
 11569   002C44  0E00               	movlw	0
 11570   002C46  2031               	addwfc	(__rx_buffer_head+1)^0,w,c	;volatile
 11571   002C48  6E02               	movwf	(??_UART_rx_complete_irq+1)^0,c
 11572   002C4A  0EFF               	movlw	255
 11573   002C4C  1401               	andwf	??_UART_rx_complete_irq^0,w,c
 11574   002C4E  6E04               	movwf	UART_rx_complete_irq@i^0,c
 11575   002C50  0E01               	movlw	1
 11576   002C52  1402               	andwf	(??_UART_rx_complete_irq+1)^0,w,c
 11577   002C54  6E05               	movwf	(UART_rx_complete_irq@i+1)^0,c
 11578                           
 11579                           ;uart.c: 140:     if (i != _rx_buffer_tail)
 11580   002C56  502E               	movf	__rx_buffer_tail^0,w,c	;volatile
 11581   002C58  1804               	xorwf	UART_rx_complete_irq@i^0,w,c
 11582   002C5A  E109               	bnz	i2u155_40
 11583   002C5C  502F               	movf	(__rx_buffer_tail+1)^0,w,c	;volatile
 11584   002C5E  1805               	xorwf	(UART_rx_complete_irq@i+1)^0,w,c
 11585   002C60  B4D8               	btfsc	status,2,c
 11586   002C62  EF35  F016         	goto	i2u155_41
 11587   002C66  EF37  F016         	goto	i2u155_40
 11588   002C6A                     i2u155_41:
 11589   002C6A  EF45  F016         	goto	i2l2829
 11590   002C6E                     i2u155_40:
 11591   002C6E                     
 11592                           ;uart.c: 141:     {;uart.c: 142:         _rx_buffer[_rx_buffer_head] = c;
 11593   002C6E  0E30               	movlw	low __rx_buffer
 11594   002C70  2430               	addwf	__rx_buffer_head^0,w,c	;volatile
 11595   002C72  6ED9               	movwf	fsr2l,c
 11596   002C74  0E04               	movlw	high __rx_buffer
 11597   002C76  2031               	addwfc	(__rx_buffer_head+1)^0,w,c	;volatile
 11598   002C78  6EDA               	movwf	fsr2h,c
 11599   002C7A  C003  FFDF         	movff	UART_rx_complete_irq@c,indf2
 11600   002C7E                     
 11601                           ;uart.c: 143:         _rx_buffer_head = i;
 11602   002C7E  C004  F030         	movff	UART_rx_complete_irq@i,__rx_buffer_head	;volatile
 11603   002C82  C005  F031         	movff	UART_rx_complete_irq@i+1,__rx_buffer_head+1	;volatile
 11604                           
 11605                           ;uart.c: 144:     } else {
 11606   002C86  EF46  F016         	goto	i2l775
 11607   002C8A                     i2l2829:
 11608                           
 11609                           ;uart.c: 145:         RCREG;
 11610   002C8A  50AE               	movf	174,w,c	;volatile
 11611   002C8C                     i2l775:
 11612   002C8C  0012               	return		;funcret
 11613   002C8E                     __end_of_UART_rx_complete_irq:
 11614                           	callstack 0
 11615                           
 11616                           	psect	rparam
 11617   000000                     
 11618                           	psect	temp
 11619   00004B                     btemp:
 11620                           	callstack 0
 11621   00004B                     	ds	1
 11622   000000                     int$flags	set	btemp
 11623   000000                     wtemp8	set	btemp+1
 11624   000000                     ttemp5	set	btemp+1
 11625   000000                     ttemp6	set	btemp+4
 11626   000000                     ttemp7	set	btemp+8
 11627                           
 11628                           	psect	idloc
 11629                           
 11630                           ;Config register IDLOC0 @ 0x200000
 11631                           ;	unspecified, using default values
 11632   200000                     	org	2097152
 11633   200000  FF                 	db	255
 11634                           
 11635                           ;Config register IDLOC1 @ 0x200001
 11636                           ;	unspecified, using default values
 11637   200001                     	org	2097153
 11638   200001  FF                 	db	255
 11639                           
 11640                           ;Config register IDLOC2 @ 0x200002
 11641                           ;	unspecified, using default values
 11642   200002                     	org	2097154
 11643   200002  FF                 	db	255
 11644                           
 11645                           ;Config register IDLOC3 @ 0x200003
 11646                           ;	unspecified, using default values
 11647   200003                     	org	2097155
 11648   200003  FF                 	db	255
 11649                           
 11650                           ;Config register IDLOC4 @ 0x200004
 11651                           ;	unspecified, using default values
 11652   200004                     	org	2097156
 11653   200004  FF                 	db	255
 11654                           
 11655                           ;Config register IDLOC5 @ 0x200005
 11656                           ;	unspecified, using default values
 11657   200005                     	org	2097157
 11658   200005  FF                 	db	255
 11659                           
 11660                           ;Config register IDLOC6 @ 0x200006
 11661                           ;	unspecified, using default values
 11662   200006                     	org	2097158
 11663   200006  FF                 	db	255
 11664                           
 11665                           ;Config register IDLOC7 @ 0x200007
 11666                           ;	unspecified, using default values
 11667   200007                     	org	2097159
 11668   200007  FF                 	db	255
 11669                           
 11670                           	psect	config
 11671                           
 11672                           ;Config register CONFIG1L @ 0x300000
 11673                           ;	PLL Prescaler Selection bits
 11674                           ;	PLLDIV = 3, Divide by 3 (12 MHz oscillator input)
 11675                           ;	System Clock Postscaler Selection bits
 11676                           ;	CPUDIV = OSC1_PLL2, [Primary Oscillator Src: /1][96 MHz PLL Src: /2]
 11677                           ;	USB Clock Selection bit (used in Full-Speed USB mode only; UCFG:FSEN = 1)
 11678                           ;	USBDIV = 2, USB clock source comes from the 96 MHz PLL divided by 2
 11679   300000                     	org	3145728
 11680   300000  22                 	db	34
 11681                           
 11682                           ;Config register CONFIG1H @ 0x300001
 11683                           ;	Oscillator Selection bits
 11684                           ;	FOSC = HSPLL_HS, HS oscillator, PLL enabled (HSPLL)
 11685                           ;	Fail-Safe Clock Monitor Enable bit
 11686                           ;	FCMEN = OFF, Fail-Safe Clock Monitor disabled
 11687                           ;	Internal/External Oscillator Switchover bit
 11688                           ;	IESO = OFF, Oscillator Switchover mode disabled
 11689   300001                     	org	3145729
 11690   300001  0E                 	db	14
 11691                           
 11692                           ;Config register CONFIG2L @ 0x300002
 11693                           ;	Power-up Timer Enable bit
 11694                           ;	PWRT = OFF, PWRT disabled
 11695                           ;	Brown-out Reset Enable bits
 11696                           ;	BOR = ON, Brown-out Reset enabled in hardware only (SBOREN is disabled)
 11697                           ;	Brown-out Reset Voltage bits
 11698                           ;	BORV = 3, Minimum setting
 11699                           ;	USB Voltage Regulator Enable bit
 11700                           ;	VREGEN = ON, USB voltage regulator enabled
 11701   300002                     	org	3145730
 11702   300002  3F                 	db	63
 11703                           
 11704                           ;Config register CONFIG2H @ 0x300003
 11705                           ;	Watchdog Timer Enable bit
 11706                           ;	WDT = ON, WDT enabled
 11707                           ;	Watchdog Timer Postscale Select bits
 11708                           ;	WDTPS = 32768, 1:32768
 11709   300003                     	org	3145731
 11710   300003  1F                 	db	31
 11711                           
 11712                           ; Padding undefined space
 11713   300004                     	org	3145732
 11714   300004  FF                 	db	255
 11715                           
 11716                           ;Config register CONFIG3H @ 0x300005
 11717                           ;	CCP2 MUX bit
 11718                           ;	CCP2MX = ON, CCP2 input/output is multiplexed with RC1
 11719                           ;	PORTB A/D Enable bit
 11720                           ;	PBADEN = OFF, PORTB<4:0> pins are configured as digital I/O on Reset
 11721                           ;	Low-Power Timer 1 Oscillator Enable bit
 11722                           ;	LPT1OSC = OFF, Timer1 configured for higher power operation
 11723                           ;	MCLR Pin Enable bit
 11724                           ;	MCLRE = OFF, RE3 input pin enabled; MCLR pin disabled
 11725   300005                     	org	3145733
 11726   300005  01                 	db	1
 11727                           
 11728                           ;Config register CONFIG4L @ 0x300006
 11729                           ;	Stack Full/Underflow Reset Enable bit
 11730                           ;	STVREN = ON, Stack full/underflow will cause Reset
 11731                           ;	Single-Supply ICSP Enable bit
 11732                           ;	LVP = OFF, Single-Supply ICSP disabled
 11733                           ;	Dedicated In-Circuit Debug/Programming Port (ICPORT) Enable bit
 11734                           ;	ICPRT = OFF, ICPORT disabled
 11735                           ;	Extended Instruction Set Enable bit
 11736                           ;	XINST = OFF, Instruction set extension and Indexed Addressing mode disabled (Legacy mo
      +                          de)
 11737                           ;	Background Debugger Enable bit
 11738                           ;	DEBUG = 0x1, unprogrammed default
 11739   300006                     	org	3145734
 11740   300006  81                 	db	129
 11741                           
 11742                           ; Padding undefined space
 11743   300007                     	org	3145735
 11744   300007  FF                 	db	255
 11745                           
 11746                           ;Config register CONFIG5L @ 0x300008
 11747                           ;	Code Protection bit
 11748                           ;	CP0 = OFF, Block 0 (000800-001FFFh) is not code-protected
 11749                           ;	Code Protection bit
 11750                           ;	CP1 = OFF, Block 1 (002000-003FFFh) is not code-protected
 11751                           ;	Code Protection bit
 11752                           ;	CP2 = OFF, Block 2 (004000-005FFFh) is not code-protected
 11753                           ;	Code Protection bit
 11754                           ;	CP3 = OFF, Block 3 (006000-007FFFh) is not code-protected
 11755   300008                     	org	3145736
 11756   300008  0F                 	db	15
 11757                           
 11758                           ;Config register CONFIG5H @ 0x300009
 11759                           ;	Boot Block Code Protection bit
 11760                           ;	CPB = OFF, Boot block (000000-0007FFh) is not code-protected
 11761                           ;	Data EEPROM Code Protection bit
 11762                           ;	CPD = OFF, Data EEPROM is not code-protected
 11763   300009                     	org	3145737
 11764   300009  C0                 	db	192
 11765                           
 11766                           ;Config register CONFIG6L @ 0x30000A
 11767                           ;	Write Protection bit
 11768                           ;	WRT0 = OFF, Block 0 (000800-001FFFh) is not write-protected
 11769                           ;	Write Protection bit
 11770                           ;	WRT1 = OFF, Block 1 (002000-003FFFh) is not write-protected
 11771                           ;	Write Protection bit
 11772                           ;	WRT2 = OFF, Block 2 (004000-005FFFh) is not write-protected
 11773                           ;	Write Protection bit
 11774                           ;	WRT3 = OFF, Block 3 (006000-007FFFh) is not write-protected
 11775   30000A                     	org	3145738
 11776   30000A  0F                 	db	15
 11777                           
 11778                           ;Config register CONFIG6H @ 0x30000B
 11779                           ;	Configuration Register Write Protection bit
 11780                           ;	WRTC = OFF, Configuration registers (300000-3000FFh) are not write-protected
 11781                           ;	Boot Block Write Protection bit
 11782                           ;	WRTB = OFF, Boot block (000000-0007FFh) is not write-protected
 11783                           ;	Data EEPROM Write Protection bit
 11784                           ;	WRTD = OFF, Data EEPROM is not write-protected
 11785   30000B                     	org	3145739
 11786   30000B  E0                 	db	224
 11787                           
 11788                           ;Config register CONFIG7L @ 0x30000C
 11789                           ;	Table Read Protection bit
 11790                           ;	EBTR0 = OFF, Block 0 (000800-001FFFh) is not protected from table reads executed in ot
      +                          her blocks
 11791                           ;	Table Read Protection bit
 11792                           ;	EBTR1 = OFF, Block 1 (002000-003FFFh) is not protected from table reads executed in ot
      +                          her blocks
 11793                           ;	Table Read Protection bit
 11794                           ;	EBTR2 = OFF, Block 2 (004000-005FFFh) is not protected from table reads executed in ot
      +                          her blocks
 11795                           ;	Table Read Protection bit
 11796                           ;	EBTR3 = OFF, Block 3 (006000-007FFFh) is not protected from table reads executed in ot
      +                          her blocks
 11797   30000C                     	org	3145740
 11798   30000C  0F                 	db	15
 11799                           
 11800                           ;Config register CONFIG7H @ 0x30000D
 11801                           ;	Boot Block Table Read Protection bit
 11802                           ;	EBTRB = OFF, Boot block (000000-0007FFh) is not protected from table reads executed in
      +                           other blocks
 11803   30000D                     	org	3145741
 11804   30000D  40                 	db	64
 11805                           tosu	equ	0xFFF
 11806                           tosh	equ	0xFFE
 11807                           tosl	equ	0xFFD
 11808                           stkptr	equ	0xFFC
 11809                           pclatu	equ	0xFFB
 11810                           pclath	equ	0xFFA
 11811                           pcl	equ	0xFF9
 11812                           tblptru	equ	0xFF8
 11813                           tblptrh	equ	0xFF7
 11814                           tblptrl	equ	0xFF6
 11815                           tablat	equ	0xFF5
 11816                           prodh	equ	0xFF4
 11817                           prodl	equ	0xFF3
 11818                           indf0	equ	0xFEF
 11819                           postinc0	equ	0xFEE
 11820                           postdec0	equ	0xFED
 11821                           preinc0	equ	0xFEC
 11822                           plusw0	equ	0xFEB
 11823                           fsr0h	equ	0xFEA
 11824                           fsr0l	equ	0xFE9
 11825                           wreg	equ	0xFE8
 11826                           indf1	equ	0xFE7
 11827                           postinc1	equ	0xFE6
 11828                           postdec1	equ	0xFE5
 11829                           preinc1	equ	0xFE4
 11830                           plusw1	equ	0xFE3
 11831                           fsr1h	equ	0xFE2
 11832                           fsr1l	equ	0xFE1
 11833                           bsr	equ	0xFE0
 11834                           indf2	equ	0xFDF
 11835                           postinc2	equ	0xFDE
 11836                           postdec2	equ	0xFDD
 11837                           preinc2	equ	0xFDC
 11838                           plusw2	equ	0xFDB
 11839                           fsr2h	equ	0xFDA
 11840                           fsr2l	equ	0xFD9
 11841                           status	equ	0xFD8

Data Sizes:
    Strings     283
    Constant    198
    Data        0
    BSS         808
    Persistent  0
    Stack       0

Auto Spaces:
    Space          Size  Autos    Used
    COMRAM           94     45      74
    BANK0           160    113     150
    BANK1           256    111     213
    BANK2           256      0     128
    BANK3           239      0       0
    BANK4           208      0       0
    BANK5           256      0       0
    BANK6           256      0       0
    BANK7           256      0       0

Pointer List with Targets:

    USER_USB_CALLBACK_EVENT_HANDLER@pdata	PTR void  size(2) Largest target is 2047
		 -> RAM(DATA[2047]), USTATcopy(COMRAM[1]), USBActiveConfiguration(COMRAM[1]), BDT(BIGRAM_1[32]), 
		 -> NULL(NULL[0]), 

    fputs@s	PTR const unsigned char  size(2) Largest target is 32
		 -> dbuf(BANK1[32]), 

    fputs@fp	PTR struct _IO_FILE size(2) Largest target is 11
		 -> sprintf@f(BANK0[11]), 

    fputc@fp...source	PTR const unsigned char  size(2) Largest target is 0

    fputc@fp...buffer	PTR unsigned char  size(2) Largest target is 0

    fputc@fp	PTR struct _IO_FILE size(2) Largest target is 11
		 -> sprintf@f(BANK0[11]), 

    vfprintf@ap	PTR PTR void  size(2) Largest target is 2
		 -> sprintf@ap(BANK0[2]), 

    vfprintf@fp	PTR struct _IO_FILE size(2) Largest target is 11
		 -> sprintf@f(BANK0[11]), 

    vfprintf@fmt	PTR const unsigned char  size(2) Largest target is 15
		 -> STR_14(CODE[15]), 

    vfprintf@cfmt	PTR unsigned char  size(2) Largest target is 15
		 -> STR_14(CODE[15]), 

    vfpfcnvrt@fp	PTR struct _IO_FILE size(2) Largest target is 11
		 -> sprintf@f(BANK0[11]), 

    vfpfcnvrt@ap	PTR PTR void  size(2) Largest target is 2
		 -> sprintf@ap(BANK0[2]), 

    vfpfcnvrt@cp	PTR unsigned char  size(2) Largest target is 15
		 -> STR_14(CODE[15]), 

    vfpfcnvrt@fmt	PTR PTR unsigned char  size(2) Largest target is 2
		 -> vfprintf@cfmt(BANK0[2]), 

    S3430$vp	PTR void  size(2) Largest target is 0

    convarg.vp	PTR void  size(2) Largest target is 0

    utoa@fp	PTR struct _IO_FILE size(2) Largest target is 11
		 -> sprintf@f(BANK0[11]), 

    pad@buf	PTR unsigned char  size(2) Largest target is 32
		 -> dbuf(BANK1[32]), 

    pad@fp	PTR struct _IO_FILE size(2) Largest target is 11
		 -> sprintf@f(BANK0[11]), 

    sprintf@fmt	PTR const unsigned char  size(2) Largest target is 15
		 -> STR_14(CODE[15]), 

    sprintf@s	PTR unsigned char  size(2) Largest target is 100
		 -> main@temp(BANK1[100]), 

    sprintf@ap	PTR void [1] size(2) Largest target is 2
		 -> ?_sprintf(BANK0[2]), 

    S3382$source	PTR const unsigned char  size(2) Largest target is 0

    f...source	PTR const unsigned char  size(2) Largest target is 0

    S3382$buffer	PTR unsigned char  size(2) Largest target is 0

    f...buffer	PTR unsigned char  size(2) Largest target is 0

    memset@dest	PTR void  size(2) Largest target is 32
		 -> USBAlternateInterface(COMRAM[1]), BDT(BIGRAM_1[32]), UEP1(BITBIGSFRllhh[1]), 

    memset@s	PTR unsigned char  size(2) Largest target is 32
		 -> USBAlternateInterface(COMRAM[1]), BDT(BIGRAM_1[32]), UEP1(BITBIGSFRllhh[1]), 

    memcpy@d1	PTR void  size(2) Largest target is 8
		 -> SetupPkt(BIGRAM_1[8]), 

    memcpy@d	PTR unsigned char  size(2) Largest target is 8
		 -> SetupPkt(BIGRAM_1[8]), 

    memcpy@s1	PTR const void  size(2) Largest target is 2047
		 -> CtrlTrfData(BIGRAM_1[8]), RAM(DATA[2047]), SetupPkt(BIGRAM_1[8]), 

    memcpy@s	PTR const unsigned char  size(2) Largest target is 2047
		 -> CtrlTrfData(BIGRAM_1[8]), RAM(DATA[2047]), SetupPkt(BIGRAM_1[8]), 

    UART_puts@ptr	PTR unsigned char  size(2) Largest target is 100
		 -> main@temp(BANK1[100]), 

    UART_putrs@ptr	PTR const unsigned char  size(2) Largest target is 28
		 -> STR_13(CODE[13]), STR_12(CODE[23]), STR_11(CODE[23]), STR_10(CODE[23]), 
		 -> STR_9(CODE[23]), STR_8(CODE[26]), STR_7(CODE[26]), STR_6(CODE[26]), 
		 -> STR_5(CODE[26]), STR_4(CODE[17]), STR_3(CODE[28]), STR_2(CODE[14]), 
		 -> STR_1(CODE[14]), 

    USBStdFeatureReqHandler@pUEP	PTR unsigned char  size(2) Largest target is 1
		 -> UEP0(ABS[1]), 

    USBStdFeatureReqHandler@p	PTR struct __BDT size(2) Largest target is 2047
		 -> RAM(DATA[2047]), BDT(BIGRAM_1[32]), NULL(NULL[0]), 

    sp__memcpy	PTR void  size(2) Largest target is 8
		 -> SetupPkt(BIGRAM_1[8]), 

    USBStdGetStatusHandler@p	PTR struct __BDT size(2) Largest target is 2047
		 -> RAM(DATA[2047]), BDT(BIGRAM_1[32]), NULL(NULL[0]), 

    USB_SD_Ptr	const PTR const unsigned char [3] size(2) Largest target is 52
		 -> sd002(CODE[46]), sd001(CODE[52]), sd000(CODE[4]), 

    USB_CD_Ptr	const PTR const unsigned char [1] size(2) Largest target is 41
		 -> configDescriptor1(CODE[41]), 

    pDst	PTR unsigned char  size(2) Largest target is 8
		 -> CtrlTrfData(BIGRAM_1[8]), NULL(NULL[0]), 

    USBConfigureEndpoint@handle	PTR volatile struct __BDT size(2) Largest target is 32
		 -> BDT(BIGRAM_1[32]), 

    pBDTEntryEP0OutCurrent	PTR volatile struct __BDT size(2) Largest target is 32
		 -> BDT(BIGRAM_1[32]), NULL(NULL[0]), 

    pBDTEntryEP0OutNext	PTR volatile struct __BDT size(2) Largest target is 2047
		 -> RAM(DATA[2047]), BDT(BIGRAM_1[32]), NULL(NULL[0]), 

    USBTransferOnePacket@data	PTR unsigned char  size(2) Largest target is 64
		 -> ToSendDataBuffer(BANK1[64]), ReceivedDataBuffer(BANK2[64]), 

    USBTransferOnePacket@handle	PTR volatile struct __BDT size(2) Largest target is 2047
		 -> RAM(DATA[2047]), BDT(BIGRAM_1[32]), NULL(NULL[0]), 

    USBEnableEndpoint@p	PTR unsigned char  size(2) Largest target is 1
		 -> UEP0(ABS[1]), 

    pBDTEntryOut	PTR volatile struct __BDT[2] size(2) Largest target is 2047
		 -> RAM(DATA[2047]), BDT(BIGRAM_1[32]), NULL(NULL[0]), 

    pBDTEntryIn	PTR volatile struct __BDT[2] size(2) Largest target is 2047
		 -> RAM(DATA[2047]), BDT(BIGRAM_1[32]), NULL(NULL[0]), 

    S948$pFunc	PTR FTN()void  size(2) Largest target is 0

    outPipes.pFunc	PTR FTN()void  size(2) Largest target is 0

    S938$wRam	PTR unsigned short  size(2) Largest target is 0

    outPipes.pDst.wRam	PTR unsigned short  size(2) Largest target is 0

    S938$bRam	PTR unsigned char  size(2) Largest target is 0

    outPipes.pDst.bRam	PTR unsigned char  size(2) Largest target is 0

    S914$wRom	PTR const unsigned short  size(2) Largest target is 0

    inPipes.pSrc.wRom	PTR const unsigned short  size(2) Largest target is 0

    S914$wRam	PTR unsigned short  size(2) Largest target is 0

    inPipes.pSrc.wRam	PTR unsigned short  size(2) Largest target is 0

    S914$bRom	PTR const unsigned char  size(2) Largest target is 0

    inPipes.pSrc.bRom	PTR const unsigned char  size(2) Largest target is 0

    S914$bRam	PTR unsigned char  size(2) Largest target is 0

    inPipes.pSrc.bRam	PTR unsigned char  size(2) Largest target is 0

    sp__memset	PTR void  size(2) Largest target is 32
		 -> USBAlternateInterface(COMRAM[1]), BDT(BIGRAM_1[32]), UEP1(BITBIGSFRllhh[1]), 

    USBInHandle	PTR void  size(2) Largest target is 2047
		 -> RAM(DATA[2047]), BDT(BIGRAM_1[32]), NULL(NULL[0]), 

    sp__USBTransferOnePacket	PTR void  size(2) Largest target is 2047
		 -> RAM(DATA[2047]), BDT(BIGRAM_1[32]), NULL(NULL[0]), 

    USBOutHandle	PTR void  size(2) Largest target is 2047
		 -> RAM(DATA[2047]), BDT(BIGRAM_1[32]), NULL(NULL[0]), 


Critical Paths under _main in COMRAM

    None.

Critical Paths under _myISR_low in COMRAM

    None.

Critical Paths under _myISR_high in COMRAM

    _myISR_high->_USBDeviceTasks
    _USBDeviceTasks->_USBCtrlEPService
    i2_USBDeviceInit->i2_memset
    _USBWakeFromSuspend->_USER_USB_CALLBACK_EVENT_HANDLER
    _USBSuspend->_USER_USB_CALLBACK_EVENT_HANDLER
    _USBCtrlTrfSetupHandler->_USBCheckStdRequest
    _USBCtrlEPAllowDataStage->_USBCtrlTrfTxService
    _USBCheckStdRequest->_USBStdFeatureReqHandler
    _USBStdSetCfgHandler->_USER_USB_CALLBACK_EVENT_HANDLER
    _USBStdFeatureReqHandler->_USER_USB_CALLBACK_EVENT_HANDLER
    _USBCBInitEP->_USBEnableEndpoint
    _USBEnableEndpoint->_USBConfigureEndpoint
    _USBCBCheckOtherReq->_USBCheckHIDRequest
    _USBCtrlTrfOutHandler->_USBCtrlTrfRxService
    _USBCtrlTrfInHandler->_USBCtrlTrfTxService

Critical Paths under _main in BANK0

    _main->_sprintf
    _sprintf->_vfprintf
    _vfprintf->_vfpfcnvrt
    _vfpfcnvrt->_utoa
    _utoa->_pad
    _pad->_fputs
    _fputs->_fputc
    _UART_puts->_UART_write
    _UART_putrs->_UART_write
    _UART_Init->___lldiv
    _InitializeSystem->_USBDeviceInit
    _USBDeviceInit->_memset

Critical Paths under _myISR_low in BANK0

    None.

Critical Paths under _myISR_high in BANK0

    None.

Critical Paths under _main in BANK1

    None.

Critical Paths under _myISR_low in BANK1

    None.

Critical Paths under _myISR_high in BANK1

    None.

Critical Paths under _main in BANK2

    None.

Critical Paths under _myISR_low in BANK2

    None.

Critical Paths under _myISR_high in BANK2

    None.

Critical Paths under _main in BANK3

    None.

Critical Paths under _myISR_low in BANK3

    None.

Critical Paths under _myISR_high in BANK3

    None.

Critical Paths under _main in BANK4

    None.

Critical Paths under _myISR_low in BANK4

    None.

Critical Paths under _myISR_high in BANK4

    None.

Critical Paths under _main in BANK5

    None.

Critical Paths under _myISR_low in BANK5

    None.

Critical Paths under _myISR_high in BANK5

    None.

Critical Paths under _main in BANK6

    None.

Critical Paths under _myISR_low in BANK6

    None.

Critical Paths under _myISR_high in BANK6

    None.

Critical Paths under _main in BANK7

    None.

Critical Paths under _myISR_low in BANK7

    None.

Critical Paths under _myISR_high in BANK7

    None.

Call Graph Tables:

 ---------------------------------------------------------------------------------
 (Depth) Function   	        Calls       Base Space   Used Autos Params    Refs
 ---------------------------------------------------------------------------------
 (0) _main                                               113   113      0   15918
                                            111 BANK0      2     2      0
                                              0 BANK1    111   111      0
                   _Enable_Interrupt
                   _InitializeSystem
                     _Interrupt_Init
                          _UART_Init
                         _UART_putrs
                          _UART_puts
               _USBTransferOnePacket
                     _gpioInitialize
                            _sprintf
                        _timer1_Init
                         _timerStart
                     _timerZero_Init
 ---------------------------------------------------------------------------------
 (1) _timerZero_Init                                       0     0      0       0
 ---------------------------------------------------------------------------------
 (1) _timerStart                                           0     0      0       0
 ---------------------------------------------------------------------------------
 (1) _timer1_Init                                          0     0      0       0
 ---------------------------------------------------------------------------------
 (1) _sprintf                                             23    15      8    6946
                                             90 BANK0     21    13      8
                           _vfprintf
 ---------------------------------------------------------------------------------
 (2) _vfprintf                                             8     2      6    6432
                                             82 BANK0      8     2      6
                          _vfpfcnvrt
 ---------------------------------------------------------------------------------
 (3) _vfpfcnvrt                                           25    19      6    5929
                                             62 BANK0     20    14      6
                              _fputc
                               _utoa
 ---------------------------------------------------------------------------------
 (4) _utoa                                                32    22     10    4236
                                             30 BANK0     32    22     10
                            ___lodiv
                            ___lomod
                                _pad
 ---------------------------------------------------------------------------------
 (5) _pad                                                 11     5      6    2771
                                             19 BANK0     11     5      6
                              _fputc
                              _fputs
 ---------------------------------------------------------------------------------
 (6) _fputs                                                7     3      4    1289
                                             12 BANK0      7     3      4
                              _fputc
 ---------------------------------------------------------------------------------
 (7) _fputc                                                9     5      4     941
                                              3 BANK0      9     5      4
                              _putch
 ---------------------------------------------------------------------------------
 (8) _putch                                                1     1      0       0
 ---------------------------------------------------------------------------------
 (5) ___lomod                                             17     1     16     440
                                              3 BANK0     17     1     16
 ---------------------------------------------------------------------------------
 (5) ___lodiv                                             25     9     16     449
                                              3 BANK0     25     9     16
 ---------------------------------------------------------------------------------
 (1) _gpioInitialize                                       0     0      0       0
 ---------------------------------------------------------------------------------
 (1) _USBTransferOnePacket                                11     7      4    3235
                                              3 BANK0     11     7      4
 ---------------------------------------------------------------------------------
 (1) _UART_puts                                            2     0      2     265
                                              5 BANK0      2     0      2
                         _UART_write
 ---------------------------------------------------------------------------------
 (1) _UART_putrs                                           2     0      2    1513
                                              5 BANK0      2     0      2
                         _UART_write
 ---------------------------------------------------------------------------------
 (2) _UART_write                                           2     2      0      96
                                              3 BANK0      2     2      0
 ---------------------------------------------------------------------------------
 (1) _UART_Init                                            9     6      3    1195
                                             16 BANK0      9     6      3
                            ___lldiv
 ---------------------------------------------------------------------------------
 (2) ___lldiv                                             13     5      8     865
                                              3 BANK0     13     5      8
 ---------------------------------------------------------------------------------
 (1) _Interrupt_Init                                       0     0      0       0
 ---------------------------------------------------------------------------------
 (1) _InitializeSystem                                     0     0      0    2241
                      _USBDeviceInit
                           _UserInit
 ---------------------------------------------------------------------------------
 (2) _UserInit                                             0     0      0       0
 ---------------------------------------------------------------------------------
 (2) _USBDeviceInit                                        1     1      0    2241
                                             15 BANK0      1     1      0
                             _memset
 ---------------------------------------------------------------------------------
 (3) _memset                                              12     6      6    1950
                                              3 BANK0     12     6      6
 ---------------------------------------------------------------------------------
 (1) _Enable_Interrupt                                     0     0      0       0
 ---------------------------------------------------------------------------------
 Estimated maximum stack depth 8
 ---------------------------------------------------------------------------------
 (Depth) Function   	        Calls       Base Space   Used Autos Params    Refs
 ---------------------------------------------------------------------------------
 (9) _myISR_low                                            3     3      0       0
                                              0 BANK0      3     3      0
 ---------------------------------------------------------------------------------
 Estimated maximum stack depth 9
 ---------------------------------------------------------------------------------
 (Depth) Function   	        Calls       Base Space   Used Autos Params    Refs
 ---------------------------------------------------------------------------------
 (10) _myISR_high                                         12    12      0   30246
                                             33 COMRAM    12    12      0
               _UART_rx_complete_irq
              _UART_tx_udr_empty_irq
                     _USBDeviceTasks
 ---------------------------------------------------------------------------------
 (11) _USBDeviceTasks                                      1     1      0   30178
                                             32 COMRAM     1     1      0
                   _USBCtrlEPService
      _USBIncrement1msInternalTimers
                    _USBStallHandler
                         _USBSuspend
                 _USBWakeFromSuspend
    _USER_USB_CALLBACK_EVENT_HANDLER
                    i2_USBDeviceInit
 ---------------------------------------------------------------------------------
 (12) i2_USBDeviceInit                                     1     1      0    1233
                                             12 COMRAM     1     1      0
                           i2_memset
 ---------------------------------------------------------------------------------
 (12) _USBWakeFromSuspend                                  0     0      0    3790
    _USER_USB_CALLBACK_EVENT_HANDLER
 ---------------------------------------------------------------------------------
 (12) _USBSuspend                                          0     0      0    3790
    _USER_USB_CALLBACK_EVENT_HANDLER
 ---------------------------------------------------------------------------------
 (12) _USBStallHandler                                     1     1      0       0
                                              0 COMRAM     1     1      0
 ---------------------------------------------------------------------------------
 (12) _USBIncrement1msInternalTimers                       0     0      0       0
 ---------------------------------------------------------------------------------
 (12) _USBCtrlEPService                                    1     1      0   17529
                                             31 COMRAM     1     1      0
                _USBCtrlTrfInHandler
               _USBCtrlTrfOutHandler
             _USBCtrlTrfSetupHandler
                             _memcpy
 ---------------------------------------------------------------------------------
 (13) _memcpy                                             11     5      6     410
                                              0 COMRAM    11     5      6
 ---------------------------------------------------------------------------------
 (13) _USBCtrlTrfSetupHandler                              0     0      0   16890
                 _USBCheckStdRequest
           _USBCtrlEPServiceComplete
    _USER_USB_CALLBACK_EVENT_HANDLER
 ---------------------------------------------------------------------------------
 (14) _USBCtrlEPServiceComplete                            0     0      0      92
            _USBCtrlEPAllowDataStage
          _USBCtrlEPAllowStatusStage
 ---------------------------------------------------------------------------------
 (15) _USBCtrlEPAllowDataStage                             0     0      0      92
                _USBCtrlTrfTxService
 ---------------------------------------------------------------------------------
 (14) _USBCheckStdRequest                                  2     2      0   13008
                                             29 COMRAM     2     2      0
            _USBStdFeatureReqHandler
                _USBStdGetDscHandler
             _USBStdGetStatusHandler
                _USBStdSetCfgHandler
    _USER_USB_CALLBACK_EVENT_HANDLER
 ---------------------------------------------------------------------------------
 (15) _USBStdSetCfgHandler                                 1     1      0    4911
                                             22 COMRAM     1     1      0
    _USER_USB_CALLBACK_EVENT_HANDLER
                           i2_memset
 ---------------------------------------------------------------------------------
 (13) i2_memset                                           12     6      6    1031
                                              0 COMRAM    12     6      6
 ---------------------------------------------------------------------------------
 (15) _USBStdGetStatusHandler                              4     4      0      46
                                              0 COMRAM     4     4      0
 ---------------------------------------------------------------------------------
 (15) _USBStdGetDscHandler                                 2     2      0       0
                                              0 COMRAM     2     2      0
 ---------------------------------------------------------------------------------
 (15) _USBStdFeatureReqHandler                             7     7      0    4261
                                             22 COMRAM     7     7      0
    _USER_USB_CALLBACK_EVENT_HANDLER
 ---------------------------------------------------------------------------------
 (12) _USER_USB_CALLBACK_EVENT_HANDLER                     8     2      6    3790
                                             14 COMRAM     8     2      6
                 _USBCBCheckOtherReq
                  _USBCBErrorHandler
                        _USBCBInitEP
              _USBCBStdSetDscHandler
                       _USBCBSuspend
               _USBCBWakeFromSuspend
                  _USBCB_SOF_Handler
 ---------------------------------------------------------------------------------
 (13) _USBCB_SOF_Handler                                   0     0      0       0
 ---------------------------------------------------------------------------------
 (13) _USBCBWakeFromSuspend                                0     0      0       0
 ---------------------------------------------------------------------------------
 (13) _USBCBSuspend                                        0     0      0       0
 ---------------------------------------------------------------------------------
 (13) _USBCBStdSetDscHandler                               0     0      0       0
 ---------------------------------------------------------------------------------
 (13) _USBCBInitEP                                         0     0      0    1098
                  _USBEnableEndpoint
             i2_USBTransferOnePacket
 ---------------------------------------------------------------------------------
 (14) i2_USBTransferOnePacket                             11     7      4     454
                                              0 COMRAM    11     7      4
 ---------------------------------------------------------------------------------
 (14) _USBEnableEndpoint                                   4     3      1     644
                                             10 COMRAM     4     3      1
               _USBConfigureEndpoint
 ---------------------------------------------------------------------------------
 (15) _USBConfigureEndpoint                               10     9      1     400
                                              0 COMRAM    10     9      1
 ---------------------------------------------------------------------------------
 (13) _USBCBErrorHandler                                   0     0      0       0
 ---------------------------------------------------------------------------------
 (13) _USBCBCheckOtherReq                                  0     0      0       0
                 _USBCheckHIDRequest
 ---------------------------------------------------------------------------------
 (14) _USBCheckHIDRequest                                  2     2      0       0
                                              0 COMRAM     2     2      0
 ---------------------------------------------------------------------------------
 (13) _USBCtrlTrfOutHandler                                0     0      0     114
                _USBCtrlTrfRxService
 ---------------------------------------------------------------------------------
 (14) _USBCtrlTrfRxService                                 2     2      0     114
                                              0 COMRAM     2     2      0
          _USBCtrlEPAllowStatusStage
 ---------------------------------------------------------------------------------
 (15) _USBCtrlEPAllowStatusStage                           0     0      0       0
 ---------------------------------------------------------------------------------
 (13) _USBCtrlTrfInHandler                                 1     1      0     115
                                              1 COMRAM     1     1      0
                _USBCtrlTrfTxService
 ---------------------------------------------------------------------------------
 (16) _USBCtrlTrfTxService                                 1     1      0      92
                                              0 COMRAM     1     1      0
 ---------------------------------------------------------------------------------
 (11) _UART_tx_udr_empty_irq                               1     1      0      23
                                              0 COMRAM     1     1      0
 ---------------------------------------------------------------------------------
 (11) _UART_rx_complete_irq                                5     5      0      45
                                              0 COMRAM     5     5      0
 ---------------------------------------------------------------------------------
 Estimated maximum stack depth 16
 ---------------------------------------------------------------------------------

 Call Graph Graphs:

 _main (ROOT)
   _Enable_Interrupt
   _InitializeSystem
     _USBDeviceInit
       _memset
     _UserInit
   _Interrupt_Init
   _UART_Init
     ___lldiv
   _UART_putrs
     _UART_write
   _UART_puts
     _UART_write
   _USBTransferOnePacket
   _gpioInitialize
   _sprintf
     _vfprintf
       _vfpfcnvrt
         _fputc
           _putch
         _utoa
           ___lodiv
           ___lomod
           _pad
             _fputc
             _fputs
               _fputc
   _timer1_Init
   _timerStart
   _timerZero_Init

 _myISR_low (ROOT)

 _myISR_high (ROOT)
   _UART_rx_complete_irq
   _UART_tx_udr_empty_irq
   _USBDeviceTasks
     _USBCtrlEPService
       _USBCtrlTrfInHandler
         _USBCtrlTrfTxService
       _USBCtrlTrfOutHandler
         _USBCtrlTrfRxService
           _USBCtrlEPAllowStatusStage
       _USBCtrlTrfSetupHandler
         _USBCheckStdRequest
           _USBStdFeatureReqHandler
             _USER_USB_CALLBACK_EVENT_HANDLER
               _USBCBCheckOtherReq
                 _USBCheckHIDRequest
               _USBCBErrorHandler
               _USBCBInitEP
                 _USBEnableEndpoint
                   _USBConfigureEndpoint
                 i2_USBTransferOnePacket
               _USBCBStdSetDscHandler
               _USBCBSuspend
               _USBCBWakeFromSuspend
               _USBCB_SOF_Handler
           _USBStdGetDscHandler
           _USBStdGetStatusHandler
           _USBStdSetCfgHandler
             _USER_USB_CALLBACK_EVENT_HANDLER
             i2_memset
           _USER_USB_CALLBACK_EVENT_HANDLER
         _USBCtrlEPServiceComplete
           _USBCtrlEPAllowDataStage
             _USBCtrlTrfTxService
           _USBCtrlEPAllowStatusStage
         _USER_USB_CALLBACK_EVENT_HANDLER
       _memcpy
     _USBIncrement1msInternalTimers
     _USBStallHandler
     _USBSuspend
       _USER_USB_CALLBACK_EVENT_HANDLER
     _USBWakeFromSuspend
       _USER_USB_CALLBACK_EVENT_HANDLER
     _USER_USB_CALLBACK_EVENT_HANDLER
     i2_USBDeviceInit
       i2_memset

 Address spaces:
Name               Size   Autos  Total    Cost      Usage
BIGRAM             3EE      0       0      37        0.0%
BIGRAM_1           3D0      0     200      36       52.5%
EEDATA             100      0       0       0        0.0%
BITBANK7           100      0       0      17        0.0%
BANK7              100      0       0      18        0.0%
BITBANK6           100      0       0      15        0.0%
BANK6              100      0       0      16        0.0%
BITBANK5           100      0       0      13        0.0%
BANK5              100      0       0      14        0.0%
BITBANK2           100      0       0       7        0.0%
BANK2              100      0      80       8       50.0%
BITBANK1           100      0       0       5        0.0%
BANK1              100     6F      D5       6       83.2%
BITBANK3            EF      0       0       9        0.0%
BANK3               EF      0       0      10        0.0%
BITBANK4            D0      0       0      11        0.0%
BANK4               D0      0       0      12        0.0%
BITBANK0            A0      0       0       3        0.0%
BANK0               A0     71      96       4       93.8%
BITCOMRAM           5E      0       0       0        0.0%
COMRAM              5E     2D      4A       1       78.7%
BITBIGSFRllhh       17      0       0      33        0.0%
BITBIGSFR_5h         9      0       0      19        0.0%
BITBIGSFR_1lll       9      0       0      28        0.0%
BITBIGSFR_1llhh      8      0       0      26        0.0%
BITBIGSFR_1lh        8      0       0      25        0.0%
BITBIGSFRlllll       8      0       0      34        0.0%
BITBIGSFR_1llhl      7      0       0      27        0.0%
BITBIGSFRhhh         5      0       0      29        0.0%
BITBIGSFRhl          4      0       0      31        0.0%
BITBIGSFRhhl         3      0       0      30        0.0%
BITBIGSFRlh          3      0       0      32        0.0%
BITBIGSFR_2h         3      0       0      23        0.0%
BITBIGSFR_1h         3      0       0      24        0.0%
BITBIGSFR_4          3      0       0      21        0.0%
BITBIGSFR_3          3      0       0      22        0.0%
BITBIGSFR_5l         1      0       0      20        0.0%
BIGSFR_5             0      0       0     200        0.0%
BIGSFR_4             0      0       0     200        0.0%
BIGSFR_3             0      0       0     200        0.0%
BIGSFR_2             0      0       0     200        0.0%
BIGSFR_1             0      0       0     200        0.0%
BIGSFR               0      0       0     200        0.0%
BITSFR_5             0      0       0     200        0.0%
SFR_5                0      0       0     200        0.0%
BITSFR_4             0      0       0     200        0.0%
SFR_4                0      0       0     200        0.0%
BITSFR_3             0      0       0     200        0.0%
SFR_3                0      0       0     200        0.0%
BITSFR_2             0      0       0     200        0.0%
SFR_2                0      0       0     200        0.0%
BITSFR_1             0      0       0     200        0.0%
SFR_1                0      0       0     200        0.0%
BITSFR               0      0       0     200        0.0%
SFR                  0      0       0     200        0.0%
STACK                0      0       0       2        0.0%
NULL                 0      0       0       0        0.0%
ABS                  0      0     235      35        0.0%
DATA                 0      0     435      38        0.0%
CODE                 0      0       0       0        0.0%


Microchip Technology PIC18 Macro Assembler V2.40 build 20220703182018 
Symbol Table                                                                                   Sat Dec 03 14:19:12 2022

                       ??_Interrupt_Init 0063                               _USB_SD_Ptr 7B5D  
                                     bsr 000FE0                            _USBDeviceInit 1630  
                     _USBCheckHIDRequest 11FC     USER_USB_CALLBACK_EVENT_HANDLER@event 000F  
   USER_USB_CALLBACK_EVENT_HANDLER@pdata 0011                                      l202 3148  
                                    l131 00AC                                      l205 3142  
                                    l214 3114                                      l217 313A  
                                    l147 0194                                      l149 01A2  
            __end_of_USBStdGetDscHandler 1630                                      l190 3122  
                                    l193 3130                                      l425 1B50  
                                    l196 30EC                                      l381 1698  
                                    l199 3100                                      l386 177C  
                                    l722 0DF2                                      l724 0E7E  
                                    l733 2FB4                                      l727 0F0C  
                                    l816 2B08                                      l809 2AF8  
                                    l739 3050                                      _BDT 000400  
                                    l768 2FEA                                      _UIE 000F69  
                                    _UIR 000F68                                      _pad 2B9A  
                             _USBSuspend 3082                     USBStdSetCfgHandler@i 0017  
                                    prod 000FF3                                      wreg 000FE8  
                         _USBDeviceTasks 0946                      ?_USBCheckHIDRequest 0001  
                         _USBDeviceState 0174                   ??_USBCBWakeFromSuspend 0001  
                  ??_USBCtrlTrfRxService 0001                 USBEnableEndpoint@options 000B  
                 ??_UART_rx_complete_irq 0001                 __end_of_Enable_Interrupt 314A  
                                   l1220 23FE                                     l1230 26B0  
                                   l1227 241E                                     l1500 2C16  
                                   l1237 26D0                                     l1512 0D52  
                                   l1504 0BB6                                     l1521 14CE  
                                   l1506 0BBE                                     l1540 279C  
                                   l1463 1084                                     l1551 3150  
                                   l1528 2E56                                     l1548 2F3A  
                                   l1476 2E04               USBConfigureEndpoint@handle 0009  
                                   l1496 2BBE                                     l5401 2F14  
                                   l5411 2362                                     l5403 2F1A  
                                   l5501 0FE2                                     l5421 23E4  
                                   l5413 2376                                     l5405 232E  
                                   ?_pad 0073                                     l5511 1068  
                                   l5503 100E                                     l5423 23E6  
                                   l5415 2384                                     l5407 233A  
                                   l5431 2628                                     l5513 106E  
                                   l5601 16DA                                     l5425 23F8  
                                   l5417 2396                                     l5409 235A  
                                   l5441 26AA                                     l5433 263C  
                                   l5521 139C                                     l5515 1072  
                                   l5507 1028                                     l5611 173C  
                                   l5603 170A                                     l5419 23C4  
                                   l5435 264A                                     l5427 2600  
                                   l5451 2BDE                                     l5443 2B9A  
                                   l5531 1436                                     l5523 13AA  
                                   l5509 105C                                     l5621 175A  
                                   l5613 1744                                     l5605 171A  
                                   l5437 2678                                     l5429 2620  
                                   l5453 2BE4                                     l5445 2BAA  
                                   l5461 0BE6                                     l6181 1484  
                                   l5525 13AE                                     l5517 136A  
                                   l5701 30FC                                     l5623 175C  
                                   l5615 1748                                     l5607 172A  
                                   l5711 0D54                                     l5631 2FBA  
                                   l5439 2698                                     l5391 2720  
                                   l5383 26D2                                     l5455 2C02  
                                   l5447 2BB6                                     l5471 0C7C  
                                   l5463 0BEE                                     l5527 13BE  
                                   l5519 138E                                     l5543 14A4  
                                   l5703 30FE                                     l5705 3144  
                                   l5625 1760                                     l5617 1752  
                                   l5609 172C                                     l5561 165C  
                                   l5553 3102                                     l5721 0E00  
                                   l5713 0D74                                     l5633 2FC2  
                                   l5393 2756                                     l5385 26E6  
                                   l5449 2BCA                                     l5481 0D32  
                                   l5473 0C82                                     l5465 0BF8  
                                   l5457 0B8E                                     l5537 1466  
                                   l5529 13DA                                     l5801 00AE  
                                   l5491 0F3A                                     l5627 1772  
                                   l5619 1756                                     l5563 1660  
                                   l5555 1630                                     l5707 3132  
                                   l5651 2AA0                                     l5643 2A64  
                                   l5731 0E8C                                     l5723 0E0E  
                                   l5715 0D82                                     l5635 2FD4  
                                   l5387 26F8                                     l5467 0BFE  
                                   l5475 0CE6                                     l5459 0BAA  
                                   l5539 1492                                     l6179 058E  
                                   l5811 00F6                                     l5803 00C0  
                                   l5485 0F0E                                     l5629 1776  
                                   l5581 169E                                     l5573 166E  
                                   l5565 1664                                     l5557 1632  
                                   l5709 3136                                     l5661 2AE8  
                                   l5653 2AAE                                     l5645 2A76  
                                   l5733 0E9A                                     l5725 0E1C  
                                   l5741 0F02                                     l5717 0D90  
                                   l5637 2FE4                                     l5389 2702  
                                   l5397 2EF4                                     l5477 0CFA  
                                   l5469 0C76                                     l5901 0410  
                                   l5821 015E                                     l5813 0108  
                                   l5805 00C4                                     l5495 0F70  
                                   l5591 16AC                                     l5583 16A0  
                                   l5575 1686                                     l5567 1668  
                                   l5559 163E                                     l5663 2AF2  
                                   l5655 2AB8                                     l5647 2A8C  
                                   l5743 0F06                                     l5735 0EA8  
                                   l5727 0E72                                     l5719 0D9E  
                                   l5639 2FE8                                     l5751 2F82  
                                   l4871 1A6C                                     l4863 1A14  
                                   l5399 2F02                                     l5479 0D18  
                                   l5671 2E4C                                     l5911 0476  
                                   l5903 041C                                     l5831 01AA  
                                   l5823 0172                                     l5815 011E  
                                   l5807 00D2                                     l5497 0FC8  
                                   l5489 0F2E                                     l5593 16B4  
                                   l5585 16A2                                     l5577 1688  
                                   l5657 2AD6                                     l5649 2A94  
                                   l5745 0F08                                     l5729 0E76  
                                   l5753 2F92                                     l4881 1AB4  
                                   l4865 1A26                                     l5681 311E  
                                   l5665 2E06                                     l5761 2DCE  
                                   l5921 04DC                                     l5913 0482  
                                   l5905 0440                                     l5841 01FC  
                                   l5833 01B0                                     l5825 0188  
                                   l5817 0142                                     l5809 00E4  
                                   l5595 16C2                                     l5587 16A4  
                                   l5579 169A                                     l5659 2AE6  
                                   l5747 0F0A                                     l5755 2F98  
                                   l5771 3024                                     l4883 1AC0  
                                   l4875 1A78                                     l4867 1A42  
                                   l5683 3120                                     l5675 3116  
                                   l5667 2E12                                     l5763 2DD6  
                                   l5691 30EA                                     l5923 04E4  
                                   l5915 04A6                                     l5907 044C  
                                   l5851 024E                                     l5843 0212  
                                   l5835 01B8                                     l5827 0190  
                                   l5819 0152                                     l5589 16A8  
                                   l5693 3124                                     l5749 2F7E  
                                   l5773 3032                                     l4885 1AD0  
                                   l4877 1A9C                                     l4869 1A5A  
                                   l5677 311A                                     l5669 2E30  
                                   l5765 2DF2                                     l5757 2DB4  
                                   l5685 30DA                                     l5933 051A  
                                   l5925 0508                                     l5917 04B2  
                                   l5909 0460                                     l5861 02A8  
                                   l5853 0262                                     l5845 0216  
                                   l5837 01DC                                     l5829 0192  
                                   l5781 0070                                     l5775 3038  
                                   l4887 1B0E                                     l4879 1AA8  
                                   l5679 311C                                     l5759 2DC6  
                                   l5695 313C                                     l5687 30E6  
                                   l5935 0550                                     l5927 0514  
                                   l5919 04C6                                     l5871 02EA  
                                   l5863 02B4                                     l5855 0278  
                                   l5847 021E                                     l5839 01E8  
                                   l5943 0576                                     l5791 0084  
                                   l5783 0074                                     l5769 3020  
                                   l4889 1B48                                     l5697 30EE  
                                   l5689 30E8                                     l5937 055E  
                                   l5881 0348                                     l5873 030E  
                                   l5865 02C8                                     l5857 027C  
                                   l5849 0242                                     l5793 0086  
                                   l5785 0078                                     l5777 0068  
                                   l5699 30FA                                     l5939 0562  
                                   l5891 03AA                                     l5883 0350  
                                   l5875 031A                                     l5867 02DE  
                                   l5859 0284                                     l5795 008A  
                                   l5787 007C                                     l5779 006C  
                                   l5893 03B6                                     l5885 0374  
                                   l5877 032E                                     l5869 02E2  
                                   l5797 008C                                     l5789 0080  
                                   l5895 03DA                                     l5887 0380  
                                   l5879 0344                                     l5799 009E  
                                   l5897 03E6                                     l5889 0394  
                                   l5899 03FA                                     STR_1 7D23  
                                   STR_2 7D23                                     STR_3 7C23  
                                   STR_4 7D03                                     STR_5 7C3F  
                                   STR_6 7C59                                     STR_7 7C73  
                                   STR_8 7C8D                                     STR_9 7CBE  
                                   u4201 2334                                     u4210 235A  
                                   u4211 2356                                     u4220 2384  
                                   u4300 0CFA                                     u4221 2380  
                                   u4301 0CF6                                     u4230 23C4  
                                   u4150 26E6                                     u4310 0D18  
                                   u4231 23C0                                     u4151 26E2  
                                   u4311 0D14                                     u4400 1698  
                                   u4240 2620                                     u4160 26F8  
                                   u4320 0D32                                     u4401 1694  
                                   u4241 261C                                     u4161 26F4  
                                   u4321 0D2E                                     u4330 0F2A  
                                   u4410 16C2                                     u4250 264A  
                                   u4170 2720                                     u4331 0F26  
                                   u4411 16BE                                     u4251 2646  
                                   u4171 271C                                     u4340 0F6C  
                                   u4420 173C                                     u4500 0D9E  
                                   u4260 2678                                     u4180 2756  
                                   u4341 0F68                                     u4421 1738  
                                   u4501 0D9A                                     u4261 2674  
                                   u4181 2752                                     u4350 0FDE  
                                   u4510 0DCE                                     u4430 2FD4  
                                   u4190 2F3A                                     u4270 2BAA  
                                   u4351 0FDA                                     u4431 2FD0  
                                   u4191 2F36                                     u4271 2BA6  
                                   u4360 1024                                     u4440 2A8C  
                                   u4520 0E00                                     u4600 2FB4  
                                   u4280 2C02                                     u4361 1020  
                                   u4441 2A88                                     u4521 0DFC  
                                   u4601 2FB0                                     u4281 2BFE  
                                   u4370 1084                                     u4450 2AAE  
                                   u4530 0E0E                                     u4610 3050  
                                   u4290 0BAA                                     u4371 1080  
                                   u4451 2AAA                                     u4531 0E0A  
                                   u4515 0DC6                                     u4611 304C  
                                   u4291 0BA6                                     u4460 2AD6  
                                   u4540 0E1C                                     u4380 138E  
                                   u4700 01FC                                     u4620 00C0  
                                   u4461 2AD2                                     u4541 0E18  
                                   u4381 138A                                     u4701 01F8  
                                   u4621 00BC                                     u4550 0E4C  
                                   u4390 13DA                                     u4470 2E4C  
                                   u4710 0212                                     u4630 00E4  
                                   u4391 13D6                                     u4471 2E48  
                                   u4711 020E                                     u4631 00E0  
                                   u4560 0E8C                                     u4480 0D82  
                                   u3760 1A26                                     u4800 03FA  
                                   u4720 0262                                     u4640 00F2  
                                   u4561 0E88                                     u4481 0D7E  
                                   u3761 1A22                                     u4801 03F6  
                                   u4721 025E                                     u4641 00EE  
                                   u4570 0E9A                                     u4490 0D90  
                                   u3770 1A6C                                     u4810 0410  
                                   u4730 0278                                     u4650 0108  
                                   u4571 0E96                                     u4555 0E44  
                                   u4491 0D8C                                     u3771 1A68  
                                   u4811 040C                                     u4731 0274  
                                   u4651 0104                                     u4580 0EA8  
                                   u3780 1AD0                                     u4820 0460  
                                   u4740 02C8                                     u4660 011E  
                                   u4581 0EA4                                     u3781 1ACC  
                                   u4821 045C                                     u4741 02C4  
                                   u4661 011A                                     u4590 0ED8  
                                   u4830 0476                                     u4750 02DE  
                                   u4670 0172                                     u4831 0472  
                                   u4751 02DA                                     u4671 016E  
                                   u4840 04C6                                     u4760 032E  
                                   u4680 0188                                     u4841 04C2  
                                   u4761 032A                                     u4681 0184  
                                   u4850 04DC                                     u4770 0344  
                                   u4690 01A2                                     u4595 0ED0  
                                   u4851 04D8                                     u4771 0340  
                                   u4691 019E                                     u4860 0572  
                                   u4780 0394                                     u4861 056E  
                                   u4781 0390                                     u4790 03AA  
                                   u4791 03A6                    ??_USBCtrlTrfTxService 0001  
                                   _UCFG 000F6F                                     _UEP0 000F70  
                                   _UEP1 000F71                                     _UEIE 000F6B  
                                   _UEIR 000F6A                                     _UCON 000F6D  
 USBStdFeatureReqHandler@current_ep_data 001B                                     _pDst 0032  
                                   _dbuf 01B5                                     _main 0068  
               ??i2_USBTransferOnePacket 0005                                     _prec 00ED  
                                   pad@i 007A                                     pad@p 0077  
                                   fsr1h 000FE2                                     fsr2h 000FDA  
                                   indf1 000FE7                                     indf2 000FDF  
                                   fsr1l 000FE1                                     pad@w 007C  
                                   fsr2l 000FD9                                     btemp 004B  
                                   _utoa 0B8E                                     prodh 000FF4  
                                   prodl 000FF3                                     start 0064  
                     _USBCBCheckOtherReq 314A                     ??_USBCheckHIDRequest 0001  
             __end_of_USBCheckStdRequest 2014                   ??_USBCtrlTrfOutHandler 0003  
                           ___param_bank 000000                ??_USBStdFeatureReqHandler 0017  
                           _USBOutHandle 0171                 ??_USBStdGetStatusHandler 0001  
                                  ??_pad 0079                           ?_USBDeviceInit 0001  
                    ?_USBCBCheckOtherReq 0001                                    ?_main 0001  
                                  _ADRES 000FC3                                    STR_10 7CD5  
                                  STR_11 7CEC                                    STR_12 7CA7  
                                  STR_13 7D31                                    STR_14 7D14  
                        __end_of___lldiv 2B0A                                    ?_utoa 007E  
                                  _T0CON 000FD5                          __end_of___lodiv 2420  
                                  _T1CON 000FCD                   __end_of_USBDeviceTasks 0B8E  
                        __end_of___lomod 26D2                ?_USBCtrlEPServiceComplete 0001  
                                  i1l126 0054                                    i2l111 22C2  
                                  i2l120 2302                                    i2l211 30D8  
                                  i2l231 2A62                                    i2l240 315A  
                                  i2l234 3158                                    i2l243 3152  
                                  i2l237 314E                                    i2l229 29F2  
                                  i2l405 0AE2                                    i2l246 3154  
                                  i2l406 0B8A                                    i2l503 25FE  
                                  i2l407 0AF4                                    i2l440 2510  
                                  i2l425 1DD0                                    i2l249 3156  
                                  i2l521 1DE0                                    i2l610 07F8  
                                  i2l450 2904                                    i2l419 2EF2  
                                  i2l444 2510                                    i2l532 1EF2  
                                  i2l524 1ED4                                    i2l540 30AE  
                                  i2l517 162E                                    i2l525 1DFC  
                                  i2l381 17E2                                    i2l622 0944  
                                  i2l526 1E04                                    i2l390 0B8C  
                                  i2l455 29B4                                    i2l535 2D5E  
                                  i2l392 0972                                    i2l537 2D60  
                                  i2l393 0970                                    i2l570 210C  
                                  i2l618 08A6                                    i2l458 1BEE  
                                  i2l554 2850                                    i2l546 2F7C  
                                  i2l386 18CA                                    i2l483 2232  
                                  i2l627 301E                                    i2l564 2D00  
                                  i2l468 1C92                                    i2l557 2B98  
                                  i2l494 19F8                                    i2l582 2012  
                                  i2l398 09EA                                    i2l496 1A0E  
                                  i2l648 1368                                    i2l584 1F10  
                                  i2l577 211C                                    i2l593 1F66  
                                  i2l578 2122                                    i2l771 2C2A  
                                  i2l772 2C3A                                    i2l775 2C8C  
                                  i2l599 0632                                    _UADDR 000F6E  
                                  i2l779 3080                                    _RCREG 000FAE  
                                  _RCSTA 000FAB                             vfpfcnvrt@fmt 00A0  
                                  _TMR0H 000FD7                                    _TMR1H 000FCF  
                                  _TMR0L 000FD6                                    _TMR1L 000FCE  
                                  _SPBRG 000FAF                                    _USTAT 000F6C  
                                  _TXREG 000FAD                                    _TXSTA 000FAC  
        __end_of_USBCtrlEPAllowDataStage 2906                                    _sd000 7C1F  
                                  _sd001 7B65                                    _sd002 7B99  
         ?_USBIncrement1msInternalTimers 0001                                    _flags 00F3  
                                  _fputc 26D2                                    _fputs 2EF4  
                            ?_UART_putrs 0065                              ?_UART_write 0001  
                                  pad@fp 0073                                    _width 00EB  
                                  _putch 3150                     ??_USBCBCheckOtherReq 0003  
                                  main@w 0164                                    tablat 000FF5  
                       ??_timerZero_Init 0063                                    plusw2 000FDB  
                                  ttemp5 004C                                    ttemp6 004F  
                                  ttemp7 0053                                    utoa@d 0080  
                                  utoa@i 009C                                    utoa@n 0094  
                                  utoa@p 0092                                    utoa@w 0090  
                                  status 000FD8                                    wtemp8 004C  
                        __end_of_sprintf 2E06                         ___lodiv@dividend 0063  
                       __end_ofi2_memset 11FC                          __initialization 2D62  
                           __end_of_main 05E8                             __end_of_utoa 0D54  
                                 ??_main 00CF                                   ??_utoa 0088  
                          __activetblptr 000002                          ?_USBDeviceTasks 0001  
                            ?_USBSuspend 0001                         ___lodiv@quotient 0073  
                       __end_of_UserInit 3116                                   _ADCON1 000FC1  
                                 ?_fputc 0063                                   ?_fputs 006C  
                                 ?_putch 0001                                   i2l4001 0878  
                                 i2l4011 08EA                                   i2l4003 0882  
                                 i2l4013 08F6                                   i2l4005 0890  
                                 i2l4101 1C1E                                   i2l4007 08B6  
                                 i2l4015 0916                                   i2l1463 11FA  
                                 i2l4111 1C5E                                   i2l4103 1C2E  
                                 i2l4017 0922                                   i2l4009 08D2  
                                 i2l4113 1C6A                                   i2l4105 1C36  
                                 i2l4131 1900                                   i2l4123 18CC  
                                 i2l4019 0938                                   i2l4203 1FA0  
                                 i2l4115 1C76                                   i2l4107 1C3A  
                                 i2l1459 2EA6                                   i2l4141 1938  
                                 i2l4133 1908                                   i2l4125 18DC  
                                 i2l4117 1C7A                                   i2l4109 1C4A  
                                 i2l4301 2B6C                                   i2l4151 19A0  
                                 i2l4143 194A                                   i2l4135 1920  
                                 i2l4127 18F4                                   i2l4311 2CA0  
                                 i2l4119 1C7E                                   i2l4303 2B74  
                                 i1l4951 004C                                   i1l4943 0026  
                                 i2l4153 19AC                                   i2l4145 196E  
                                 i2l4137 1924                                   i2l4129 18F8  
                                 i2l4321 2CFC                                   i2l4313 2CA8  
                                 i2l3521 2968                                   i2l3513 2908  
                                 i2l4081 1B8A                                   i2l4073 1B52  
                                 i2l4305 2B78                                   i1l4953 0052  
                                 i1l4945 0034                                   i2l4331 204C  
                                 i2l4323 2014                                   i2l4163 19FA  
                                 i2l4147 1984                                   i2l4155 19BC  
                                 i2l4139 1926                                   i2l4315 2CBC  
                                 i2l3523 2984                                   i2l3515 2910  
                                 i2l3531 2EB8                                   i2l3611 1C96  
                                 i2l4171 1F14                                   i2l4091 1BDE  
                                 i2l4083 1B8E                                   i2l4075 1B64  
                                 i2l4307 2B94                                   i1l4947 0042  
                                 i2l2821 2C38                                   i2l3701 2170  
                                 i2l4341 2092                                   i2l4333 205C  
                                 i2l4325 2026                                   i2l4165 1A0A  
                                 i2l4157 19E0                                   i2l4149 1990  
                                 i2l4317 2CE0                                   i2l4309 2C8E  
                                 i2l3541 11FC                                   i2l3525 299C  
                                 i2l3517 294E                                   i2l3533 2EC2  
                                 i2l3613 1CA6                                   i2l4181 1F3A  
                                 i2l4173 1F1E                                   i2l4093 1BFE  
                                 i2l4077 1B72                                   i2l4085 1B96  
                                 i2l4501 3092                                   i1l4949 004A  
                                 i2l2823 2C3E                                   i2l3711 21A2  
                                 i2l3703 2178                                   i2l4351 20D4  
                                 i2l4343 2096                                   i2l4335 2066  
                                 i2l4327 2030                                   i2l4159 19EC  
                                 i2l4319 2CEC                                   i2l3527 29A6  
                                 i2l3519 2958                                   i2l3535 2ED0  
                                 i2l3631 1D40                                   i2l3623 1CF8  
                                 i2l3615 1CC2                                   i2l4183 1F3E  
                                 i2l4175 1F26                                   i2l4167 1EF4  
                                 i2l4095 1C12                                   i2l4087 1BBA  
                                 i2l4079 1B86                                   i2l4271 2E58  
                                 i2l4511 301C                                   i2l4503 2FEC  
                                 i2l2825 2C6E                                   i2l2817 2C18  
                                 i2l3721 21EC                                   i2l3713 21CC  
                                 i2l3705 2188                                   i2l4361 211E  
                                 i2l4353 20E0                                   i2l4345 20A8  
                                 i2l4329 2044                                   i2l4337 206C  
                                 i2l3801 24EC                                   i2l3561 126A  
                                 i2l3553 1240                                   i2l3545 1216  
                                 i2l3537 2EDA                                   i2l3529 2EAA  
                                 i2l3633 1D50                                   i2l3625 1D1C  
                                 i2l3617 1CDA                                   i2l3641 30B0  
                                 i2l4185 1F44                                   i2l4177 1F2E  
                                 i2l4097 1C16                                   i2l4089 1BC6  
                                 i2l4273 2E6C                                   i2l4281 2E8C  
                                 i2l4505 2FFA                                   i2l4521 2D50  
                                 i2l4513 2D02                                   i2l4601 17B4  
                                 i2l2827 2C7E                                   i2l2819 2C26  
                                 i2l3723 2216                                   i2l3715 21D2  
                                 i2l3707 2190                                   i2l4355 20F0  
                                 i2l4347 20B4                                   i2l4339 207C  
                                 i2l3803 2500                                   i2l3563 1274  
                                 i2l3555 1250                                   i2l3571 12B2  
                                 i2l3643 314A                                   i2l3539 2EE6  
                                 i2l3635 1D8E                                   i2l3627 1D28  
                                 i2l3619 1CEC                                   i2l4187 1F4C  
                                 i2l4179 1F38                                   i2l3811 2890  
                                 i2l4099 1C1A                                   i2l4291 2B46  
                                 i2l4283 2B0A                                   i2l4275 2E78  
                                 i2l4531 27D8                                   i2l4507 300A  
                                 i2l4523 2D5C                                   i2l4515 2D10  
                                 i2l4611 17D2                                   i2l2829 2C8A  
                                 i2l3725 221C                                   i2l3717 21D6  
                                 i2l4357 20FC                                   i2l4349 20C4  
                                 i2l3581 12E8                                   i2l3557 125A  
                                 i2l3549 122A                                   i2l3637 1DC8  
                                 i2l3629 1D34                                   i2l3661 29BA  
                                 i2l3901 1DD2                                   i2l4197 1F6A  
                                 i2l4189 1F54                                   i2l3821 28D6  
                                 i2l3813 289C                                   i2l3805 2852  
                                 i2l4293 2B50                                   i2l4285 2B22  
                                 i2l4277 2E7C                                   i2l4533 27E2  
                                 i2l4541 2838                                   i2l4525 279E  
                                 i2l4509 300C                                   i2l4517 2D2A  
                                 i2l4621 17EE                                   i2l4613 17E4  
                                 i2l4701 09F8                                   i2l3727 2220  
                                 i2l3719 21D8                                   i2l3591 1310  
                                 i2l3583 12EE                                   i2l3575 12CE  
                                 i2l3559 1262                                   i2l3671 29E2  
                                 i2l3663 29C2                                   i2l3911 1E1E  
                                 i2l3751 113E                                   i2l3743 10A4  
                                 i2l3831 254E                                   i2l4199 1F80  
                                 i2l3823 28EC                                   i2l3815 28AC  
                                 i2l3807 285A                                   i2l4295 2B5C  
                                 i2l4287 2B2E                                   i2l4279 2E88  
                                 i2l4543 284C                                   i2l4535 2800  
                                 i2l4527 27B4                                   i2l4519 2D44  
                                 i2l4623 17F4                                   i2l4615 17E8  
                                 i2l4607 17B8                                   i2l4711 0A20  
                                 i2l4703 0A06                                   i2l3729 2222  
                                 i2l3593 1316                                   i2l3585 12F6  
                                 i2l3577 12D8                                   i2l3569 1280  
                                 i2l3673 29EA                                   i2l3665 29CA  
                                 i2l3921 1E98                                   i2l3913 1E2C  
                                 i2l3905 1DE4                                   i2l3761 119E  
                                 i2l3745 10B0                                   i2l3841 2574  
                                 i2l3833 2550                                   i2l3825 28F8  
                                 i2l3817 28CA                                   i2l3809 286C  
                                 i2l4297 2B60                                   i2l4289 2B3A  
                                 i2l4537 2828                                   i2l4529 27D0  
                                 i2l4481 2F5E                                   i2l4641 1876  
                                 i2l4625 17F8                                   i2l4617 17EA  
                                 i2l4609 17D0                                   i2l4721 0A6A  
                                 i2l4713 0A2E                                   i2l4705 0A0A  
                                 i2l3691 2140                                   i2l3771 2420  
                                 i2l3587 1300                                   i2l3579 12E0  
                                 i2l3667 29D2                                   i2l3659 29B6  
                                 i2l3931 1EEE                                   i2l3915 1E4E  
                                 i2l3907 1DF4                                   i2l3763 11D2  
                                 i2l3755 1158                                   i2l3739 1086  
                                 i2l3851 25AE                                   i2l3843 2576  
                                 i2l3827 2512                                   i2l3819 28D2  
                                 i2l4299 2B68                                   i2l4539 2830  
                                 i2l4491 3082                                   i2l4483 2F60  
                                 i2l4651 18A0                                   i2l4643 1878  
                                 i2l4635 1826                                   i2l4627 1800  
                                 i2l4619 17EC                                   i2l4731 0A90  
                                 i2l4723 0A6C                                   i2l4715 0A32  
                                 i2l4707 0A10                                   i2l3693 2144  
                                 i2l3781 246C                                   i2l3773 2430  
                                 i2l3589 1308                                   i2l3597 131E  
                                 i2l3669 29DA                                   i2l3677 29F8  
                                 i2l3941 060E                                   i2l3917 1E6C  
                                 i2l3909 1E08                                   i2l3925 1EA0  
                                 i2l3765 11DE                                   i2l3757 1184  
                                 i2l3749 10E6                                   i2l3861 25DC  
                                 i2l3853 25B6                                   i2l3845 2586  
                                 i2l3829 2516                                   i2l4493 3084  
                                 i2l4485 2F66                                   i2l4477 2F3C  
                                 i2l4661 18C0                                   i2l4653 18A4  
                                 i2l4645 1888                                   i2l4637 1856  
                                 i2l4629 180E                                   i2l4741 0ADC  
                                 i2l4733 0A9E                                   i2l4717 0A40  
                                 i2l4725 0A70                                   i2l4709 0A12  
                                 i2l3695 2154                                   i2l3687 2124  
                                 i2l3791 24AC                                   i2l3783 2478  
                                 i2l3775 2444                                   i2l6191 2A16  
                                 i2l3951 0656                                   i2l3943 0612  
                                 i2l3871 14F8                                   i2l3927 1EE4  
                                 i2l3919 1E82                                   i2l3767 11E4  
                                 i2l3863 25F8                                   i2l3855 25BE  
                                 i2l3847 25A2                                   i2l3839 2554  
                                 i2l4495 3086                                   i2l4487 2F68  
                                 i2l4479 2F42                                   i2l4663 18C4  
                                 i2l4655 18A8                                   i2l4647 1892  
                                 i2l4639 1866                                   i2l4591 1780  
                                 i2l4751 0B06                                   i2l4743 0AF0  
                                 i2l4735 0AAC                                   i2l4727 0A7E  
                                 i2l4719 0A4E                                   i2l6183 22A4  
                                 i2l3697 215C                                   i2l3689 2128  
                                 i2l3793 24C0                                   i2l3785 2488  
                                 i2l3777 2448                                   i2l6193 2A54  
                                 i2l3961 06C6                                   i2l3953 066A  
                                 i2l3945 0626                                   i2l3937 05E8  
                                 i2l3881 1596                                   i2l3873 1504  
                                 i2l3865 14D0                                   i2l3929 1EEC  
                                 i2l3769 11E8                                   i2l3857 25C2  
                                 i2l3849 25A4                                   i2l6185 1FB4  
                                 i2l4497 3088                                   i2l4489 2F76  
                                 i2l4657 18AA                                   i2l4649 1896  
                                 i2l4593 178C                                   i2l4761 0B44  
                                 i2l4753 0B10                                   i2l4737 0AC6  
                                 i2l4729 0A8C                                   i2l4681 0996  
                                 i2l4673 0946                                   i2l4665 0946  
                                 i2l4921 2286                                   i2l4913 225C  
                                 i2l4771 3052                                   i2l3699 216C  
                                 i2l3795 24CC                                   i2l3787 2498  
                                 i2l3779 245A                                   i2l6195 1294  
                                 i2l3971 0736                                   i2l3963 06E2  
                                 i2l3955 0680                                   i2l3947 062E  
                                 i2l3939 05FA                                   i2l3883 15A0  
                                 i2l3875 1514                                   i2l3867 14E4  
                                 i2l6187 1EB6                                   i2l3859 25D2  
                                 i2l4499 308E                                   i2l4659 18AE  
                                 i2l4595 17A8                                   i2l4763 0B54  
                                 i2l4755 0B12                                   i2l4739 0ACA  
                                 i2l4691 09C2                                   i2l4683 09A4  
                                 i2l4675 0958                                   i2l4931 22DE  
                                 i2l4923 228A                                   i2l4915 226A  
                                 i2l4773 3062                                   i2l3797 24D8  
                                 i2l3789 249C                                   i2l6197 1332  
                                 i2l3981 07A0                                   i2l3973 0740  
                                 i2l3965 0700                                   i2l3957 0694  
                                 i2l3949 0642                                   i2l6189 1610  
                                 i2l3885 15B0                                   i2l3877 1530  
                                 i2l3869 14EE                                   i2l4597 17AC  
                                 i2l4589 177E                                   i2l4765 0B5C  
                                 i2l4757 0B20                                   i2l4749 0B02  
                                 i2l4693 09D0                                   i2l4685 09AC  
                                 i2l4677 0980                                   i2l4933 22E2  
                                 i2l4917 2278                                   i2l4775 3068  
                                 i2l3799 24DC                                   i2l3991 081E  
                                 i2l3983 07B6                                   i2l3975 074E  
                                 i2l3967 0718                                   i2l3959 06A8  
                                 i2l3887 15CC                                   i2l3879 1562  
                                 i2l3895 15FA                                   i2l4599 17B0  
                                 i2l4767 0B78                                   i2l4759 0B34  
                                 i2l4695 09D2                                   i2l4687 09AE  
                                 i2l4679 0986                                   i2l4935 22F0  
                                 i2l4927 2290                                   i2l4919 2280  
                                 i2l4777 306C                                   i2l3993 0834  
                                 i2l3985 07C4                                   i2l3977 0770  
                                 i2l3969 0726                                   i2l4769 0B7A  
                                 i2l4697 09D6                                   i2l4689 09B4  
                                 i2l4937 22FE                                   i2l4929 22D0  
                                 i2l4779 307E                                   i2l3995 0840  
                                 i2l3987 07E0                                   i2l3979 078E  
                                 i2l4699 09E4                                   i2l3997 084C  
                                 i2l3989 0814                                   i2l3999 086C  
                                 _SPBRGH 000FB0                 i2USBTransferOnePacket@ep 0009  
                      ??i2_USBDeviceInit 000D                        _shortPacketStatus 0044  
                        USBDeviceTasks@i 0021                             vfprintf@cfmt 00B8  
                      __end_of_UART_Init 0F0E              USBStdFeatureReqHandler@pUEP 0019  
               USBTransferOnePacket@data 0064               USBCtrlTrfInHandler@lastDTS 0002  
                        ??_USBDeviceInit 006F                             ?_timer1_Init 0001  
                      __end_of_UART_puts 3052                                ??___lldiv 006B  
                              ??___lodiv 0073                             ?_USBCBInitEP 0001  
                              ??___lomod 0073                        _USBEnableEndpoint 2EA8  
                                 _memcpy 2E58                                   _memset 0F0E  
                                 clear_0 2D6A                                   clear_1 2D7C  
                                 clear_2 2D88                                   clear_3 2D94  
                                 clear_4 2DA0                                   isa$std 000001  
                                 pad@buf 0075                       ?_USBEnableEndpoint 000B  
                  _USBCBStdSetDscHandler 3158            __end_of_UART_tx_udr_empty_irq 3082  
                                 fputc@c 0063                                   fputs@c 0070  
                                 fputs@i 0071                                   fputs@s 006C  
                           __mediumconst 7B5C                                   tblptrh 000FF7  
                                 tblptrl 000FF6                                   tblptru 000FF8  
                         _gpioInitialize 3116                      ??_USBEnableEndpoint 000C  
                                 putch@c 0001                         __end_of_vfprintf 2E58  
                                 utoa@fp 007E                                ??_sprintf 00C2  
                            _CtrlTrfData 000428                     _controlTransferState 0043  
                             __accesstop 0060                  __end_of__initialization 2DA6  
                          ___rparam_used 000001                           __pcstackCOMRAM 0001  
              __end_of_USBEnableEndpoint 2EF4                            __end_of_sd000 7C23  
                          __end_of_sd001 7B99                            __end_of_sd002 7BC7  
                      _USBCB_SOF_Handler 3152                          _active_protocol 0046  
                          __end_of_fputc 279E                            __end_of_fputs 2F3C  
                          __end_of_putch 3152              __end_of_USBCtrlTrfInHandler 2124  
                     ?_USBCB_SOF_Handler 0001                   i2_USBTransferOnePacket 1C94  
                 __end_of_gpioInitialize 3124                                ?i2_memset 0001  
                    ??_USBCB_SOF_Handler 0001                 ??_USBCtrlTrfSetupHandler 0020  
                _USBTicksSinceSuspendEnd 00F4                                  ??_fputc 0067  
                                ??_fputs 0070                   _USBStdGetStatusHandler 1DD2  
                                ??_putch 0063                        ?_Enable_Interrupt 0001  
                             __pbssBANK0 00D1                               __pbssBANK1 016F  
                             __pbssBANK2 0200                       ??_Enable_Interrupt 0063  
                            _pBDTEntryIn 00E3         __end_of_USBCtrlEPServiceComplete 1C94  
              __end_of_USBCB_SOF_Handler 3154                     USBCtrlTrfRxService@i 0001  
                              ?_UserInit 0001                                  ?_memcpy 0001  
                                _BAUDCON 000FB8                                  ?_memset 0063  
                 ?_USBCBStdSetDscHandler 0001                               _device_dsc 7C0D  
                       _USBCtrlEPService 279E                               _ep_data_in 00F1  
                       _InitializeSystem 3132              __end_of_USBCtrlTrfRxService 1A10  
                     _USBCheckStdRequest 1EF4                        _configDescriptor1 7BC7  
                             __rx_buffer 0430                          ?_gpioInitialize 0001  
                             ??i2_memset 0007              __end_of_USBCtrlTrfTxService 2234  
                    _USBStdSetCfgHandler 2512                               __tx_buffer 0200  
                    ?_USBCheckStdRequest 0001                             ??_UART_putrs 0067  
                           ??_UART_write 0063                                  _UIEbits 000F69  
                       ___lomod@dividend 0063                                  _UIRbits 000F68  
                             _myISR_high 0008                                  __Hparam 0000  
        ??_USBIncrement1msInternalTimers 0001                     ?_USBStdSetCfgHandler 0001  
                                __Lparam 0000                        __end_of_hid_rpt01 7C0D  
                   ??_USBCheckStdRequest 001E                         _ToSendDataBuffer 0175  
                                ___lldiv 2A64                         ??_USBDeviceTasks 0021  
                                ___lodiv 232E                                  ___lomod 2600  
                      ??_USBStallHandler 0001                                ?_vfprintf 00B2  
                             ??_UserInit 0063                        __end_of_myISR_low 0064  
                                __pcinit 2D62                       __end_of_UART_putrs 2FB6  
              __end_of_configDescriptor1 7BF0                                  __ramtop 0800  
                     __end_of_UART_write 2FEC                                  __ptext0 0068  
                                __ptext1 30DA                                  __ptext2 313C  
                                __ptext3 30EE                                  __ptext4 2DB4  
                                __ptext5 2E06                                  __ptext6 136A  
                                __ptext7 0B8E                                  __ptext8 2B9A  
                                __ptext9 2EF4                             i2memset@dest 0001  
                                _inPipes 00D9              _USBDeferOUTDataStagePackets 003A  
                              _T0CONbits 000FD5                             ??_USBSuspend 0017  
                      _USBCBErrorHandler 315A                          i2_USBDeviceInit 177E  
                       i2USBDeviceInit@i 000D                                  _runFlag 0173  
                     ?_USBCBErrorHandler 0001                            ?_USBCBSuspend 0001  
                     __end_of_USB_CD_Ptr 7B65                                  main@cnt 016E  
                                _sprintf 2DB4                           __pintcode_body 2234  
                   end_of_initialization 2DA6                           main@potVoltage 016C  
                     __end_of_USB_SD_Ptr 7B63                                  memcpy@d 0007  
                                memcpy@n 0005                                  memcpy@s 0009  
                    _pBDTEntryEP0OutNext 0034                                  fputc@fp 0065  
                    ??_USBCBErrorHandler 0001                                  memset@c 0065  
                                memset@k 006B                                  memset@n 0067  
                                memset@s 006D                            __Lmediumconst 7B5C  
                                int_func 2234                                  fputs@fp 006E  
                        _USB1msTickCount 00DF                 ?_USBStdFeatureReqHandler 0001  
                  ??_USBStdSetCfgHandler 0017                          ___lldiv@divisor 0067  
                        ___lldiv@counter 006F                       __end_of_USBSuspend 30B0  
                      __end_of_vfpfcnvrt 14D0                  _USBCtrlEPAllowDataStage 2852  
                              _RCSTAbits 000FAB                              UART_write@i 0064  
                                postdec1 000FE5                                  postdec2 000FDD  
                                postinc0 000FEE                                  postinc1 000FE6  
                                postinc2 000FDE                         vfpfcnvrt@convarg 00A8  
                             ??_vfprintf 00B8                 _USBCtrlEPServiceComplete 1B52  
                              _UART_Init 0D54               _USBStatusStageEnabledFlag1 003D  
             _USBStatusStageEnabledFlag2 003C                               _timerStart 313C  
                     USBEnableEndpoint@p 000C                          __rx_buffer_head 0030  
              __end_of_USBCBErrorHandler 315C                          __rx_buffer_tail 002E  
                              _UART_puts 3020                                _TRISAbits 000F92  
                              _TRISEbits 000F96                           ??_USBCBSuspend 0001  
                     _ReceivedDataBuffer 0240                       _BothEP0OutUOWNsSet 0040  
                          __pbssBIGRAM_1 0430                USBConfigureEndpoint@EPNum 0008  
             ?_USBCtrlEPAllowStatusStage 0001      USER_USB_CALLBACK_EVENT_HANDLER@size 0013  
                              _USTATcopy 0048                              ?_myISR_high 0001  
           __end_of_USBTransferOnePacket 1B52                                _TXSTAbits 000FAC  
                  UART_rx_complete_irq@c 0003                    UART_rx_complete_irq@i 0004  
                 UART_tx_udr_empty_irq@c 0001                   _USBCtrlTrfSetupHandler 2B0A  
                ?i2_USBTransferOnePacket 0001                    __end_of_USBDeviceInit 177E  
  __end_of_USBIncrement1msInternalTimers 3020            _USBIncrement1msInternalTimers 2FEC  
                            vfpfcnvrt@ap 00A2                              vfpfcnvrt@cp 00B0  
                            vfpfcnvrt@fp 009E                              _BAUDCONbits 000FB8  
                             ?_UART_Init 0070                  __end_ofi2_USBDeviceInit 18CC  
                              i2memset@c 0003                                i2memset@k 0009  
                              i2memset@n 0005                                i2memset@s 000B  
                         __end_of_memcpy 2EA8                           __end_of_memset 1086  
                             ?_UART_puts 0065                        _USBBusIsSuspended 00F5  
                    start_initialization 2D62                          ___lodiv@divisor 006B  
                  _UART_tx_udr_empty_irq 3052                  ?_USBStdGetStatusHandler 0001  
                        ___lodiv@counter 007B            USBCtrlTrfRxService@byteToRead 0002  
                            __end_of_pad 2C18             __end_of_USBConfigureEndpoint 29B6  
        __end_of_USBStdFeatureReqHandler 0946        __end_of_USBCtrlEPAllowStatusStage 2512  
               __end_of_USBCtrlEPService 2852                 __end_of_InitializeSystem 313C  
              ??_USBCtrlEPAllowDataStage 0002                           USBDeviceInit@i 006F  
                 _pBDTEntryEP0OutCurrent 0036                              vfprintf@fmt 00B4  
                USBTransferOnePacket@dir 0063                  USBTransferOnePacket@len 0066  
         __end_ofi2_USBTransferOnePacket 1DD2                  ??_USBCBStdSetDscHandler 0001  
                    _USBStdGetDscHandler 14D0                         ??_gpioInitialize 0063  
                               ??_memcpy 0007                                 ??_memset 0069  
                            ?_timerStart 0001                               memset@dest 0063  
                 _USBActiveConfiguration 004A           __end_of_USBStdGetStatusHandler 1EF4  
                         _Interrupt_Init 3124                              __pbssCOMRAM 002E  
                          __pcstackBANK0 0060                            __pcstackBANK1 0100  
                   ?_USBStdGetDscHandler 0001               __end_of_USBWakeFromSuspend 2F7E  
                        _USBStallHandler 2D02                             _pBDTEntryOut 00E7  
                              __pintcode 0008                     __end_of_USBCBSuspend 3158  
                          __pmediumconst 7B5C             __end_of_USBCBWakeFromSuspend 3156  
                          UART_Init@temp 0077                                 ?___lldiv 0063  
                               ?___lodiv 0063                                 ?___lomod 0063  
           __end_of_UART_rx_complete_irq 2C8E                                _hid_rpt01 7BF0  
                            __pintcodelo 0018                              ??_UART_Init 0073  
                              _idle_rate 0047                   __end_of_Interrupt_Init 3132  
                       ?i2_USBDeviceInit 0001                              ??_UART_puts 0067  
                        ___lomod@divisor 006B                     _USBTransferOnePacket 1A10  
                              _myISR_low 0018                   ?_UART_tx_udr_empty_irq 0001  
                        ___lomod@counter 0073             __end_of_USBCtrlTrfOutHandler 2D02  
                  ??_USBStdGetDscHandler 0001                              _ep_data_out 00EF  
                               ?_sprintf 00BA            USBConfigureEndpoint@direction 0001  
                               _LATAbits 000F89                                 _LATEbits 000F8D  
             __end_of_USBCheckHIDRequest 136A               ??_USBCtrlEPServiceComplete 0002  
                               _IPR1bits 000F9F                                 _PIE1bits 000F9D  
                               _PIE2bits 000FA0                                 i2u210_40 2968  
                               i2u210_41 2964                                 i2u211_40 2EB8  
                               i2u211_41 2EB4                                 i2u212_40 2ED0  
                               i2u220_40 1D50                                 i2u212_41 2ECC  
                               i2u220_41 1D4C                                 i2u213_40 1212  
                               i2u213_41 120E                                 i2u230_40 21E8  
                               i2u310_40 2CBC                                 i2u214_40 1226  
                               i2u230_41 21E4                                 i2u310_41 2CB8  
                               i2u214_41 1222                                 i2u231_40 2214  
                               i2u311_40 2044                                 i2u215_40 123C  
                               i2u311_41 2040                                 i2u215_41 1238  
                               i2u231_47 220A                                 i2u232_40 2232  
                               i2u312_40 205C                                 i2u240_40 2444  
                               i2u216_40 1250                                 i2u232_41 222E  
                               i2u312_41 2058                                 i2u240_41 2440  
                               i2u216_41 124C                                 i2u153_40 2C26  
                               i2u225_40 2140                                 i2u313_40 207C  
                               i2u241_40 245A                                 i2u217_40 12CA  
                               i2u153_41 2C22                                 i2u225_41 213C  
                               i2u313_41 2078                                 i2u241_41 2456  
                               i2u217_41 12C6                                 i1u386_20 0034  
                               i1u386_21 0030                                 i2u154_40 2C38  
                               i2u226_40 2154                                 i2u314_40 20A8  
                               i2u242_40 2498                                 i2u218_40 1CA6  
                               i2u250_40 158E                                 i2u234_40 10A0  
                               i2u330_40 284C                                 i2u322_40 2F76  
                               i2u154_41 2C34                                 i2u226_41 2150  
                               i2u314_41 20A4                                 i2u242_41 2494  
                               i2u218_41 1CA2                                 i2u234_41 109C  
                               i2u330_41 2848                                 i2u322_41 2F72  
                               i1u387_20 0042                                 i1u387_21 003E  
                               i2u250_47 1584                                 i2u155_40 2C6E  
                               i2u227_40 216C                                 i2u315_40 20D4  
                               i2u219_40 1CEC                                 i2u251_40 15B0  
                               i2u235_40 10E2                                 i2u243_40 286C  
                               i2u323_40 300A                                 i2u155_41 2C6A  
                               i2u227_41 2168                                 i2u315_41 20D0  
                               i2u219_41 1CE8                                 i2u251_41 15AC  
                               i2u235_41 10DE                                 i2u243_41 2868  
                               i2u323_41 3006                                 i2u228_40 219E  
                               i2u316_40 211C                                 i2u260_40 060E  
                               i2u252_40 15EC                                 i2u236_40 1154  
                               i2u244_40 28CA                                 i2u308_40 2EA6  
                               i2u324_40 301C                                 i2u340_40 0980  
                               i2u228_41 219A                                 i2u316_41 2118  
                               i2u260_41 060A                                 i2u236_41 1150  
                               i2u244_41 28C6                                 i2u308_41 2EA2  
                               i2u324_41 3018                                 i2u340_41 097C  
                               i2u252_47 15E2                                 i2u229_40 21CA  
                               i2u309_40 2CA0                                 i2u261_40 0626  
                               i2u253_40 1DF4                                 i2u237_40 119A  
                               i2u245_40 2586                                 i2u325_40 2D10  
                               i2u341_40 0996                                 i2u309_41 2C9C  
                               i2u261_41 0622                                 i2u253_41 1DF0  
                               i2u237_41 1196                                 i2u245_41 2582  
                               i2u325_41 2D0C                                 i2u341_41 0992  
                               i2u229_47 21C0                                 i2u270_40 07A0  
                               i2u262_40 0642                                 i2u254_40 1E1E  
                               i2u238_40 11FA                                 i2u246_40 25D2  
                               i2u326_40 2D2A                                 i2u350_40 0A40  
                               i2u342_40 09A4                                 i2u270_41 079C  
                               i2u262_41 063E                                 i2u254_41 1E1A  
                               i2u238_41 11F6                                 i2u246_41 25CE  
                               i2u326_41 2D26                                 i2u350_41 0A3C  
                               i2u342_41 09A0                                 i2u239_40 2430  
                               i2u271_40 07B6                                 i2u263_40 0656  
                               i2u247_40 14E4                                 i2u255_40 1E2C  
                               i2u327_40 2D44                                 i2u351_40 0A4E  
                               i2u343_40 09C2                                 i2u239_41 242C  
                               i2u271_41 07B2                                 i2u263_41 0652  
                               i2u247_41 14E0                                 i2u255_41 1E28  
                               i2u327_41 2D40                                 i2u351_41 0A4A  
                               i2u343_41 09BE                                 i2u272_40 07C4  
                               i2u264_40 066A                                 i2u248_40 1514  
                               i2u256_40 1E82                                 i2u328_40 27B4  
                               i2u336_40 17E2                                 i2u360_40 0B54  
                               i2u352_40 0A7E                                 i2u344_40 09D0  
                               i2u272_41 07C0                                 i2u264_41 0666  
                               i2u248_41 1510                                 i2u256_41 1E7E  
                               i2u328_41 27B0                                 i2u336_41 17DE  
                               i2u360_41 0B50                                 i2u352_41 0A7A  
                               i2u344_41 09CC                                 i2u273_40 0834  
                               i2u265_40 0680                                 i2u249_40 155E  
                               i2u257_40 1E98                                 i2u329_40 2800  
                               i2u337_40 180E                                 i2u361_40 0B8A  
                               i2u353_40 0A8C                                 i2u345_40 09E4  
                               i2u273_41 0830                                 i2u265_41 067C  
                               i2u257_41 1E94                                 i2u329_41 27FC  
                               i2u337_41 180A                                 i2u361_41 0B86  
                               i2u353_41 0A88                                 i2u345_41 09E0  
                               _PIR1bits 000F9E                                 i2u249_47 1554  
                               i2u362_40 307E                                 i2u274_40 0890  
                               i2u266_40 0694                                 i2u258_40 1EE4  
                               i2u290_40 1C12                                 i2u338_40 1888  
                               i2u354_40 0A9E                                 i2u346_40 09F8  
                               i2u362_41 307A                                 i2u274_41 088C  
                               i2u266_41 0690                                 i2u258_41 1EE0  
                               i2u290_41 1C0E                                 i2u338_41 1884  
                               i2u354_41 0A9A                                 i2u346_41 09F4  
                               i2u275_40 08A6                                 i2u267_40 06A8  
                               i2u259_40 05FA                                 i2u291_40 1C2E  
                               i2u355_40 0AAC                                 i2u347_40 0A06  
                               i2u339_40 0958                                 i2u275_41 08A2  
                               i2u267_41 06A4                                 i2u259_41 05F6  
                               i2u291_41 1C2A                                 i2u355_41 0AA8  
                               i2u347_41 0A02                                 i2u339_41 0954  
                               _PIR2bits 000FA1                                 i2u276_40 08B6  
                               i2u268_40 0726                                 i2u292_40 1C8E  
                               i2u356_40 0ADC                                 i2u348_40 0A20  
                               i2u380_40 226A                                 i2u276_41 08B2  
                               i2u268_41 0722                                 i2u292_41 1C8A  
                               i2u356_41 0AD8                                 i2u348_41 0A1C  
                               i2u380_41 2266                                 i2u293_40 18F4  
                               i2u269_40 074E                                 i2u357_40 0AF0  
                               i2u349_40 0A2E                                 i2u381_40 2278  
                               i2u293_41 18F0                                 i2u269_41 074A  
                               i2u357_41 0AEC                                 i2u349_41 0A2A  
                               i2u381_41 2274                                 i2u294_40 1938  
                               i2u286_40 1B64                                 i2u358_40 0B02  
                               i2u382_40 22D0                                 i2u294_41 1934  
                               i2u286_41 1B60                                 i2u358_41 0AFE  
                               i2u382_41 22CC                                 i2u295_40 194A  
                               i2u287_40 1B72                                 i2u359_40 0B20  
                               i2u383_40 22DE                                 i2u295_41 1946  
                               i2u287_41 1B6E                                 i2u359_41 0B1C  
                               i2u383_41 22DA                                 i2u296_40 1984  
                               i2u288_40 1B86                                 i2u384_40 22F0  
                               i2u296_41 1980                                 i2u288_41 1B82  
                               i2u384_41 22EC                                 i2u297_40 1A0A  
                               i2u289_40 1BFE                                 i2u385_40 22FE  
                               i2u297_41 1A06                                 i2u289_41 1BFA  
                               i2u385_41 22FA                                 i2u298_40 1F0C  
                               i2u298_41 1F08                           _timerZero_Init 30DA  
                               _RCONbits 000FD0                            ??_timer1_Init 0063  
                               _UEP0bits 000F70               _USBDeferINDataStagePackets 003B  
                          ??_USBCBInitEP 000F                                 _UCONbits 000F6D  
                      UART_Init@baudRate 0070                     _USBConfigureEndpoint 2906  
                              _vfpfcnvrt 136A                          ?_Interrupt_Init 0001  
                             _ADCON0bits 000FC2                    ?_USBTransferOnePacket 0063  
                        __tx_buffer_head 0039                                main@w_790 0168  
                              main@w_792 016A                                main@w_788 0166  
                             ?_myISR_low 0001                          __tx_buffer_tail 0038  
                         UART_write@data 0063                             _RemoteWakeup 0042  
                               i2_memset 1086               __end_of_USBCBCheckOtherReq 3150  
                __end_of_USBStallHandler 2D62                              _INTCON2bits 000FF1  
            ??_USBCtrlEPAllowStatusStage 0001              __end_of_USBStdSetCfgHandler 2600  
                           ??_myISR_high 0022                       __end_of_device_dsc 7C1F  
                ?_USBCtrlTrfSetupHandler 0001                   __end_of_timerZero_Init 30EE  
                USBStdGetStatusHandler@p 0003                                 __Hrparam 0000  
                              memcpy@tmp 000B                               vfprintf@ap 00B6  
                               __Lrparam 0000                               vfprintf@fp 00B2  
                 USBTransferOnePacket@ep 006B                                 _SetupPkt 000420  
                       _Enable_Interrupt 3144                    ?_USBConfigureEndpoint 0001  
                               _UserInit 3102                               ?_vfpfcnvrt 009E  
                    __end_of_timer1_Init 3102                       __end_of_myISR_high 232E  
                    __end_of_USBCBInitEP 30DA                               sprintf@fmt 00BC  
                               __ptext10 26D2                                 __ptext11 3150  
                               __ptext20 2A64                                 __ptext12 2600  
                               __ptext21 3124                                 __ptext13 232E  
                               __ptext30 177E                                 __ptext22 3132  
                               __ptext14 3116                                 __ptext31 2F3C  
                               __ptext23 3102                                 __ptext15 1A10  
                               __ptext40 1EF4                                 __ptext32 3082  
                               __ptext24 1630                                 __ptext16 3020  
                               __ptext41 2512                                 __ptext33 2D02  
                               __ptext25 0F0E                                 __ptext17 2F7E  
                               __ptext50 3158                                 __ptext42 1086  
                               __ptext34 2FEC                                 __ptext26 3144  
                               __ptext18 2FB6                                 __ptext51 30B0  
                               __ptext43 1DD2                                 __ptext35 279E  
                               __ptext19 0D54                                 __ptext60 2420  
                               __ptext52 1C94                                 __ptext44 14D0  
                               __ptext36 2E58                                 __ptext61 2014  
                               __ptext53 2EA8                                 __ptext45 05E8  
                               __ptext37 2B0A                                 __ptext29 0946  
                               __ptext62 2124                                 __ptext54 2906  
                               __ptext46 29B6                                 __ptext38 1B52  
                               __ptext63 3052                                 __ptext55 315A  
                               __ptext47 3152                                 __ptext39 2852  
                               __ptext64 2C18                                 __ptext56 314A  
                               __ptext48 3154                                 __ptext57 11FC  
                               __ptext49 3156                                 __ptext58 2C8E  
                               __ptext59 18CC                     _USBCBWakeFromSuspend 3154  
                   _UART_rx_complete_irq 2C18           __end_of_USBCtrlTrfSetupHandler 2B9A  
                      ?_USBCtrlEPService 0001                        ?_InitializeSystem 0001  
                     ??_USBCtrlEPService 0020                          ?_timerZero_Init 0001  
                    _USBCtrlTrfInHandler 2014                       ??_InitializeSystem 0070  
                               isa$xinst 000000                                 _outPipes 00D1  
                          UART_putrs@ptr 0065                     _USBCtrlTrfOutHandler 2C8E  
                               int$flags 004B                _USBCtrlEPAllowStatusStage 2420  
          __end_of_USBCBStdSetDscHandler 315A                                 _vfprintf 2E06  
                           ??_timerStart 0063                   ??_USBTransferOnePacket 0067  
                               main@temp 0100                              ??_myISR_low 0060  
              _USBDeferStatusStagePacket 003E                               _INTCONbits 000FF2  
                   ?_USBCtrlTrfInHandler 0001                                 memcpy@d1 0001  
                               memcpy@s1 0003            USBCtrlTrfTxService@byteToSend 0001  
                           _USBCBSuspend 3156                         ?_USBStallHandler 0001  
               USBStdFeatureReqHandler@p 001C                    ?_USBCBWakeFromSuspend 0001  
                               intlevel1 0000                                 intlevel2 0000  
                  ?_UART_rx_complete_irq 0001                                sprintf@ap 00C2  
__end_of_USER_USB_CALLBACK_EVENT_HANDLER 2A64        ??_USER_USB_CALLBACK_EVENT_HANDLER 0015  
       ?_USER_USB_CALLBACK_EVENT_HANDLER 000F          _USER_USB_CALLBACK_EVENT_HANDLER 29B6  
           i2USBTransferOnePacket@handle 000A                         ___lldiv@dividend 0063  
                     __end_of_timerStart 3144                             UART_puts@ptr 0065  
             i2USBTransferOnePacket@data 0002                   ??_USBConfigureEndpoint 0002  
                  ?_USBCtrlTrfOutHandler 0001                              _timer1_Init 30EE  
                    _USBCtrlTrfRxService 18CC                              _USBCBInitEP 30B0  
                     _USBWakeFromSuspend 2F3C                            _usbTimerState 0045  
                _USBStdFeatureReqHandler 05E8                              ??_vfpfcnvrt 00A4  
                ??_UART_tx_udr_empty_irq 0001                      _USBCtrlTrfTxService 2124  
                               sprintf@f 00C4                                 sprintf@s 00BA  
                    ?_USBWakeFromSuspend 0001                         ___lldiv@quotient 006B  
                  ??_USBCtrlTrfInHandler 0002                    _USBAlternateInterface 0049  
              i2USBTransferOnePacket@dir 0001                i2USBTransferOnePacket@len 0004  
                    USBEnableEndpoint@ep 000E                          _endpoint_number 0041  
                   ?_USBCtrlTrfRxService 0001                               _UART_putrs 2F7E  
                             _UART_write 2FB6                 ?_USBCtrlEPAllowDataStage 0001  
                   ?_USBCtrlTrfTxService 0001             _USBStatusStageTimeoutCounter 003F  
                   ??_USBWakeFromSuspend 0017               USBTransferOnePacket@handle 006C  
                             _USB_CD_Ptr 7B63                              _USBInHandle 016F  
